
/home/atripathi/Desktop/9th_Semester_Project/RPI_PICO/ddssweeper/build/dds-sweeper.elf:     file format elf32-littlearm

Sections:
Idx Name          Size      VMA       LMA       File off  Algn
  0 .boot2        00000100  10000000  10000000  00001000  2**0
                  CONTENTS, ALLOC, LOAD, READONLY, CODE
  1 .text         0000adf8  10000100  10000100  00001100  2**3
                  CONTENTS, ALLOC, LOAD, READONLY, CODE
  2 .rodata       00000988  1000aef8  1000aef8  0000bef8  2**3
                  CONTENTS, ALLOC, LOAD, READONLY, DATA
  3 .binary_info  00000020  1000b880  1000b880  0000c880  2**2
                  CONTENTS, ALLOC, LOAD, READONLY, DATA
  4 .ram_vector_table 000000c0  20000000  20000000  0000f000  2**2
                  ALLOC
  5 .data         00001468  200000c0  1000b8a0  0000d0c0  2**4
                  CONTENTS, ALLOC, LOAD, READONLY, CODE
  6 .uninitialized_data 00000000  20001528  20001528  0000e528  2**0
                  CONTENTS
  7 .scratch_x    00000000  20040000  20040000  0000e528  2**0
                  CONTENTS
  8 .scratch_y    00000000  20041000  20041000  0000e528  2**0
                  CONTENTS
  9 .bss          0003ded4  20001528  20001528  0000f000  2**3
                  ALLOC
 10 .heap         00000800  2003f3fc  2003f3fc  0000e528  2**2
                  CONTENTS, READONLY
 11 .stack1_dummy 00000800  20040000  20040000  0000f000  2**2
                  ALLOC
 12 .stack_dummy  00000800  20041000  20041000  0000ed40  2**5
                  CONTENTS, READONLY
 13 .ARM.attributes 00000028  00000000  00000000  0000f540  2**0
                  CONTENTS, READONLY
 14 .comment      00000046  00000000  00000000  0000f568  2**0
                  CONTENTS, READONLY
 15 .debug_line   00000ba0  00000000  00000000  0000f5ae  2**0
                  CONTENTS, READONLY, DEBUGGING, OCTETS
 16 .debug_line_str 0000007e  00000000  00000000  0001014e  2**0
                  CONTENTS, READONLY, DEBUGGING, OCTETS
 17 .debug_info   000022e7  00000000  00000000  000101cc  2**0
                  CONTENTS, READONLY, DEBUGGING, OCTETS
 18 .debug_abbrev 00000afc  00000000  00000000  000124b3  2**0
                  CONTENTS, READONLY, DEBUGGING, OCTETS
 19 .debug_aranges 00000148  00000000  00000000  00012fb0  2**3
                  CONTENTS, READONLY, DEBUGGING, OCTETS
 20 .debug_str    00000bb0  00000000  00000000  000130f8  2**0
                  CONTENTS, READONLY, DEBUGGING, OCTETS
 21 .debug_loclists 0000041d  00000000  00000000  00013ca8  2**0
                  CONTENTS, READONLY, DEBUGGING, OCTETS
 22 .debug_rnglists 000000a6  00000000  00000000  000140c5  2**0
                  CONTENTS, READONLY, DEBUGGING, OCTETS
 23 .debug_frame  00000204  00000000  00000000  0001416c  2**2
                  CONTENTS, READONLY, DEBUGGING, OCTETS

/home/atripathi/Desktop/9th_Semester_Project/RPI_PICO/ddssweeper/build/dds-sweeper.elf:     file format elf32-littlearm


Disassembly of section .boot2:

10000000 <__boot2_start__>:
10000000:	4b32b500 	.word	0x4b32b500
10000004:	60582021 	.word	0x60582021
10000008:	21026898 	.word	0x21026898
1000000c:	60984388 	.word	0x60984388
10000010:	611860d8 	.word	0x611860d8
10000014:	4b2e6158 	.word	0x4b2e6158
10000018:	60992100 	.word	0x60992100
1000001c:	61592102 	.word	0x61592102
10000020:	22f02101 	.word	0x22f02101
10000024:	492b5099 	.word	0x492b5099
10000028:	21016019 	.word	0x21016019
1000002c:	20356099 	.word	0x20356099
10000030:	f844f000 	.word	0xf844f000
10000034:	42902202 	.word	0x42902202
10000038:	2106d014 	.word	0x2106d014
1000003c:	f0006619 	.word	0xf0006619
10000040:	6e19f834 	.word	0x6e19f834
10000044:	66192101 	.word	0x66192101
10000048:	66182000 	.word	0x66182000
1000004c:	f000661a 	.word	0xf000661a
10000050:	6e19f82c 	.word	0x6e19f82c
10000054:	6e196e19 	.word	0x6e196e19
10000058:	f0002005 	.word	0xf0002005
1000005c:	2101f82f 	.word	0x2101f82f
10000060:	d1f94208 	.word	0xd1f94208
10000064:	60992100 	.word	0x60992100
10000068:	6019491b 	.word	0x6019491b
1000006c:	60592100 	.word	0x60592100
10000070:	481b491a 	.word	0x481b491a
10000074:	21016001 	.word	0x21016001
10000078:	21eb6099 	.word	0x21eb6099
1000007c:	21a06619 	.word	0x21a06619
10000080:	f0006619 	.word	0xf0006619
10000084:	2100f812 	.word	0x2100f812
10000088:	49166099 	.word	0x49166099
1000008c:	60014814 	.word	0x60014814
10000090:	60992101 	.word	0x60992101
10000094:	2800bc01 	.word	0x2800bc01
10000098:	4700d000 	.word	0x4700d000
1000009c:	49134812 	.word	0x49134812
100000a0:	c8036008 	.word	0xc8036008
100000a4:	8808f380 	.word	0x8808f380
100000a8:	b5034708 	.word	0xb5034708
100000ac:	20046a99 	.word	0x20046a99
100000b0:	d0fb4201 	.word	0xd0fb4201
100000b4:	42012001 	.word	0x42012001
100000b8:	bd03d1f8 	.word	0xbd03d1f8
100000bc:	6618b502 	.word	0x6618b502
100000c0:	f7ff6618 	.word	0xf7ff6618
100000c4:	6e18fff2 	.word	0x6e18fff2
100000c8:	bd026e18 	.word	0xbd026e18
100000cc:	40020000 	.word	0x40020000
100000d0:	18000000 	.word	0x18000000
100000d4:	00070000 	.word	0x00070000
100000d8:	005f0300 	.word	0x005f0300
100000dc:	00002221 	.word	0x00002221
100000e0:	180000f4 	.word	0x180000f4
100000e4:	a0002022 	.word	0xa0002022
100000e8:	10000100 	.word	0x10000100
100000ec:	e000ed08 	.word	0xe000ed08
	...
100000fc:	7a4eb274 	.word	0x7a4eb274

Disassembly of section .text:

10000100 <__VECTOR_TABLE>:
10000100:	20042000 	.word	0x20042000
10000104:	100001f7 	.word	0x100001f7
10000108:	100001c3 	.word	0x100001c3
1000010c:	100001c5 	.word	0x100001c5
10000110:	100001c1 	.word	0x100001c1
10000114:	100001c1 	.word	0x100001c1
10000118:	100001c1 	.word	0x100001c1
1000011c:	100001c1 	.word	0x100001c1
10000120:	100001c1 	.word	0x100001c1
10000124:	100001c1 	.word	0x100001c1
10000128:	100001c1 	.word	0x100001c1
1000012c:	100001c7 	.word	0x100001c7
10000130:	100001c1 	.word	0x100001c1
10000134:	100001c1 	.word	0x100001c1
10000138:	100001c9 	.word	0x100001c9
1000013c:	100001cb 	.word	0x100001cb
10000140:	100001cd 	.word	0x100001cd
10000144:	100001cd 	.word	0x100001cd
10000148:	100001cd 	.word	0x100001cd
1000014c:	100001cd 	.word	0x100001cd
10000150:	100001cd 	.word	0x100001cd
10000154:	100001cd 	.word	0x100001cd
10000158:	100001cd 	.word	0x100001cd
1000015c:	100001cd 	.word	0x100001cd
10000160:	100001cd 	.word	0x100001cd
10000164:	100001cd 	.word	0x100001cd
10000168:	100001cd 	.word	0x100001cd
1000016c:	100001cd 	.word	0x100001cd
10000170:	100001cd 	.word	0x100001cd
10000174:	100001cd 	.word	0x100001cd
10000178:	100001cd 	.word	0x100001cd
1000017c:	100001cd 	.word	0x100001cd
10000180:	100001cd 	.word	0x100001cd
10000184:	100001cd 	.word	0x100001cd
10000188:	100001cd 	.word	0x100001cd
1000018c:	100001cd 	.word	0x100001cd
10000190:	100001cd 	.word	0x100001cd
10000194:	100001cd 	.word	0x100001cd
10000198:	100001cd 	.word	0x100001cd
1000019c:	100001cd 	.word	0x100001cd
100001a0:	100001cd 	.word	0x100001cd
100001a4:	100001cd 	.word	0x100001cd
100001a8:	100001cd 	.word	0x100001cd
100001ac:	100001cd 	.word	0x100001cd
100001b0:	100001cd 	.word	0x100001cd
100001b4:	100001cd 	.word	0x100001cd
100001b8:	100001cd 	.word	0x100001cd
100001bc:	100001cd 	.word	0x100001cd

100001c0 <isr_invalid>:
100001c0:	be00      	bkpt	0x0000

100001c2 <isr_nmi>:
100001c2:	be00      	bkpt	0x0000

100001c4 <isr_hardfault>:
100001c4:	be00      	bkpt	0x0000

100001c6 <isr_svcall>:
100001c6:	be00      	bkpt	0x0000

100001c8 <isr_pendsv>:
100001c8:	be00      	bkpt	0x0000

100001ca <isr_systick>:
100001ca:	be00      	bkpt	0x0000

100001cc <__unhandled_user_irq>:
100001cc:	f3ef 8005 	mrs	r0, IPSR
100001d0:	3810      	subs	r0, #16

100001d2 <unhandled_user_irq_num_in_r0>:
100001d2:	be00      	bkpt	0x0000

100001d4 <binary_info_header>:
100001d4:	7188ebf2 	.word	0x7188ebf2
100001d8:	1000b880 	.word	0x1000b880
100001dc:	1000b8a0 	.word	0x1000b8a0
100001e0:	10000234 	.word	0x10000234
100001e4:	e71aa390 	.word	0xe71aa390

100001e8 <_entry_point>:
100001e8:	2000      	movs	r0, #0
100001ea:	491f      	ldr	r1, [pc, #124]	@ (10000268 <hold_non_core0_in_bootrom+0xa>)
100001ec:	6008      	str	r0, [r1, #0]
100001ee:	c806      	ldmia	r0!, {r1, r2}
100001f0:	f381 8808 	msr	MSP, r1
100001f4:	4710      	bx	r2

100001f6 <_reset_handler>:
100001f6:	481d      	ldr	r0, [pc, #116]	@ (1000026c <hold_non_core0_in_bootrom+0xe>)
100001f8:	6800      	ldr	r0, [r0, #0]
100001fa:	2800      	cmp	r0, #0
100001fc:	d12f      	bne.n	1000025e <hold_non_core0_in_bootrom>
100001fe:	a40d      	add	r4, pc, #52	@ (adr r4, 10000234 <data_cpy_table>)
10000200:	cc0e      	ldmia	r4!, {r1, r2, r3}
10000202:	2900      	cmp	r1, #0
10000204:	d002      	beq.n	1000020c <_reset_handler+0x16>
10000206:	f000 f812 	bl	1000022e <data_cpy>
1000020a:	e7f9      	b.n	10000200 <_reset_handler+0xa>
1000020c:	4918      	ldr	r1, [pc, #96]	@ (10000270 <hold_non_core0_in_bootrom+0x12>)
1000020e:	4a19      	ldr	r2, [pc, #100]	@ (10000274 <hold_non_core0_in_bootrom+0x16>)
10000210:	2000      	movs	r0, #0
10000212:	e000      	b.n	10000216 <bss_fill_test>

10000214 <bss_fill_loop>:
10000214:	c101      	stmia	r1!, {r0}

10000216 <bss_fill_test>:
10000216:	4291      	cmp	r1, r2
10000218:	d1fc      	bne.n	10000214 <bss_fill_loop>

1000021a <platform_entry>:
1000021a:	4917      	ldr	r1, [pc, #92]	@ (10000278 <hold_non_core0_in_bootrom+0x1a>)
1000021c:	4788      	blx	r1
1000021e:	4917      	ldr	r1, [pc, #92]	@ (1000027c <hold_non_core0_in_bootrom+0x1e>)
10000220:	4788      	blx	r1
10000222:	4917      	ldr	r1, [pc, #92]	@ (10000280 <hold_non_core0_in_bootrom+0x22>)
10000224:	4788      	blx	r1
10000226:	be00      	bkpt	0x0000
10000228:	e7fd      	b.n	10000226 <platform_entry+0xc>

1000022a <data_cpy_loop>:
1000022a:	c901      	ldmia	r1!, {r0}
1000022c:	c201      	stmia	r2!, {r0}

1000022e <data_cpy>:
1000022e:	429a      	cmp	r2, r3
10000230:	d3fb      	bcc.n	1000022a <data_cpy_loop>
10000232:	4770      	bx	lr

10000234 <data_cpy_table>:
10000234:	1000b8a0 	.word	0x1000b8a0
10000238:	200000c0 	.word	0x200000c0
1000023c:	20001528 	.word	0x20001528
10000240:	1000cd08 	.word	0x1000cd08
10000244:	20040000 	.word	0x20040000
10000248:	20040000 	.word	0x20040000
1000024c:	1000cd08 	.word	0x1000cd08
10000250:	20041000 	.word	0x20041000
10000254:	20041000 	.word	0x20041000
10000258:	00000000 	.word	0x00000000
1000025c:	4770      	bx	lr

1000025e <hold_non_core0_in_bootrom>:
1000025e:	4809      	ldr	r0, [pc, #36]	@ (10000284 <hold_non_core0_in_bootrom+0x26>)
10000260:	f006 fe0e 	bl	10006e80 <rom_func_lookup>
10000264:	4700      	bx	r0
10000266:	0000      	.short	0x0000
10000268:	e000ed08 	.word	0xe000ed08
1000026c:	d0000000 	.word	0xd0000000
10000270:	20001528 	.word	0x20001528
10000274:	2003f3fc 	.word	0x2003f3fc
10000278:	100055e5 	.word	0x100055e5
1000027c:	10003265 	.word	0x10003265
10000280:	100056d5 	.word	0x100056d5
10000284:	00005657 	.word	0x00005657

10000288 <__bi_50>:
10000288:	50520006 5360b3ab 1000b608              ..RP..`S....

10000294 <__bi_38>:
10000294:	50520006 02031c86 1000b618              ..RP........

100002a0 <__bi_30>:
100002a0:	50520006 9da22254 1000b624              ..RPT"..$...

100002ac <__bi_22>:
100002ac:	50520005 68f465de 1000cd08              ..RP.e.h....

100002b8 <_init>:
100002b8:	b5f8      	push	{r3, r4, r5, r6, r7, lr}
100002ba:	46c0      	nop			@ (mov r8, r8)

100002bc <deregister_tm_clones>:
100002bc:	4804      	ldr	r0, [pc, #16]	@ (100002d0 <deregister_tm_clones+0x14>)
100002be:	4b05      	ldr	r3, [pc, #20]	@ (100002d4 <deregister_tm_clones+0x18>)
100002c0:	b510      	push	{r4, lr}
100002c2:	4283      	cmp	r3, r0
100002c4:	d003      	beq.n	100002ce <deregister_tm_clones+0x12>
100002c6:	4b04      	ldr	r3, [pc, #16]	@ (100002d8 <deregister_tm_clones+0x1c>)
100002c8:	2b00      	cmp	r3, #0
100002ca:	d000      	beq.n	100002ce <deregister_tm_clones+0x12>
100002cc:	4798      	blx	r3
100002ce:	bd10      	pop	{r4, pc}
100002d0:	20001528 	.word	0x20001528
100002d4:	20001528 	.word	0x20001528
100002d8:	00000000 	.word	0x00000000

100002dc <register_tm_clones>:
100002dc:	4806      	ldr	r0, [pc, #24]	@ (100002f8 <register_tm_clones+0x1c>)
100002de:	4907      	ldr	r1, [pc, #28]	@ (100002fc <register_tm_clones+0x20>)
100002e0:	1a09      	subs	r1, r1, r0
100002e2:	108b      	asrs	r3, r1, #2
100002e4:	0fc9      	lsrs	r1, r1, #31
100002e6:	18c9      	adds	r1, r1, r3
100002e8:	b510      	push	{r4, lr}
100002ea:	1049      	asrs	r1, r1, #1
100002ec:	d003      	beq.n	100002f6 <register_tm_clones+0x1a>
100002ee:	4b04      	ldr	r3, [pc, #16]	@ (10000300 <register_tm_clones+0x24>)
100002f0:	2b00      	cmp	r3, #0
100002f2:	d000      	beq.n	100002f6 <register_tm_clones+0x1a>
100002f4:	4798      	blx	r3
100002f6:	bd10      	pop	{r4, pc}
100002f8:	20001528 	.word	0x20001528
100002fc:	20001528 	.word	0x20001528
10000300:	00000000 	.word	0x00000000

10000304 <__do_global_dtors_aux>:
10000304:	b510      	push	{r4, lr}
10000306:	4c07      	ldr	r4, [pc, #28]	@ (10000324 <__do_global_dtors_aux+0x20>)
10000308:	7823      	ldrb	r3, [r4, #0]
1000030a:	2b00      	cmp	r3, #0
1000030c:	d109      	bne.n	10000322 <__do_global_dtors_aux+0x1e>
1000030e:	f7ff ffd5 	bl	100002bc <deregister_tm_clones>
10000312:	4b05      	ldr	r3, [pc, #20]	@ (10000328 <__do_global_dtors_aux+0x24>)
10000314:	2b00      	cmp	r3, #0
10000316:	d002      	beq.n	1000031e <__do_global_dtors_aux+0x1a>
10000318:	4804      	ldr	r0, [pc, #16]	@ (1000032c <__do_global_dtors_aux+0x28>)
1000031a:	e000      	b.n	1000031e <__do_global_dtors_aux+0x1a>
1000031c:	bf00      	nop
1000031e:	2301      	movs	r3, #1
10000320:	7023      	strb	r3, [r4, #0]
10000322:	bd10      	pop	{r4, pc}
10000324:	20001870 	.word	0x20001870
10000328:	00000000 	.word	0x00000000
1000032c:	1000aef8 	.word	0x1000aef8

10000330 <frame_dummy>:
10000330:	4b05      	ldr	r3, [pc, #20]	@ (10000348 <frame_dummy+0x18>)
10000332:	b510      	push	{r4, lr}
10000334:	2b00      	cmp	r3, #0
10000336:	d003      	beq.n	10000340 <frame_dummy+0x10>
10000338:	4904      	ldr	r1, [pc, #16]	@ (1000034c <frame_dummy+0x1c>)
1000033a:	4805      	ldr	r0, [pc, #20]	@ (10000350 <frame_dummy+0x20>)
1000033c:	e000      	b.n	10000340 <frame_dummy+0x10>
1000033e:	bf00      	nop
10000340:	f7ff ffcc 	bl	100002dc <register_tm_clones>
10000344:	bd10      	pop	{r4, pc}
10000346:	46c0      	nop			@ (mov r8, r8)
10000348:	00000000 	.word	0x00000000
1000034c:	20001874 	.word	0x20001874
10000350:	1000aef8 	.word	0x1000aef8

10000354 <background>:
10000354:	b5f0      	push	{r4, r5, r6, r7, lr}
10000356:	4645      	mov	r5, r8
10000358:	46de      	mov	lr, fp
1000035a:	4657      	mov	r7, sl
1000035c:	464e      	mov	r6, r9
1000035e:	b5e0      	push	{r5, r6, r7, lr}
10000360:	2000      	movs	r0, #0
10000362:	b089      	sub	sp, #36	@ 0x24
10000364:	f00a f952 	bl	1000a60c <multicore_fifo_push_blocking>
10000368:	4d5c      	ldr	r5, [pc, #368]	@ (100004dc <background+0x188>)
1000036a:	4b5d      	ldr	r3, [pc, #372]	@ (100004e0 <background+0x18c>)
1000036c:	46a9      	mov	r9, r5
1000036e:	9304      	str	r3, [sp, #16]
10000370:	4b5c      	ldr	r3, [pc, #368]	@ (100004e4 <background+0x190>)
10000372:	4f5d      	ldr	r7, [pc, #372]	@ (100004e8 <background+0x194>)
10000374:	4698      	mov	r8, r3
10000376:	4b5d      	ldr	r3, [pc, #372]	@ (100004ec <background+0x198>)
10000378:	9306      	str	r3, [sp, #24]
1000037a:	4b5d      	ldr	r3, [pc, #372]	@ (100004f0 <background+0x19c>)
1000037c:	9307      	str	r3, [sp, #28]
1000037e:	4b5d      	ldr	r3, [pc, #372]	@ (100004f4 <background+0x1a0>)
10000380:	9303      	str	r3, [sp, #12]
10000382:	4b5d      	ldr	r3, [pc, #372]	@ (100004f8 <background+0x1a4>)
10000384:	9302      	str	r3, [sp, #8]
10000386:	f00a f94b 	bl	1000a620 <multicore_fifo_pop_blocking>
1000038a:	9c04      	ldr	r4, [sp, #16]
1000038c:	9005      	str	r0, [sp, #20]
1000038e:	0020      	movs	r0, r4
10000390:	f00a fdaa 	bl	1000aee8 <__mutex_enter_blocking_veneer>
10000394:	4643      	mov	r3, r8
10000396:	2201      	movs	r2, #1
10000398:	0020      	movs	r0, r4
1000039a:	601a      	str	r2, [r3, #0]
1000039c:	f00a fd34 	bl	1000ae08 <__mutex_exit_veneer>
100003a0:	9b06      	ldr	r3, [sp, #24]
100003a2:	9a07      	ldr	r2, [sp, #28]
100003a4:	691b      	ldr	r3, [r3, #16]
100003a6:	6812      	ldr	r2, [r2, #0]
100003a8:	435a      	muls	r2, r3
100003aa:	2301      	movs	r3, #1
100003ac:	4693      	mov	fp, r2
100003ae:	445b      	add	r3, fp
100003b0:	469a      	mov	sl, r3
100003b2:	783b      	ldrb	r3, [r7, #0]
100003b4:	2b00      	cmp	r3, #0
100003b6:	d100      	bne.n	100003ba <background+0x66>
100003b8:	e08d      	b.n	100004d6 <background+0x182>
100003ba:	43d0      	mvns	r0, r2
100003bc:	4653      	mov	r3, sl
100003be:	2500      	movs	r5, #0
100003c0:	4654      	mov	r4, sl
100003c2:	1838      	adds	r0, r7, r0
100003c4:	0019      	movs	r1, r3
100003c6:	191b      	adds	r3, r3, r4
100003c8:	5cc2      	ldrb	r2, [r0, r3]
100003ca:	3501      	adds	r5, #1
100003cc:	2a00      	cmp	r2, #0
100003ce:	d1f9      	bne.n	100003c4 <background+0x70>
100003d0:	46a2      	mov	sl, r4
100003d2:	3101      	adds	r1, #1
100003d4:	5c7b      	ldrb	r3, [r7, r1]
100003d6:	24d0      	movs	r4, #208	@ 0xd0
100003d8:	2680      	movs	r6, #128	@ 0x80
100003da:	2200      	movs	r2, #0
100003dc:	9301      	str	r3, [sp, #4]
100003de:	464b      	mov	r3, r9
100003e0:	0624      	lsls	r4, r4, #24
100003e2:	00f6      	lsls	r6, r6, #3
100003e4:	601a      	str	r2, [r3, #0]
100003e6:	2001      	movs	r0, #1
100003e8:	6166      	str	r6, [r4, #20]
100003ea:	f004 fa2d 	bl	10004848 <sleep_ms>
100003ee:	2001      	movs	r0, #1
100003f0:	61a6      	str	r6, [r4, #24]
100003f2:	f004 fa29 	bl	10004848 <sleep_ms>
100003f6:	9b05      	ldr	r3, [sp, #20]
100003f8:	2b00      	cmp	r3, #0
100003fa:	d002      	beq.n	10000402 <background+0xae>
100003fc:	2200      	movs	r2, #0
100003fe:	4b3f      	ldr	r3, [pc, #252]	@ (100004fc <background+0x1a8>)
10000400:	611a      	str	r2, [r3, #16]
10000402:	4643      	mov	r3, r8
10000404:	681b      	ldr	r3, [r3, #0]
10000406:	2600      	movs	r6, #0
10000408:	2100      	movs	r1, #0
1000040a:	2b02      	cmp	r3, #2
1000040c:	d023      	beq.n	10000456 <background+0x102>
1000040e:	464b      	mov	r3, r9
10000410:	46a9      	mov	r9, r5
10000412:	001d      	movs	r5, r3
10000414:	4c3a      	ldr	r4, [pc, #232]	@ (10000500 <background+0x1ac>)
10000416:	45b1      	cmp	r9, r6
10000418:	d14e      	bne.n	100004b8 <background+0x164>
1000041a:	9b01      	ldr	r3, [sp, #4]
1000041c:	2b00      	cmp	r3, #0
1000041e:	d019      	beq.n	10000454 <background+0x100>
10000420:	783b      	ldrb	r3, [r7, #0]
10000422:	1c79      	adds	r1, r7, #1
10000424:	465a      	mov	r2, fp
10000426:	4837      	ldr	r0, [pc, #220]	@ (10000504 <background+0x1b0>)
10000428:	6123      	str	r3, [r4, #16]
1000042a:	f00a fd35 	bl	1000ae98 <__spi_write_blocking_veneer>
1000042e:	4651      	mov	r1, sl
10000430:	9b02      	ldr	r3, [sp, #8]
10000432:	781b      	ldrb	r3, [r3, #0]
10000434:	2b00      	cmp	r3, #0
10000436:	d133      	bne.n	100004a0 <background+0x14c>
10000438:	2601      	movs	r6, #1
1000043a:	2280      	movs	r2, #128	@ 0x80
1000043c:	0052      	lsls	r2, r2, #1
1000043e:	6863      	ldr	r3, [r4, #4]
10000440:	4213      	tst	r3, r2
10000442:	d1fc      	bne.n	1000043e <background+0xea>
10000444:	6a23      	ldr	r3, [r4, #32]
10000446:	682b      	ldr	r3, [r5, #0]
10000448:	3301      	adds	r3, #1
1000044a:	602b      	str	r3, [r5, #0]
1000044c:	4643      	mov	r3, r8
1000044e:	681b      	ldr	r3, [r3, #0]
10000450:	2b02      	cmp	r3, #2
10000452:	d1e0      	bne.n	10000416 <background+0xc2>
10000454:	46a9      	mov	r9, r5
10000456:	2001      	movs	r0, #1
10000458:	9b03      	ldr	r3, [sp, #12]
1000045a:	22a0      	movs	r2, #160	@ 0xa0
1000045c:	6819      	ldr	r1, [r3, #0]
1000045e:	4b2a      	ldr	r3, [pc, #168]	@ (10000508 <background+0x1b4>)
10000460:	4088      	lsls	r0, r1
10000462:	05d2      	lsls	r2, r2, #23
10000464:	50d0      	str	r0, [r2, r3]
10000466:	4b29      	ldr	r3, [pc, #164]	@ (1000050c <background+0x1b8>)
10000468:	2280      	movs	r2, #128	@ 0x80
1000046a:	469c      	mov	ip, r3
1000046c:	0189      	lsls	r1, r1, #6
1000046e:	4461      	add	r1, ip
10000470:	0452      	lsls	r2, r2, #17
10000472:	680b      	ldr	r3, [r1, #0]
10000474:	001c      	movs	r4, r3
10000476:	4014      	ands	r4, r2
10000478:	4213      	tst	r3, r2
1000047a:	d1fa      	bne.n	10000472 <background+0x11e>
1000047c:	2380      	movs	r3, #128	@ 0x80
1000047e:	4a24      	ldr	r2, [pc, #144]	@ (10000510 <background+0x1bc>)
10000480:	061b      	lsls	r3, r3, #24
10000482:	6013      	str	r3, [r2, #0]
10000484:	9d04      	ldr	r5, [sp, #16]
10000486:	6013      	str	r3, [r2, #0]
10000488:	4a22      	ldr	r2, [pc, #136]	@ (10000514 <background+0x1c0>)
1000048a:	0028      	movs	r0, r5
1000048c:	6013      	str	r3, [r2, #0]
1000048e:	6013      	str	r3, [r2, #0]
10000490:	f00a fd2a 	bl	1000aee8 <__mutex_enter_blocking_veneer>
10000494:	4643      	mov	r3, r8
10000496:	0028      	movs	r0, r5
10000498:	601c      	str	r4, [r3, #0]
1000049a:	f00a fcb5 	bl	1000ae08 <__mutex_exit_veneer>
1000049e:	e772      	b.n	10000386 <background+0x32>
100004a0:	22a0      	movs	r2, #160	@ 0xa0
100004a2:	05d2      	lsls	r2, r2, #23
100004a4:	4694      	mov	ip, r2
100004a6:	9b03      	ldr	r3, [sp, #12]
100004a8:	4a1b      	ldr	r2, [pc, #108]	@ (10000518 <background+0x1c4>)
100004aa:	681b      	ldr	r3, [r3, #0]
100004ac:	019b      	lsls	r3, r3, #6
100004ae:	4463      	add	r3, ip
100004b0:	601a      	str	r2, [r3, #0]
100004b2:	464a      	mov	r2, r9
100004b4:	61da      	str	r2, [r3, #28]
100004b6:	e7bf      	b.n	10000438 <background+0xe4>
100004b8:	5c7b      	ldrb	r3, [r7, r1]
100004ba:	3101      	adds	r1, #1
100004bc:	6123      	str	r3, [r4, #16]
100004be:	1879      	adds	r1, r7, r1
100004c0:	465a      	mov	r2, fp
100004c2:	4810      	ldr	r0, [pc, #64]	@ (10000504 <background+0x1b0>)
100004c4:	f00a fce8 	bl	1000ae98 <__spi_write_blocking_veneer>
100004c8:	4651      	mov	r1, sl
100004ca:	1c73      	adds	r3, r6, #1
100004cc:	4359      	muls	r1, r3
100004ce:	2e00      	cmp	r6, #0
100004d0:	d0ae      	beq.n	10000430 <background+0xdc>
100004d2:	001e      	movs	r6, r3
100004d4:	e7b1      	b.n	1000043a <background+0xe6>
100004d6:	2101      	movs	r1, #1
100004d8:	2500      	movs	r5, #0
100004da:	e77b      	b.n	100003d4 <background+0x80>
100004dc:	2003f3cc 	.word	0x2003f3cc
100004e0:	2003f3a8 	.word	0x2003f3a8
100004e4:	2003f3a4 	.word	0x2003f3a4
100004e8:	20002270 	.word	0x20002270
100004ec:	20001528 	.word	0x20001528
100004f0:	2000188c 	.word	0x2000188c
100004f4:	2003f3c8 	.word	0x2003f3c8
100004f8:	2003f3f7 	.word	0x2003f3f7
100004fc:	50300000 	.word	0x50300000
10000500:	50200000 	.word	0x50200000
10000504:	40040000 	.word	0x40040000
10000508:	00000444 	.word	0x00000444
1000050c:	5000000c 	.word	0x5000000c
10000510:	502010d0 	.word	0x502010d0
10000514:	503010d0 	.word	0x503010d0
10000518:	2003a450 	.word	0x2003a450

1000051c <init_pio>:
1000051c:	b5f0      	push	{r4, r5, r6, r7, lr}
1000051e:	46d6      	mov	lr, sl
10000520:	464f      	mov	r7, r9
10000522:	4646      	mov	r6, r8
10000524:	b5c0      	push	{r6, r7, lr}
10000526:	4c42      	ldr	r4, [pc, #264]	@ (10000630 <init_pio+0x114>)
10000528:	b084      	sub	sp, #16
1000052a:	0020      	movs	r0, r4
1000052c:	4941      	ldr	r1, [pc, #260]	@ (10000634 <init_pio+0x118>)
1000052e:	f00a fa01 	bl	1000a934 <pio_add_program>
10000532:	2106      	movs	r1, #6
10000534:	0005      	movs	r5, r0
10000536:	2010      	movs	r0, #16
10000538:	f003 faae 	bl	10003a98 <gpio_set_function>
1000053c:	2106      	movs	r1, #6
1000053e:	2011      	movs	r0, #17
10000540:	f003 faaa 	bl	10003a98 <gpio_set_function>
10000544:	2106      	movs	r1, #6
10000546:	2012      	movs	r0, #18
10000548:	f003 faa6 	bl	10003a98 <gpio_set_function>
1000054c:	2106      	movs	r1, #6
1000054e:	2013      	movs	r0, #19
10000550:	f003 faa2 	bl	10003a98 <gpio_set_function>
10000554:	2106      	movs	r1, #6
10000556:	2016      	movs	r0, #22
10000558:	f003 fa9e 	bl	10003a98 <gpio_set_function>
1000055c:	2106      	movs	r1, #6
1000055e:	2008      	movs	r0, #8
10000560:	f003 fa9a 	bl	10003a98 <gpio_set_function>
10000564:	229e      	movs	r2, #158	@ 0x9e
10000566:	0020      	movs	r0, r4
10000568:	2100      	movs	r1, #0
1000056a:	4b33      	ldr	r3, [pc, #204]	@ (10000638 <init_pio+0x11c>)
1000056c:	03d2      	lsls	r2, r2, #15
1000056e:	f00a fa59 	bl	1000aa24 <pio_sm_set_pindirs_with_mask>
10000572:	1deb      	adds	r3, r5, #7
10000574:	01ea      	lsls	r2, r5, #7
10000576:	031b      	lsls	r3, r3, #12
10000578:	4313      	orrs	r3, r2
1000057a:	4a30      	ldr	r2, [pc, #192]	@ (1000063c <init_pio+0x120>)
1000057c:	2780      	movs	r7, #128	@ 0x80
1000057e:	4692      	mov	sl, r2
10000580:	4013      	ands	r3, r2
10000582:	2280      	movs	r2, #128	@ 0x80
10000584:	05d2      	lsls	r2, r2, #23
10000586:	4313      	orrs	r3, r2
10000588:	9301      	str	r3, [sp, #4]
1000058a:	4b2d      	ldr	r3, [pc, #180]	@ (10000640 <init_pio+0x124>)
1000058c:	4e2d      	ldr	r6, [pc, #180]	@ (10000644 <init_pio+0x128>)
1000058e:	9303      	str	r3, [sp, #12]
10000590:	2380      	movs	r3, #128	@ 0x80
10000592:	005b      	lsls	r3, r3, #1
10000594:	4698      	mov	r8, r3
10000596:	4642      	mov	r2, r8
10000598:	4b2b      	ldr	r3, [pc, #172]	@ (10000648 <init_pio+0x12c>)
1000059a:	027f      	lsls	r7, r7, #9
1000059c:	9602      	str	r6, [sp, #8]
1000059e:	0020      	movs	r0, r4
100005a0:	9700      	str	r7, [sp, #0]
100005a2:	2100      	movs	r1, #0
100005a4:	601a      	str	r2, [r3, #0]
100005a6:	466b      	mov	r3, sp
100005a8:	002a      	movs	r2, r5
100005aa:	f00a fa8f 	bl	1000aacc <pio_sm_init>
100005ae:	2201      	movs	r2, #1
100005b0:	6823      	ldr	r3, [r4, #0]
100005b2:	4926      	ldr	r1, [pc, #152]	@ (1000064c <init_pio+0x130>)
100005b4:	4313      	orrs	r3, r2
100005b6:	6023      	str	r3, [r4, #0]
100005b8:	4c25      	ldr	r4, [pc, #148]	@ (10000650 <init_pio+0x134>)
100005ba:	4691      	mov	r9, r2
100005bc:	0020      	movs	r0, r4
100005be:	f00a f9b9 	bl	1000a934 <pio_add_program>
100005c2:	1d03      	adds	r3, r0, #4
100005c4:	01c2      	lsls	r2, r0, #7
100005c6:	031b      	lsls	r3, r3, #12
100005c8:	4313      	orrs	r3, r2
100005ca:	4652      	mov	r2, sl
100005cc:	4013      	ands	r3, r2
100005ce:	9301      	str	r3, [sp, #4]
100005d0:	23c0      	movs	r3, #192	@ 0xc0
100005d2:	031b      	lsls	r3, r3, #12
100005d4:	9302      	str	r3, [sp, #8]
100005d6:	2380      	movs	r3, #128	@ 0x80
100005d8:	0005      	movs	r5, r0
100005da:	059b      	lsls	r3, r3, #22
100005dc:	2107      	movs	r1, #7
100005de:	2008      	movs	r0, #8
100005e0:	9303      	str	r3, [sp, #12]
100005e2:	9700      	str	r7, [sp, #0]
100005e4:	f003 fa58 	bl	10003a98 <gpio_set_function>
100005e8:	4643      	mov	r3, r8
100005ea:	4642      	mov	r2, r8
100005ec:	0020      	movs	r0, r4
100005ee:	2100      	movs	r1, #0
100005f0:	f00a fa18 	bl	1000aa24 <pio_sm_set_pindirs_with_mask>
100005f4:	9a03      	ldr	r2, [sp, #12]
100005f6:	4b17      	ldr	r3, [pc, #92]	@ (10000654 <init_pio+0x138>)
100005f8:	2100      	movs	r1, #0
100005fa:	401a      	ands	r2, r3
100005fc:	2384      	movs	r3, #132	@ 0x84
100005fe:	02db      	lsls	r3, r3, #11
10000600:	4313      	orrs	r3, r2
10000602:	9303      	str	r3, [sp, #12]
10000604:	4a14      	ldr	r2, [pc, #80]	@ (10000658 <init_pio+0x13c>)
10000606:	9b02      	ldr	r3, [sp, #8]
10000608:	0020      	movs	r0, r4
1000060a:	4013      	ands	r3, r2
1000060c:	431e      	orrs	r6, r3
1000060e:	002a      	movs	r2, r5
10000610:	466b      	mov	r3, sp
10000612:	9602      	str	r6, [sp, #8]
10000614:	9700      	str	r7, [sp, #0]
10000616:	f00a fa59 	bl	1000aacc <pio_sm_init>
1000061a:	464a      	mov	r2, r9
1000061c:	6823      	ldr	r3, [r4, #0]
1000061e:	4313      	orrs	r3, r2
10000620:	6023      	str	r3, [r4, #0]
10000622:	b004      	add	sp, #16
10000624:	bce0      	pop	{r5, r6, r7}
10000626:	46ba      	mov	sl, r7
10000628:	46b1      	mov	r9, r6
1000062a:	46a8      	mov	r8, r5
1000062c:	bdf0      	pop	{r4, r5, r6, r7, pc}
1000062e:	46c0      	nop			@ (mov r8, r8)
10000630:	50200000 	.word	0x50200000
10000634:	1000b210 	.word	0x1000b210
10000638:	004f0100 	.word	0x004f0100
1000063c:	9fffffff 	.word	0x9fffffff
10000640:	40445810 	.word	0x40445810
10000644:	021d0000 	.word	0x021d0000
10000648:	50202038 	.word	0x50202038
1000064c:	1000b1f8 	.word	0x1000b1f8
10000650:	50300000 	.word	0x50300000
10000654:	fff003ff 	.word	0xfff003ff
10000658:	c000ffff 	.word	0xc000ffff

1000065c <measure_freqs>:
1000065c:	b5f8      	push	{r3, r4, r5, r6, r7, lr}
1000065e:	46de      	mov	lr, fp
10000660:	4657      	mov	r7, sl
10000662:	464e      	mov	r6, r9
10000664:	4645      	mov	r5, r8
10000666:	2001      	movs	r0, #1
10000668:	b5e0      	push	{r5, r6, r7, lr}
1000066a:	f004 feb3 	bl	100053d4 <frequency_count_khz>
1000066e:	4683      	mov	fp, r0
10000670:	2002      	movs	r0, #2
10000672:	f004 feaf 	bl	100053d4 <frequency_count_khz>
10000676:	4682      	mov	sl, r0
10000678:	2003      	movs	r0, #3
1000067a:	f004 feab 	bl	100053d4 <frequency_count_khz>
1000067e:	4681      	mov	r9, r0
10000680:	2009      	movs	r0, #9
10000682:	f004 fea7 	bl	100053d4 <frequency_count_khz>
10000686:	4680      	mov	r8, r0
10000688:	200a      	movs	r0, #10
1000068a:	f004 fea3 	bl	100053d4 <frequency_count_khz>
1000068e:	0007      	movs	r7, r0
10000690:	200b      	movs	r0, #11
10000692:	f004 fe9f 	bl	100053d4 <frequency_count_khz>
10000696:	0006      	movs	r6, r0
10000698:	200c      	movs	r0, #12
1000069a:	f004 fe9b 	bl	100053d4 <frequency_count_khz>
1000069e:	0005      	movs	r5, r0
100006a0:	200d      	movs	r0, #13
100006a2:	f004 fe97 	bl	100053d4 <frequency_count_khz>
100006a6:	0004      	movs	r4, r0
100006a8:	4659      	mov	r1, fp
100006aa:	4812      	ldr	r0, [pc, #72]	@ (100006f4 <measure_freqs+0x98>)
100006ac:	f007 fdec 	bl	10008288 <__wrap_printf>
100006b0:	4651      	mov	r1, sl
100006b2:	4811      	ldr	r0, [pc, #68]	@ (100006f8 <measure_freqs+0x9c>)
100006b4:	f007 fde8 	bl	10008288 <__wrap_printf>
100006b8:	4649      	mov	r1, r9
100006ba:	4810      	ldr	r0, [pc, #64]	@ (100006fc <measure_freqs+0xa0>)
100006bc:	f007 fde4 	bl	10008288 <__wrap_printf>
100006c0:	4641      	mov	r1, r8
100006c2:	480f      	ldr	r0, [pc, #60]	@ (10000700 <measure_freqs+0xa4>)
100006c4:	f007 fde0 	bl	10008288 <__wrap_printf>
100006c8:	0039      	movs	r1, r7
100006ca:	480e      	ldr	r0, [pc, #56]	@ (10000704 <measure_freqs+0xa8>)
100006cc:	f007 fddc 	bl	10008288 <__wrap_printf>
100006d0:	0031      	movs	r1, r6
100006d2:	480d      	ldr	r0, [pc, #52]	@ (10000708 <measure_freqs+0xac>)
100006d4:	f007 fdd8 	bl	10008288 <__wrap_printf>
100006d8:	0029      	movs	r1, r5
100006da:	480c      	ldr	r0, [pc, #48]	@ (1000070c <measure_freqs+0xb0>)
100006dc:	f007 fdd4 	bl	10008288 <__wrap_printf>
100006e0:	0021      	movs	r1, r4
100006e2:	480b      	ldr	r0, [pc, #44]	@ (10000710 <measure_freqs+0xb4>)
100006e4:	f007 fdd0 	bl	10008288 <__wrap_printf>
100006e8:	bcf0      	pop	{r4, r5, r6, r7}
100006ea:	46bb      	mov	fp, r7
100006ec:	46b2      	mov	sl, r6
100006ee:	46a9      	mov	r9, r5
100006f0:	46a0      	mov	r8, r4
100006f2:	bdf8      	pop	{r3, r4, r5, r6, r7, pc}
100006f4:	1000af58 	.word	0x1000af58
100006f8:	1000af6c 	.word	0x1000af6c
100006fc:	1000af80 	.word	0x1000af80
10000700:	1000af90 	.word	0x1000af90
10000704:	1000afa4 	.word	0x1000afa4
10000708:	1000afb8 	.word	0x1000afb8
1000070c:	1000afcc 	.word	0x1000afcc
10000710:	1000afe0 	.word	0x1000afe0

10000714 <reset>:
10000714:	b570      	push	{r4, r5, r6, lr}
10000716:	24d0      	movs	r4, #208	@ 0xd0
10000718:	2580      	movs	r5, #128	@ 0x80
1000071a:	0624      	lsls	r4, r4, #24
1000071c:	00ad      	lsls	r5, r5, #2
1000071e:	6165      	str	r5, [r4, #20]
10000720:	2001      	movs	r0, #1
10000722:	f004 f891 	bl	10004848 <sleep_ms>
10000726:	61a5      	str	r5, [r4, #24]
10000728:	2580      	movs	r5, #128	@ 0x80
1000072a:	2001      	movs	r0, #1
1000072c:	00ed      	lsls	r5, r5, #3
1000072e:	f004 f88b 	bl	10004848 <sleep_ms>
10000732:	6165      	str	r5, [r4, #20]
10000734:	2001      	movs	r0, #1
10000736:	f004 f887 	bl	10004848 <sleep_ms>
1000073a:	61a5      	str	r5, [r4, #24]
1000073c:	2001      	movs	r0, #1
1000073e:	f004 f883 	bl	10004848 <sleep_ms>
10000742:	2301      	movs	r3, #1
10000744:	220e      	movs	r2, #14
10000746:	4807      	ldr	r0, [pc, #28]	@ (10000764 <reset+0x50>)
10000748:	60c3      	str	r3, [r0, #12]
1000074a:	6103      	str	r3, [r0, #16]
1000074c:	4b06      	ldr	r3, [pc, #24]	@ (10000768 <reset+0x54>)
1000074e:	6881      	ldr	r1, [r0, #8]
10000750:	601a      	str	r2, [r3, #0]
10000752:	f002 ffe7 	bl	10003724 <set_pll_mult>
10000756:	f003 f841 	bl	100037dc <clear>
1000075a:	2200      	movs	r2, #0
1000075c:	4b03      	ldr	r3, [pc, #12]	@ (1000076c <reset+0x58>)
1000075e:	611a      	str	r2, [r3, #16]
10000760:	bd70      	pop	{r4, r5, r6, pc}
10000762:	46c0      	nop			@ (mov r8, r8)
10000764:	20001528 	.word	0x20001528
10000768:	2000188c 	.word	0x2000188c
1000076c:	50200000 	.word	0x50200000

10000770 <loop>:
10000770:	b5f0      	push	{r4, r5, r6, r7, lr}
10000772:	4645      	mov	r5, r8
10000774:	46de      	mov	lr, fp
10000776:	4657      	mov	r7, sl
10000778:	464e      	mov	r6, r9
1000077a:	b5e0      	push	{r5, r6, r7, lr}
1000077c:	2400      	movs	r4, #0
1000077e:	4dc2      	ldr	r5, [pc, #776]	@ (10000a88 <loop+0x318>)
10000780:	b0a7      	sub	sp, #156	@ 0x9c
10000782:	e001      	b.n	10000788 <loop+0x18>
10000784:	3401      	adds	r4, #1
10000786:	5528      	strb	r0, [r5, r4]
10000788:	f007 fd8e 	bl	100082a8 <__wrap_getchar>
1000078c:	b2c0      	uxtb	r0, r0
1000078e:	280a      	cmp	r0, #10
10000790:	d1f8      	bne.n	10000784 <loop+0x14>
10000792:	2300      	movs	r3, #0
10000794:	4ebd      	ldr	r6, [pc, #756]	@ (10000a8c <loop+0x31c>)
10000796:	5533      	strb	r3, [r6, r4]
10000798:	4cbd      	ldr	r4, [pc, #756]	@ (10000a90 <loop+0x320>)
1000079a:	0020      	movs	r0, r4
1000079c:	f00a fba4 	bl	1000aee8 <__mutex_enter_blocking_veneer>
100007a0:	4dbc      	ldr	r5, [pc, #752]	@ (10000a94 <loop+0x324>)
100007a2:	0020      	movs	r0, r4
100007a4:	682f      	ldr	r7, [r5, #0]
100007a6:	f00a fb2f 	bl	1000ae08 <__mutex_exit_veneer>
100007aa:	4bbb      	ldr	r3, [pc, #748]	@ (10000a98 <loop+0x328>)
100007ac:	6832      	ldr	r2, [r6, #0]
100007ae:	429a      	cmp	r2, r3
100007b0:	d100      	bne.n	100007b4 <loop+0x44>
100007b2:	e112      	b.n	100009da <loop+0x26a>
100007b4:	4bb9      	ldr	r3, [pc, #740]	@ (10000a9c <loop+0x32c>)
100007b6:	6832      	ldr	r2, [r6, #0]
100007b8:	429a      	cmp	r2, r3
100007ba:	d100      	bne.n	100007be <loop+0x4e>
100007bc:	e0fd      	b.n	100009ba <loop+0x24a>
100007be:	4bb8      	ldr	r3, [pc, #736]	@ (10000aa0 <loop+0x330>)
100007c0:	6832      	ldr	r2, [r6, #0]
100007c2:	429a      	cmp	r2, r3
100007c4:	d100      	bne.n	100007c8 <loop+0x58>
100007c6:	e12d      	b.n	10000a24 <loop+0x2b4>
100007c8:	4bb5      	ldr	r3, [pc, #724]	@ (10000aa0 <loop+0x330>)
100007ca:	6832      	ldr	r2, [r6, #0]
100007cc:	429a      	cmp	r2, r3
100007ce:	d100      	bne.n	100007d2 <loop+0x62>
100007d0:	e110      	b.n	100009f4 <loop+0x284>
100007d2:	4bb4      	ldr	r3, [pc, #720]	@ (10000aa4 <loop+0x334>)
100007d4:	6832      	ldr	r2, [r6, #0]
100007d6:	429a      	cmp	r2, r3
100007d8:	d100      	bne.n	100007dc <loop+0x6c>
100007da:	e11b      	b.n	10000a14 <loop+0x2a4>
100007dc:	4bb2      	ldr	r3, [pc, #712]	@ (10000aa8 <loop+0x338>)
100007de:	6832      	ldr	r2, [r6, #0]
100007e0:	429a      	cmp	r2, r3
100007e2:	d100      	bne.n	100007e6 <loop+0x76>
100007e4:	e13c      	b.n	10000a60 <loop+0x2f0>
100007e6:	4bb1      	ldr	r3, [pc, #708]	@ (10000aac <loop+0x33c>)
100007e8:	6832      	ldr	r2, [r6, #0]
100007ea:	429a      	cmp	r2, r3
100007ec:	d100      	bne.n	100007f0 <loop+0x80>
100007ee:	e1ad      	b.n	10000b4c <loop+0x3dc>
100007f0:	4baf      	ldr	r3, [pc, #700]	@ (10000ab0 <loop+0x340>)
100007f2:	6832      	ldr	r2, [r6, #0]
100007f4:	429a      	cmp	r2, r3
100007f6:	d100      	bne.n	100007fa <loop+0x8a>
100007f8:	e120      	b.n	10000a3c <loop+0x2cc>
100007fa:	2f00      	cmp	r7, #0
100007fc:	d000      	beq.n	10000800 <loop+0x90>
100007fe:	e1e2      	b.n	10000bc6 <loop+0x456>
10000800:	4bac      	ldr	r3, [pc, #688]	@ (10000ab4 <loop+0x344>)
10000802:	6832      	ldr	r2, [r6, #0]
10000804:	429a      	cmp	r2, r3
10000806:	d100      	bne.n	1000080a <loop+0x9a>
10000808:	e1e3      	b.n	10000bd2 <loop+0x462>
1000080a:	4aab      	ldr	r2, [pc, #684]	@ (10000ab8 <loop+0x348>)
1000080c:	6833      	ldr	r3, [r6, #0]
1000080e:	4293      	cmp	r3, r2
10000810:	d100      	bne.n	10000814 <loop+0xa4>
10000812:	e203      	b.n	10000c1c <loop+0x4ac>
10000814:	4aa9      	ldr	r2, [pc, #676]	@ (10000abc <loop+0x34c>)
10000816:	4293      	cmp	r3, r2
10000818:	d100      	bne.n	1000081c <loop+0xac>
1000081a:	e209      	b.n	10000c30 <loop+0x4c0>
1000081c:	4aa8      	ldr	r2, [pc, #672]	@ (10000ac0 <loop+0x350>)
1000081e:	4293      	cmp	r3, r2
10000820:	d100      	bne.n	10000824 <loop+0xb4>
10000822:	e234      	b.n	10000c8e <loop+0x51e>
10000824:	4ba6      	ldr	r3, [pc, #664]	@ (10000ac0 <loop+0x350>)
10000826:	6832      	ldr	r2, [r6, #0]
10000828:	429a      	cmp	r2, r3
1000082a:	d100      	bne.n	1000082e <loop+0xbe>
1000082c:	e252      	b.n	10000cd4 <loop+0x564>
1000082e:	4ba5      	ldr	r3, [pc, #660]	@ (10000ac4 <loop+0x354>)
10000830:	6832      	ldr	r2, [r6, #0]
10000832:	429a      	cmp	r2, r3
10000834:	d100      	bne.n	10000838 <loop+0xc8>
10000836:	e2d4      	b.n	10000de2 <loop+0x672>
10000838:	4ba3      	ldr	r3, [pc, #652]	@ (10000ac8 <loop+0x358>)
1000083a:	6832      	ldr	r2, [r6, #0]
1000083c:	429a      	cmp	r2, r3
1000083e:	d100      	bne.n	10000842 <loop+0xd2>
10000840:	e255      	b.n	10000cee <loop+0x57e>
10000842:	4ba2      	ldr	r3, [pc, #648]	@ (10000acc <loop+0x35c>)
10000844:	6832      	ldr	r2, [r6, #0]
10000846:	429a      	cmp	r2, r3
10000848:	d101      	bne.n	1000084e <loop+0xde>
1000084a:	f002 fbf6 	bl	1000303a <loop+0x28ca>
1000084e:	0030      	movs	r0, r6
10000850:	499f      	ldr	r1, [pc, #636]	@ (10000ad0 <loop+0x360>)
10000852:	f00a f9b5 	bl	1000abc0 <strcmp>
10000856:	1e04      	subs	r4, r0, #0
10000858:	d101      	bne.n	1000085e <loop+0xee>
1000085a:	f002 fba5 	bl	10002fa8 <loop+0x2838>
1000085e:	2208      	movs	r2, #8
10000860:	0030      	movs	r0, r6
10000862:	499c      	ldr	r1, [pc, #624]	@ (10000ad4 <loop+0x364>)
10000864:	f00a fa1e 	bl	1000aca4 <strncmp>
10000868:	1e04      	subs	r4, r0, #0
1000086a:	d101      	bne.n	10000870 <loop+0x100>
1000086c:	f002 fb1a 	bl	10002ea4 <loop+0x2734>
10000870:	220b      	movs	r2, #11
10000872:	0030      	movs	r0, r6
10000874:	4998      	ldr	r1, [pc, #608]	@ (10000ad8 <loop+0x368>)
10000876:	f00a fa15 	bl	1000aca4 <strncmp>
1000087a:	1e04      	subs	r4, r0, #0
1000087c:	d101      	bne.n	10000882 <loop+0x112>
1000087e:	f001 ff7b 	bl	10002778 <loop+0x2008>
10000882:	220c      	movs	r2, #12
10000884:	0030      	movs	r0, r6
10000886:	4995      	ldr	r1, [pc, #596]	@ (10000adc <loop+0x36c>)
10000888:	f00a fa0c 	bl	1000aca4 <strncmp>
1000088c:	4680      	mov	r8, r0
1000088e:	2800      	cmp	r0, #0
10000890:	d101      	bne.n	10000896 <loop+0x126>
10000892:	f000 fdb9 	bl	10001408 <loop+0xc98>
10000896:	2204      	movs	r2, #4
10000898:	0030      	movs	r0, r6
1000089a:	4991      	ldr	r1, [pc, #580]	@ (10000ae0 <loop+0x370>)
1000089c:	f00a fa02 	bl	1000aca4 <strncmp>
100008a0:	1e04      	subs	r4, r0, #0
100008a2:	d101      	bne.n	100008a8 <loop+0x138>
100008a4:	f000 fce6 	bl	10001274 <loop+0xb04>
100008a8:	2208      	movs	r2, #8
100008aa:	0030      	movs	r0, r6
100008ac:	498d      	ldr	r1, [pc, #564]	@ (10000ae4 <loop+0x374>)
100008ae:	f00a f9f9 	bl	1000aca4 <strncmp>
100008b2:	2800      	cmp	r0, #0
100008b4:	d000      	beq.n	100008b8 <loop+0x148>
100008b6:	e2e9      	b.n	10000e8c <loop+0x71c>
100008b8:	4b8b      	ldr	r3, [pc, #556]	@ (10000ae8 <loop+0x378>)
100008ba:	4e8c      	ldr	r6, [pc, #560]	@ (10000aec <loop+0x37c>)
100008bc:	9302      	str	r3, [sp, #8]
100008be:	ab25      	add	r3, sp, #148	@ 0x94
100008c0:	469b      	mov	fp, r3
100008c2:	ab24      	add	r3, sp, #144	@ 0x90
100008c4:	46b0      	mov	r8, r6
100008c6:	001f      	movs	r7, r3
100008c8:	465e      	mov	r6, fp
100008ca:	003a      	movs	r2, r7
100008cc:	4888      	ldr	r0, [pc, #544]	@ (10000af0 <loop+0x380>)
100008ce:	4989      	ldr	r1, [pc, #548]	@ (10000af4 <loop+0x384>)
100008d0:	f002 fd72 	bl	100033b8 <get_asf>
100008d4:	2303      	movs	r3, #3
100008d6:	003a      	movs	r2, r7
100008d8:	2100      	movs	r1, #0
100008da:	2006      	movs	r0, #6
100008dc:	f002 fdc6 	bl	1000346c <send_channel>
100008e0:	2500      	movs	r5, #0
100008e2:	2280      	movs	r2, #128	@ 0x80
100008e4:	9902      	ldr	r1, [sp, #8]
100008e6:	4c84      	ldr	r4, [pc, #528]	@ (10000af8 <loop+0x388>)
100008e8:	4689      	mov	r9, r1
100008ea:	4b84      	ldr	r3, [pc, #528]	@ (10000afc <loop+0x38c>)
100008ec:	6125      	str	r5, [r4, #16]
100008ee:	0612      	lsls	r2, r2, #24
100008f0:	0008      	movs	r0, r1
100008f2:	9600      	str	r6, [sp, #0]
100008f4:	f002 fd86 	bl	10003404 <get_ftw>
100008f8:	2304      	movs	r3, #4
100008fa:	0032      	movs	r2, r6
100008fc:	2100      	movs	r1, #0
100008fe:	2004      	movs	r0, #4
10000900:	f002 fdb4 	bl	1000346c <send_channel>
10000904:	003a      	movs	r2, r7
10000906:	2000      	movs	r0, #0
10000908:	497d      	ldr	r1, [pc, #500]	@ (10000b00 <loop+0x390>)
1000090a:	6125      	str	r5, [r4, #16]
1000090c:	f002 fd54 	bl	100033b8 <get_asf>
10000910:	2303      	movs	r3, #3
10000912:	003a      	movs	r2, r7
10000914:	2101      	movs	r1, #1
10000916:	2006      	movs	r0, #6
10000918:	f002 fda8 	bl	1000346c <send_channel>
1000091c:	2200      	movs	r2, #0
1000091e:	4b79      	ldr	r3, [pc, #484]	@ (10000b04 <loop+0x394>)
10000920:	6125      	str	r5, [r4, #16]
10000922:	4648      	mov	r0, r9
10000924:	9600      	str	r6, [sp, #0]
10000926:	f002 fd6d 	bl	10003404 <get_ftw>
1000092a:	2304      	movs	r3, #4
1000092c:	0032      	movs	r2, r6
1000092e:	2101      	movs	r1, #1
10000930:	2004      	movs	r0, #4
10000932:	f002 fd9b 	bl	1000346c <send_channel>
10000936:	2001      	movs	r0, #1
10000938:	6125      	str	r5, [r4, #16]
1000093a:	f003 ff85 	bl	10004848 <sleep_ms>
1000093e:	2280      	movs	r2, #128	@ 0x80
10000940:	4b71      	ldr	r3, [pc, #452]	@ (10000b08 <loop+0x398>)
10000942:	0612      	lsls	r2, r2, #24
10000944:	4648      	mov	r0, r9
10000946:	9600      	str	r6, [sp, #0]
10000948:	f002 fd5c 	bl	10003404 <get_ftw>
1000094c:	2304      	movs	r3, #4
1000094e:	0032      	movs	r2, r6
10000950:	2100      	movs	r1, #0
10000952:	2004      	movs	r0, #4
10000954:	f002 fd8a 	bl	1000346c <send_channel>
10000958:	003a      	movs	r2, r7
1000095a:	486c      	ldr	r0, [pc, #432]	@ (10000b0c <loop+0x39c>)
1000095c:	496c      	ldr	r1, [pc, #432]	@ (10000b10 <loop+0x3a0>)
1000095e:	6125      	str	r5, [r4, #16]
10000960:	f002 fd2a 	bl	100033b8 <get_asf>
10000964:	2303      	movs	r3, #3
10000966:	003a      	movs	r2, r7
10000968:	2100      	movs	r1, #0
1000096a:	2006      	movs	r0, #6
1000096c:	f002 fd7e 	bl	1000346c <send_channel>
10000970:	2200      	movs	r2, #0
10000972:	4b68      	ldr	r3, [pc, #416]	@ (10000b14 <loop+0x3a4>)
10000974:	6125      	str	r5, [r4, #16]
10000976:	4648      	mov	r0, r9
10000978:	9600      	str	r6, [sp, #0]
1000097a:	f002 fd43 	bl	10003404 <get_ftw>
1000097e:	2304      	movs	r3, #4
10000980:	0032      	movs	r2, r6
10000982:	2101      	movs	r1, #1
10000984:	2004      	movs	r0, #4
10000986:	f002 fd71 	bl	1000346c <send_channel>
1000098a:	003a      	movs	r2, r7
1000098c:	2000      	movs	r0, #0
1000098e:	495c      	ldr	r1, [pc, #368]	@ (10000b00 <loop+0x390>)
10000990:	6125      	str	r5, [r4, #16]
10000992:	f002 fd11 	bl	100033b8 <get_asf>
10000996:	2303      	movs	r3, #3
10000998:	003a      	movs	r2, r7
1000099a:	2101      	movs	r1, #1
1000099c:	2006      	movs	r0, #6
1000099e:	f002 fd65 	bl	1000346c <send_channel>
100009a2:	2001      	movs	r0, #1
100009a4:	6125      	str	r5, [r4, #16]
100009a6:	f003 ff4f 	bl	10004848 <sleep_ms>
100009aa:	2301      	movs	r3, #1
100009ac:	425b      	negs	r3, r3
100009ae:	469c      	mov	ip, r3
100009b0:	44e0      	add	r8, ip
100009b2:	4643      	mov	r3, r8
100009b4:	2b00      	cmp	r3, #0
100009b6:	d188      	bne.n	100008ca <loop+0x15a>
100009b8:	e008      	b.n	100009cc <loop+0x25c>
100009ba:	4b57      	ldr	r3, [pc, #348]	@ (10000b18 <loop+0x3a8>)
100009bc:	88b2      	ldrh	r2, [r6, #4]
100009be:	429a      	cmp	r2, r3
100009c0:	d000      	beq.n	100009c4 <loop+0x254>
100009c2:	e6fc      	b.n	100007be <loop+0x4e>
100009c4:	0039      	movs	r1, r7
100009c6:	4855      	ldr	r0, [pc, #340]	@ (10000b1c <loop+0x3ac>)
100009c8:	f007 fc5e 	bl	10008288 <__wrap_printf>
100009cc:	b027      	add	sp, #156	@ 0x9c
100009ce:	bcf0      	pop	{r4, r5, r6, r7}
100009d0:	46bb      	mov	fp, r7
100009d2:	46b2      	mov	sl, r6
100009d4:	46a9      	mov	r9, r5
100009d6:	46a0      	mov	r8, r4
100009d8:	bdf0      	pop	{r4, r5, r6, r7, pc}
100009da:	4b51      	ldr	r3, [pc, #324]	@ (10000b20 <loop+0x3b0>)
100009dc:	88b2      	ldrh	r2, [r6, #4]
100009de:	429a      	cmp	r2, r3
100009e0:	d000      	beq.n	100009e4 <loop+0x274>
100009e2:	e6e7      	b.n	100007b4 <loop+0x44>
100009e4:	79b3      	ldrb	r3, [r6, #6]
100009e6:	2b6e      	cmp	r3, #110	@ 0x6e
100009e8:	d000      	beq.n	100009ec <loop+0x27c>
100009ea:	e6e3      	b.n	100007b4 <loop+0x44>
100009ec:	484d      	ldr	r0, [pc, #308]	@ (10000b24 <loop+0x3b4>)
100009ee:	f007 fb59 	bl	100080a4 <__wrap_puts>
100009f2:	e7eb      	b.n	100009cc <loop+0x25c>
100009f4:	4b4c      	ldr	r3, [pc, #304]	@ (10000b28 <loop+0x3b8>)
100009f6:	6872      	ldr	r2, [r6, #4]
100009f8:	429a      	cmp	r2, r3
100009fa:	d000      	beq.n	100009fe <loop+0x28e>
100009fc:	e6e9      	b.n	100007d2 <loop+0x62>
100009fe:	7a33      	ldrb	r3, [r6, #8]
10000a00:	2b66      	cmp	r3, #102	@ 0x66
10000a02:	d000      	beq.n	10000a06 <loop+0x296>
10000a04:	e6e5      	b.n	100007d2 <loop+0x62>
10000a06:	2200      	movs	r2, #0
10000a08:	4b48      	ldr	r3, [pc, #288]	@ (10000b2c <loop+0x3bc>)
10000a0a:	4849      	ldr	r0, [pc, #292]	@ (10000b30 <loop+0x3c0>)
10000a0c:	701a      	strb	r2, [r3, #0]
10000a0e:	f007 fb49 	bl	100080a4 <__wrap_puts>
10000a12:	e7db      	b.n	100009cc <loop+0x25c>
10000a14:	4b47      	ldr	r3, [pc, #284]	@ (10000b34 <loop+0x3c4>)
10000a16:	6872      	ldr	r2, [r6, #4]
10000a18:	429a      	cmp	r2, r3
10000a1a:	d000      	beq.n	10000a1e <loop+0x2ae>
10000a1c:	e6de      	b.n	100007dc <loop+0x6c>
10000a1e:	f7ff fe1d 	bl	1000065c <measure_freqs>
10000a22:	e7d3      	b.n	100009cc <loop+0x25c>
10000a24:	4b44      	ldr	r3, [pc, #272]	@ (10000b38 <loop+0x3c8>)
10000a26:	6872      	ldr	r2, [r6, #4]
10000a28:	429a      	cmp	r2, r3
10000a2a:	d000      	beq.n	10000a2e <loop+0x2be>
10000a2c:	e6cc      	b.n	100007c8 <loop+0x58>
10000a2e:	2201      	movs	r2, #1
10000a30:	4b3e      	ldr	r3, [pc, #248]	@ (10000b2c <loop+0x3bc>)
10000a32:	483f      	ldr	r0, [pc, #252]	@ (10000b30 <loop+0x3c0>)
10000a34:	701a      	strb	r2, [r3, #0]
10000a36:	f007 fb35 	bl	100080a4 <__wrap_puts>
10000a3a:	e7c7      	b.n	100009cc <loop+0x25c>
10000a3c:	7933      	ldrb	r3, [r6, #4]
10000a3e:	2b74      	cmp	r3, #116	@ 0x74
10000a40:	d000      	beq.n	10000a44 <loop+0x2d4>
10000a42:	e6da      	b.n	100007fa <loop+0x8a>
10000a44:	0020      	movs	r0, r4
10000a46:	f00a fa4f 	bl	1000aee8 <__mutex_enter_blocking_veneer>
10000a4a:	682e      	ldr	r6, [r5, #0]
10000a4c:	0020      	movs	r0, r4
10000a4e:	f00a f9db 	bl	1000ae08 <__mutex_exit_veneer>
10000a52:	2e01      	cmp	r6, #1
10000a54:	d100      	bne.n	10000a58 <loop+0x2e8>
10000a56:	e101      	b.n	10000c5c <loop+0x4ec>
10000a58:	4835      	ldr	r0, [pc, #212]	@ (10000b30 <loop+0x3c0>)
10000a5a:	f007 fb23 	bl	100080a4 <__wrap_puts>
10000a5e:	e7b5      	b.n	100009cc <loop+0x25c>
10000a60:	4b36      	ldr	r3, [pc, #216]	@ (10000b3c <loop+0x3cc>)
10000a62:	6872      	ldr	r2, [r6, #4]
10000a64:	429a      	cmp	r2, r3
10000a66:	d000      	beq.n	10000a6a <loop+0x2fa>
10000a68:	e6bd      	b.n	100007e6 <loop+0x76>
10000a6a:	4b35      	ldr	r3, [pc, #212]	@ (10000b40 <loop+0x3d0>)
10000a6c:	8932      	ldrh	r2, [r6, #8]
10000a6e:	429a      	cmp	r2, r3
10000a70:	d000      	beq.n	10000a74 <loop+0x304>
10000a72:	e6b8      	b.n	100007e6 <loop+0x76>
10000a74:	7ab3      	ldrb	r3, [r6, #10]
10000a76:	2b73      	cmp	r3, #115	@ 0x73
10000a78:	d000      	beq.n	10000a7c <loop+0x30c>
10000a7a:	e6b4      	b.n	100007e6 <loop+0x76>
10000a7c:	4b31      	ldr	r3, [pc, #196]	@ (10000b44 <loop+0x3d4>)
10000a7e:	4832      	ldr	r0, [pc, #200]	@ (10000b48 <loop+0x3d8>)
10000a80:	6819      	ldr	r1, [r3, #0]
10000a82:	f007 fc01 	bl	10008288 <__wrap_printf>
10000a86:	e7a1      	b.n	100009cc <loop+0x25c>
10000a88:	2003f293 	.word	0x2003f293
10000a8c:	2003f294 	.word	0x2003f294
10000a90:	2003f3a8 	.word	0x2003f3a8
10000a94:	2003f3a4 	.word	0x2003f3a4
10000a98:	73726576 	.word	0x73726576
10000a9c:	74617473 	.word	0x74617473
10000aa0:	75626564 	.word	0x75626564
10000aa4:	66746567 	.word	0x66746567
10000aa8:	746d756e 	.word	0x746d756e
10000aac:	65736572 	.word	0x65736572
10000ab0:	726f6261 	.word	0x726f6261
10000ab4:	64616572 	.word	0x64616572
10000ab8:	64616f6c 	.word	0x64616f6c
10000abc:	65766173 	.word	0x65766173
10000ac0:	66746573 	.word	0x66746573
10000ac4:	61746573 	.word	0x61746573
10000ac8:	63656863 	.word	0x63656863
10000acc:	74737543 	.word	0x74737543
10000ad0:	1000b140 	.word	0x1000b140
10000ad4:	1000b14c 	.word	0x1000b14c
10000ad8:	1000b158 	.word	0x1000b158
10000adc:	1000b174 	.word	0x1000b174
10000ae0:	1000b19c 	.word	0x1000b19c
10000ae4:	1000b1a4 	.word	0x1000b1a4
10000ae8:	20001528 	.word	0x20001528
10000aec:	00002711 	.word	0x00002711
10000af0:	83126e98 	.word	0x83126e98
10000af4:	3fe5cac0 	.word	0x3fe5cac0
10000af8:	50200000 	.word	0x50200000
10000afc:	41946281 	.word	0x41946281
10000b00:	3ff00000 	.word	0x3ff00000
10000b04:	41948106 	.word	0x41948106
10000b08:	419b0f7d 	.word	0x419b0f7d
10000b0c:	c28f5c29 	.word	0xc28f5c29
10000b10:	3fe828f5 	.word	0x3fe828f5
10000b14:	419b2e02 	.word	0x419b2e02
10000b18:	00007375 	.word	0x00007375
10000b1c:	1000b00c 	.word	0x1000b00c
10000b20:	00006f69 	.word	0x00006f69
10000b24:	1000affc 	.word	0x1000affc
10000b28:	666f2067 	.word	0x666f2067
10000b2c:	20000ff8 	.word	0x20000ff8
10000b30:	1000b01c 	.word	0x1000b01c
10000b34:	73716572 	.word	0x73716572
10000b38:	6e6f2067 	.word	0x6e6f2067
10000b3c:	67676972 	.word	0x67676972
10000b40:	00007265 	.word	0x00007265
10000b44:	2003f3cc 	.word	0x2003f3cc
10000b48:	1000b044 	.word	0x1000b044
10000b4c:	7933      	ldrb	r3, [r6, #4]
10000b4e:	2b74      	cmp	r3, #116	@ 0x74
10000b50:	d000      	beq.n	10000b54 <loop+0x3e4>
10000b52:	e64d      	b.n	100007f0 <loop+0x80>
10000b54:	0020      	movs	r0, r4
10000b56:	f00a f9c7 	bl	1000aee8 <__mutex_enter_blocking_veneer>
10000b5a:	682e      	ldr	r6, [r5, #0]
10000b5c:	0020      	movs	r0, r4
10000b5e:	f00a f953 	bl	1000ae08 <__mutex_exit_veneer>
10000b62:	2e01      	cmp	r6, #1
10000b64:	d041      	beq.n	10000bea <loop+0x47a>
10000b66:	26d0      	movs	r6, #208	@ 0xd0
10000b68:	2780      	movs	r7, #128	@ 0x80
10000b6a:	0636      	lsls	r6, r6, #24
10000b6c:	00bf      	lsls	r7, r7, #2
10000b6e:	6177      	str	r7, [r6, #20]
10000b70:	2001      	movs	r0, #1
10000b72:	f003 fe69 	bl	10004848 <sleep_ms>
10000b76:	61b7      	str	r7, [r6, #24]
10000b78:	2780      	movs	r7, #128	@ 0x80
10000b7a:	2001      	movs	r0, #1
10000b7c:	00ff      	lsls	r7, r7, #3
10000b7e:	f003 fe63 	bl	10004848 <sleep_ms>
10000b82:	6177      	str	r7, [r6, #20]
10000b84:	2001      	movs	r0, #1
10000b86:	f003 fe5f 	bl	10004848 <sleep_ms>
10000b8a:	61b7      	str	r7, [r6, #24]
10000b8c:	2001      	movs	r0, #1
10000b8e:	f003 fe5b 	bl	10004848 <sleep_ms>
10000b92:	2301      	movs	r3, #1
10000b94:	220e      	movs	r2, #14
10000b96:	2600      	movs	r6, #0
10000b98:	48a2      	ldr	r0, [pc, #648]	@ (10000e24 <loop+0x6b4>)
10000b9a:	60c3      	str	r3, [r0, #12]
10000b9c:	6103      	str	r3, [r0, #16]
10000b9e:	4ba2      	ldr	r3, [pc, #648]	@ (10000e28 <loop+0x6b8>)
10000ba0:	6881      	ldr	r1, [r0, #8]
10000ba2:	601a      	str	r2, [r3, #0]
10000ba4:	f002 fdbe 	bl	10003724 <set_pll_mult>
10000ba8:	f002 fe18 	bl	100037dc <clear>
10000bac:	4b9f      	ldr	r3, [pc, #636]	@ (10000e2c <loop+0x6bc>)
10000bae:	0020      	movs	r0, r4
10000bb0:	611e      	str	r6, [r3, #16]
10000bb2:	f00a f999 	bl	1000aee8 <__mutex_enter_blocking_veneer>
10000bb6:	0020      	movs	r0, r4
10000bb8:	602e      	str	r6, [r5, #0]
10000bba:	f00a f925 	bl	1000ae08 <__mutex_exit_veneer>
10000bbe:	489c      	ldr	r0, [pc, #624]	@ (10000e30 <loop+0x6c0>)
10000bc0:	f007 fa70 	bl	100080a4 <__wrap_puts>
10000bc4:	e702      	b.n	100009cc <loop+0x25c>
10000bc6:	2200      	movs	r2, #0
10000bc8:	0031      	movs	r1, r6
10000bca:	489a      	ldr	r0, [pc, #616]	@ (10000e34 <loop+0x6c4>)
10000bcc:	f007 fb5c 	bl	10008288 <__wrap_printf>
10000bd0:	e6fc      	b.n	100009cc <loop+0x25c>
10000bd2:	4b99      	ldr	r3, [pc, #612]	@ (10000e38 <loop+0x6c8>)
10000bd4:	6872      	ldr	r2, [r6, #4]
10000bd6:	429a      	cmp	r2, r3
10000bd8:	d000      	beq.n	10000bdc <loop+0x46c>
10000bda:	e616      	b.n	1000080a <loop+0x9a>
10000bdc:	f002 fdd2 	bl	10003784 <single_step_mode>
10000be0:	4b92      	ldr	r3, [pc, #584]	@ (10000e2c <loop+0x6bc>)
10000be2:	611f      	str	r7, [r3, #16]
10000be4:	f002 fc66 	bl	100034b4 <read_all>
10000be8:	e736      	b.n	10000a58 <loop+0x2e8>
10000bea:	0020      	movs	r0, r4
10000bec:	f00a f97c 	bl	1000aee8 <__mutex_enter_blocking_veneer>
10000bf0:	26d0      	movs	r6, #208	@ 0xd0
10000bf2:	2302      	movs	r3, #2
10000bf4:	2780      	movs	r7, #128	@ 0x80
10000bf6:	0020      	movs	r0, r4
10000bf8:	0636      	lsls	r6, r6, #24
10000bfa:	007f      	lsls	r7, r7, #1
10000bfc:	602b      	str	r3, [r5, #0]
10000bfe:	f00a f903 	bl	1000ae08 <__mutex_exit_veneer>
10000c02:	2008      	movs	r0, #8
10000c04:	f002 ff60 	bl	10003ac8 <gpio_init>
10000c08:	6277      	str	r7, [r6, #36]	@ 0x24
10000c0a:	2001      	movs	r0, #1
10000c0c:	61b7      	str	r7, [r6, #24]
10000c0e:	6177      	str	r7, [r6, #20]
10000c10:	f003 fe1a 	bl	10004848 <sleep_ms>
10000c14:	61b7      	str	r7, [r6, #24]
10000c16:	f7ff fc81 	bl	1000051c <init_pio>
10000c1a:	e7a4      	b.n	10000b66 <loop+0x3f6>
10000c1c:	22f4      	movs	r2, #244	@ 0xf4
10000c1e:	4987      	ldr	r1, [pc, #540]	@ (10000e3c <loop+0x6cc>)
10000c20:	0292      	lsls	r2, r2, #10
10000c22:	4887      	ldr	r0, [pc, #540]	@ (10000e40 <loop+0x6d0>)
10000c24:	f007 f970 	bl	10007f08 <__wrap___aeabi_memcpy>
10000c28:	4881      	ldr	r0, [pc, #516]	@ (10000e30 <loop+0x6c0>)
10000c2a:	f007 fa3b 	bl	100080a4 <__wrap_puts>
10000c2e:	e6cd      	b.n	100009cc <loop+0x25c>
10000c30:	f3ef 8410 	mrs	r4, PRIMASK
10000c34:	b672      	cpsid	i
10000c36:	21f4      	movs	r1, #244	@ 0xf4
10000c38:	2080      	movs	r0, #128	@ 0x80
10000c3a:	0289      	lsls	r1, r1, #10
10000c3c:	02c0      	lsls	r0, r0, #11
10000c3e:	f00a f91b 	bl	1000ae78 <__flash_range_erase_veneer>
10000c42:	22f4      	movs	r2, #244	@ 0xf4
10000c44:	2080      	movs	r0, #128	@ 0x80
10000c46:	497e      	ldr	r1, [pc, #504]	@ (10000e40 <loop+0x6d0>)
10000c48:	0292      	lsls	r2, r2, #10
10000c4a:	02c0      	lsls	r0, r0, #11
10000c4c:	f00a f8fc 	bl	1000ae48 <__flash_range_program_veneer>
10000c50:	f384 8810 	msr	PRIMASK, r4
10000c54:	4876      	ldr	r0, [pc, #472]	@ (10000e30 <loop+0x6c0>)
10000c56:	f007 fa25 	bl	100080a4 <__wrap_puts>
10000c5a:	e6b7      	b.n	100009cc <loop+0x25c>
10000c5c:	0020      	movs	r0, r4
10000c5e:	f00a f943 	bl	1000aee8 <__mutex_enter_blocking_veneer>
10000c62:	2302      	movs	r3, #2
10000c64:	0020      	movs	r0, r4
10000c66:	602b      	str	r3, [r5, #0]
10000c68:	24d0      	movs	r4, #208	@ 0xd0
10000c6a:	2580      	movs	r5, #128	@ 0x80
10000c6c:	0624      	lsls	r4, r4, #24
10000c6e:	006d      	lsls	r5, r5, #1
10000c70:	f00a f8ca 	bl	1000ae08 <__mutex_exit_veneer>
10000c74:	2008      	movs	r0, #8
10000c76:	f002 ff27 	bl	10003ac8 <gpio_init>
10000c7a:	6265      	str	r5, [r4, #36]	@ 0x24
10000c7c:	2001      	movs	r0, #1
10000c7e:	61a5      	str	r5, [r4, #24]
10000c80:	6165      	str	r5, [r4, #20]
10000c82:	f003 fde1 	bl	10004848 <sleep_ms>
10000c86:	61a5      	str	r5, [r4, #24]
10000c88:	f7ff fc48 	bl	1000051c <init_pio>
10000c8c:	e6e4      	b.n	10000a58 <loop+0x2e8>
10000c8e:	4b6d      	ldr	r3, [pc, #436]	@ (10000e44 <loop+0x6d4>)
10000c90:	6872      	ldr	r2, [r6, #4]
10000c92:	429a      	cmp	r2, r3
10000c94:	d000      	beq.n	10000c98 <loop+0x528>
10000c96:	e5c5      	b.n	10000824 <loop+0xb4>
10000c98:	2280      	movs	r2, #128	@ 0x80
10000c9a:	2600      	movs	r6, #0
10000c9c:	af25      	add	r7, sp, #148	@ 0x94
10000c9e:	4861      	ldr	r0, [pc, #388]	@ (10000e24 <loop+0x6b4>)
10000ca0:	4b69      	ldr	r3, [pc, #420]	@ (10000e48 <loop+0x6d8>)
10000ca2:	9700      	str	r7, [sp, #0]
10000ca4:	0612      	lsls	r2, r2, #24
10000ca6:	f002 fbad 	bl	10003404 <get_ftw>
10000caa:	2304      	movs	r3, #4
10000cac:	0004      	movs	r4, r0
10000cae:	000d      	movs	r5, r1
10000cb0:	0018      	movs	r0, r3
10000cb2:	003a      	movs	r2, r7
10000cb4:	0031      	movs	r1, r6
10000cb6:	f002 fbd9 	bl	1000346c <send_channel>
10000cba:	4b5c      	ldr	r3, [pc, #368]	@ (10000e2c <loop+0x6bc>)
10000cbc:	611e      	str	r6, [r3, #16]
10000cbe:	4b63      	ldr	r3, [pc, #396]	@ (10000e4c <loop+0x6dc>)
10000cc0:	781b      	ldrb	r3, [r3, #0]
10000cc2:	42b3      	cmp	r3, r6
10000cc4:	d100      	bne.n	10000cc8 <loop+0x558>
10000cc6:	e6c7      	b.n	10000a58 <loop+0x2e8>
10000cc8:	0022      	movs	r2, r4
10000cca:	002b      	movs	r3, r5
10000ccc:	4860      	ldr	r0, [pc, #384]	@ (10000e50 <loop+0x6e0>)
10000cce:	f007 fadb 	bl	10008288 <__wrap_printf>
10000cd2:	e6c1      	b.n	10000a58 <loop+0x2e8>
10000cd4:	4b5f      	ldr	r3, [pc, #380]	@ (10000e54 <loop+0x6e4>)
10000cd6:	6872      	ldr	r2, [r6, #4]
10000cd8:	429a      	cmp	r2, r3
10000cda:	d000      	beq.n	10000cde <loop+0x56e>
10000cdc:	e5a7      	b.n	1000082e <loop+0xbe>
10000cde:	2280      	movs	r2, #128	@ 0x80
10000ce0:	af25      	add	r7, sp, #148	@ 0x94
10000ce2:	2600      	movs	r6, #0
10000ce4:	484f      	ldr	r0, [pc, #316]	@ (10000e24 <loop+0x6b4>)
10000ce6:	4b5c      	ldr	r3, [pc, #368]	@ (10000e58 <loop+0x6e8>)
10000ce8:	9700      	str	r7, [sp, #0]
10000cea:	0612      	lsls	r2, r2, #24
10000cec:	e7db      	b.n	10000ca6 <loop+0x536>
10000cee:	4b5b      	ldr	r3, [pc, #364]	@ (10000e5c <loop+0x6ec>)
10000cf0:	88b2      	ldrh	r2, [r6, #4]
10000cf2:	429a      	cmp	r2, r3
10000cf4:	d000      	beq.n	10000cf8 <loop+0x588>
10000cf6:	e5a4      	b.n	10000842 <loop+0xd2>
10000cf8:	79b3      	ldrb	r3, [r6, #6]
10000cfa:	2b00      	cmp	r3, #0
10000cfc:	d000      	beq.n	10000d00 <loop+0x590>
10000cfe:	e5a0      	b.n	10000842 <loop+0xd2>
10000d00:	4b57      	ldr	r3, [pc, #348]	@ (10000e60 <loop+0x6f0>)
10000d02:	2480      	movs	r4, #128	@ 0x80
10000d04:	9304      	str	r3, [sp, #16]
10000d06:	4b47      	ldr	r3, [pc, #284]	@ (10000e24 <loop+0x6b4>)
10000d08:	2680      	movs	r6, #128	@ 0x80
10000d0a:	9302      	str	r3, [sp, #8]
10000d0c:	ab25      	add	r3, sp, #148	@ 0x94
10000d0e:	469b      	mov	fp, r3
10000d10:	ab24      	add	r3, sp, #144	@ 0x90
10000d12:	469a      	mov	sl, r3
10000d14:	465b      	mov	r3, fp
10000d16:	46d3      	mov	fp, sl
10000d18:	469a      	mov	sl, r3
10000d1a:	4d52      	ldr	r5, [pc, #328]	@ (10000e64 <loop+0x6f4>)
10000d1c:	4f52      	ldr	r7, [pc, #328]	@ (10000e68 <loop+0x6f8>)
10000d1e:	0624      	lsls	r4, r4, #24
10000d20:	0636      	lsls	r6, r6, #24
10000d22:	aa22      	add	r2, sp, #136	@ 0x88
10000d24:	4851      	ldr	r0, [pc, #324]	@ (10000e6c <loop+0x6fc>)
10000d26:	4952      	ldr	r1, [pc, #328]	@ (10000e70 <loop+0x700>)
10000d28:	f002 fb46 	bl	100033b8 <get_asf>
10000d2c:	2303      	movs	r3, #3
10000d2e:	2100      	movs	r1, #0
10000d30:	2006      	movs	r0, #6
10000d32:	aa22      	add	r2, sp, #136	@ 0x88
10000d34:	f002 fb9a 	bl	1000346c <send_channel>
10000d38:	4b3c      	ldr	r3, [pc, #240]	@ (10000e2c <loop+0x6bc>)
10000d3a:	9802      	ldr	r0, [sp, #8]
10000d3c:	4698      	mov	r8, r3
10000d3e:	2300      	movs	r3, #0
10000d40:	4699      	mov	r9, r3
10000d42:	4643      	mov	r3, r8
10000d44:	464a      	mov	r2, r9
10000d46:	611a      	str	r2, [r3, #16]
10000d48:	465b      	mov	r3, fp
10000d4a:	0032      	movs	r2, r6
10000d4c:	9300      	str	r3, [sp, #0]
10000d4e:	003b      	movs	r3, r7
10000d50:	f002 fb58 	bl	10003404 <get_ftw>
10000d54:	2304      	movs	r3, #4
10000d56:	465a      	mov	r2, fp
10000d58:	0006      	movs	r6, r0
10000d5a:	000f      	movs	r7, r1
10000d5c:	2004      	movs	r0, #4
10000d5e:	2100      	movs	r1, #0
10000d60:	f002 fb84 	bl	1000346c <send_channel>
10000d64:	4643      	mov	r3, r8
10000d66:	464a      	mov	r2, r9
10000d68:	20fa      	movs	r0, #250	@ 0xfa
10000d6a:	611a      	str	r2, [r3, #16]
10000d6c:	0080      	lsls	r0, r0, #2
10000d6e:	f003 fd6b 	bl	10004848 <sleep_ms>
10000d72:	4653      	mov	r3, sl
10000d74:	0022      	movs	r2, r4
10000d76:	9300      	str	r3, [sp, #0]
10000d78:	9802      	ldr	r0, [sp, #8]
10000d7a:	002b      	movs	r3, r5
10000d7c:	f002 fb42 	bl	10003404 <get_ftw>
10000d80:	2304      	movs	r3, #4
10000d82:	4652      	mov	r2, sl
10000d84:	0004      	movs	r4, r0
10000d86:	000d      	movs	r5, r1
10000d88:	2004      	movs	r0, #4
10000d8a:	2100      	movs	r1, #0
10000d8c:	f002 fb6e 	bl	1000346c <send_channel>
10000d90:	4643      	mov	r3, r8
10000d92:	464a      	mov	r2, r9
10000d94:	4837      	ldr	r0, [pc, #220]	@ (10000e74 <loop+0x704>)
10000d96:	611a      	str	r2, [r3, #16]
10000d98:	4937      	ldr	r1, [pc, #220]	@ (10000e78 <loop+0x708>)
10000d9a:	aa23      	add	r2, sp, #140	@ 0x8c
10000d9c:	f002 fb0c 	bl	100033b8 <get_asf>
10000da0:	2303      	movs	r3, #3
10000da2:	2100      	movs	r1, #0
10000da4:	2006      	movs	r0, #6
10000da6:	aa23      	add	r2, sp, #140	@ 0x8c
10000da8:	f002 fb60 	bl	1000346c <send_channel>
10000dac:	4643      	mov	r3, r8
10000dae:	464a      	mov	r2, r9
10000db0:	20fa      	movs	r0, #250	@ 0xfa
10000db2:	611a      	str	r2, [r3, #16]
10000db4:	00c0      	lsls	r0, r0, #3
10000db6:	f003 fd47 	bl	10004848 <sleep_ms>
10000dba:	9b04      	ldr	r3, [sp, #16]
10000dbc:	3b01      	subs	r3, #1
10000dbe:	9304      	str	r3, [sp, #16]
10000dc0:	2b00      	cmp	r3, #0
10000dc2:	d1ae      	bne.n	10000d22 <loop+0x5b2>
10000dc4:	aa23      	add	r2, sp, #140	@ 0x8c
10000dc6:	2000      	movs	r0, #0
10000dc8:	2100      	movs	r1, #0
10000dca:	f002 faf5 	bl	100033b8 <get_asf>
10000dce:	2303      	movs	r3, #3
10000dd0:	aa23      	add	r2, sp, #140	@ 0x8c
10000dd2:	2100      	movs	r1, #0
10000dd4:	2006      	movs	r0, #6
10000dd6:	f002 fb49 	bl	1000346c <send_channel>
10000dda:	4643      	mov	r3, r8
10000ddc:	9a04      	ldr	r2, [sp, #16]
10000dde:	611a      	str	r2, [r3, #16]
10000de0:	e5f4      	b.n	100009cc <loop+0x25c>
10000de2:	4b26      	ldr	r3, [pc, #152]	@ (10000e7c <loop+0x70c>)
10000de4:	88b2      	ldrh	r2, [r6, #4]
10000de6:	429a      	cmp	r2, r3
10000de8:	d000      	beq.n	10000dec <loop+0x67c>
10000dea:	e525      	b.n	10000838 <loop+0xc8>
10000dec:	aa25      	add	r2, sp, #148	@ 0x94
10000dee:	4824      	ldr	r0, [pc, #144]	@ (10000e80 <loop+0x710>)
10000df0:	4924      	ldr	r1, [pc, #144]	@ (10000e84 <loop+0x714>)
10000df2:	f002 fae1 	bl	100033b8 <get_asf>
10000df6:	2600      	movs	r6, #0
10000df8:	2303      	movs	r3, #3
10000dfa:	0004      	movs	r4, r0
10000dfc:	000d      	movs	r5, r1
10000dfe:	2006      	movs	r0, #6
10000e00:	0031      	movs	r1, r6
10000e02:	aa25      	add	r2, sp, #148	@ 0x94
10000e04:	f002 fb32 	bl	1000346c <send_channel>
10000e08:	4b08      	ldr	r3, [pc, #32]	@ (10000e2c <loop+0x6bc>)
10000e0a:	611e      	str	r6, [r3, #16]
10000e0c:	4b0f      	ldr	r3, [pc, #60]	@ (10000e4c <loop+0x6dc>)
10000e0e:	781b      	ldrb	r3, [r3, #0]
10000e10:	42b3      	cmp	r3, r6
10000e12:	d100      	bne.n	10000e16 <loop+0x6a6>
10000e14:	e620      	b.n	10000a58 <loop+0x2e8>
10000e16:	0022      	movs	r2, r4
10000e18:	002b      	movs	r3, r5
10000e1a:	481b      	ldr	r0, [pc, #108]	@ (10000e88 <loop+0x718>)
10000e1c:	f007 fa34 	bl	10008288 <__wrap_printf>
10000e20:	e61a      	b.n	10000a58 <loop+0x2e8>
10000e22:	46c0      	nop			@ (mov r8, r8)
10000e24:	20001528 	.word	0x20001528
10000e28:	2000188c 	.word	0x2000188c
10000e2c:	50200000 	.word	0x50200000
10000e30:	1000b01c 	.word	0x1000b01c
10000e34:	1000b058 	.word	0x1000b058
10000e38:	73676572 	.word	0x73676572
10000e3c:	10040000 	.word	0x10040000
10000e40:	20002270 	.word	0x20002270
10000e44:	31716572 	.word	0x31716572
10000e48:	41946281 	.word	0x41946281
10000e4c:	20000ff8 	.word	0x20000ff8
10000e50:	1000b100 	.word	0x1000b100
10000e54:	32716572 	.word	0x32716572
10000e58:	419cbabc 	.word	0x419cbabc
10000e5c:	0000766b 	.word	0x0000766b
10000e60:	00007530 	.word	0x00007530
10000e64:	4197b8ff 	.word	0x4197b8ff
10000e68:	41960dc0 	.word	0x41960dc0
10000e6c:	1eb851ec 	.word	0x1eb851ec
10000e70:	3fe5eb85 	.word	0x3fe5eb85
10000e74:	d4fdf3b6 	.word	0xd4fdf3b6
10000e78:	3fe6e978 	.word	0x3fe6e978
10000e7c:	0000706d 	.word	0x0000706d
10000e80:	83126e98 	.word	0x83126e98
10000e84:	3fe5cac0 	.word	0x3fe5cac0
10000e88:	1000b124 	.word	0x1000b124
10000e8c:	2208      	movs	r2, #8
10000e8e:	0030      	movs	r0, r6
10000e90:	49da      	ldr	r1, [pc, #872]	@ (100011fc <loop+0xa8c>)
10000e92:	f009 ff07 	bl	1000aca4 <strncmp>
10000e96:	1e04      	subs	r4, r0, #0
10000e98:	d101      	bne.n	10000e9e <loop+0x72e>
10000e9a:	f001 faa5 	bl	100023e8 <loop+0x1c78>
10000e9e:	2208      	movs	r2, #8
10000ea0:	0030      	movs	r0, r6
10000ea2:	49d7      	ldr	r1, [pc, #860]	@ (10001200 <loop+0xa90>)
10000ea4:	f009 fefe 	bl	1000aca4 <strncmp>
10000ea8:	1e04      	subs	r4, r0, #0
10000eaa:	d101      	bne.n	10000eb0 <loop+0x740>
10000eac:	f001 f952 	bl	10002154 <loop+0x19e4>
10000eb0:	2208      	movs	r2, #8
10000eb2:	0030      	movs	r0, r6
10000eb4:	49d3      	ldr	r1, [pc, #844]	@ (10001204 <loop+0xa94>)
10000eb6:	f009 fef5 	bl	1000aca4 <strncmp>
10000eba:	1e05      	subs	r5, r0, #0
10000ebc:	d101      	bne.n	10000ec2 <loop+0x752>
10000ebe:	f000 ff76 	bl	10001dae <loop+0x163e>
10000ec2:	2208      	movs	r2, #8
10000ec4:	0030      	movs	r0, r6
10000ec6:	49d0      	ldr	r1, [pc, #832]	@ (10001208 <loop+0xa98>)
10000ec8:	f009 feec 	bl	1000aca4 <strncmp>
10000ecc:	1e04      	subs	r4, r0, #0
10000ece:	d101      	bne.n	10000ed4 <loop+0x764>
10000ed0:	f000 fcf8 	bl	100018c4 <loop+0x1154>
10000ed4:	2208      	movs	r2, #8
10000ed6:	0030      	movs	r0, r6
10000ed8:	49cc      	ldr	r1, [pc, #816]	@ (1000120c <loop+0xa9c>)
10000eda:	f009 fee3 	bl	1000aca4 <strncmp>
10000ede:	1e04      	subs	r4, r0, #0
10000ee0:	d100      	bne.n	10000ee4 <loop+0x774>
10000ee2:	e30d      	b.n	10001500 <loop+0xd90>
10000ee4:	2208      	movs	r2, #8
10000ee6:	0030      	movs	r0, r6
10000ee8:	49c9      	ldr	r1, [pc, #804]	@ (10001210 <loop+0xaa0>)
10000eea:	f009 fedb 	bl	1000aca4 <strncmp>
10000eee:	1e04      	subs	r4, r0, #0
10000ef0:	d000      	beq.n	10000ef4 <loop+0x784>
10000ef2:	e56b      	b.n	100009cc <loop+0x25c>
10000ef4:	ab24      	add	r3, sp, #144	@ 0x90
10000ef6:	469a      	mov	sl, r3
10000ef8:	001a      	movs	r2, r3
10000efa:	2000      	movs	r0, #0
10000efc:	49c5      	ldr	r1, [pc, #788]	@ (10001214 <loop+0xaa4>)
10000efe:	f002 fa5b 	bl	100033b8 <get_asf>
10000f02:	2303      	movs	r3, #3
10000f04:	4652      	mov	r2, sl
10000f06:	2101      	movs	r1, #1
10000f08:	2006      	movs	r0, #6
10000f0a:	f002 faaf 	bl	1000346c <send_channel>
10000f0e:	4bc2      	ldr	r3, [pc, #776]	@ (10001218 <loop+0xaa8>)
10000f10:	2504      	movs	r5, #4
10000f12:	611c      	str	r4, [r3, #16]
10000f14:	4bc1      	ldr	r3, [pc, #772]	@ (1000121c <loop+0xaac>)
10000f16:	2701      	movs	r7, #1
10000f18:	9304      	str	r3, [sp, #16]
10000f1a:	4bc1      	ldr	r3, [pc, #772]	@ (10001220 <loop+0xab0>)
10000f1c:	9302      	str	r3, [sp, #8]
10000f1e:	ab25      	add	r3, sp, #148	@ 0x94
10000f20:	469b      	mov	fp, r3
10000f22:	2303      	movs	r3, #3
10000f24:	4698      	mov	r8, r3
10000f26:	18db      	adds	r3, r3, r3
10000f28:	4699      	mov	r9, r3
10000f2a:	465e      	mov	r6, fp
10000f2c:	2200      	movs	r2, #0
10000f2e:	4bbd      	ldr	r3, [pc, #756]	@ (10001224 <loop+0xab4>)
10000f30:	9802      	ldr	r0, [sp, #8]
10000f32:	9600      	str	r6, [sp, #0]
10000f34:	f002 fa66 	bl	10003404 <get_ftw>
10000f38:	002b      	movs	r3, r5
10000f3a:	0032      	movs	r2, r6
10000f3c:	0039      	movs	r1, r7
10000f3e:	0028      	movs	r0, r5
10000f40:	2400      	movs	r4, #0
10000f42:	f002 fa93 	bl	1000346c <send_channel>
10000f46:	4bb4      	ldr	r3, [pc, #720]	@ (10001218 <loop+0xaa8>)
10000f48:	4652      	mov	r2, sl
10000f4a:	469b      	mov	fp, r3
10000f4c:	611c      	str	r4, [r3, #16]
10000f4e:	48b6      	ldr	r0, [pc, #728]	@ (10001228 <loop+0xab8>)
10000f50:	49b6      	ldr	r1, [pc, #728]	@ (1000122c <loop+0xabc>)
10000f52:	f002 fa31 	bl	100033b8 <get_asf>
10000f56:	4643      	mov	r3, r8
10000f58:	4652      	mov	r2, sl
10000f5a:	0021      	movs	r1, r4
10000f5c:	4648      	mov	r0, r9
10000f5e:	f002 fa85 	bl	1000346c <send_channel>
10000f62:	465b      	mov	r3, fp
10000f64:	2280      	movs	r2, #128	@ 0x80
10000f66:	611c      	str	r4, [r3, #16]
10000f68:	0612      	lsls	r2, r2, #24
10000f6a:	4bb1      	ldr	r3, [pc, #708]	@ (10001230 <loop+0xac0>)
10000f6c:	9802      	ldr	r0, [sp, #8]
10000f6e:	9600      	str	r6, [sp, #0]
10000f70:	f002 fa48 	bl	10003404 <get_ftw>
10000f74:	0032      	movs	r2, r6
10000f76:	0021      	movs	r1, r4
10000f78:	002b      	movs	r3, r5
10000f7a:	0028      	movs	r0, r5
10000f7c:	f002 fa76 	bl	1000346c <send_channel>
10000f80:	465b      	mov	r3, fp
10000f82:	0038      	movs	r0, r7
10000f84:	611c      	str	r4, [r3, #16]
10000f86:	f003 fc5f 	bl	10004848 <sleep_ms>
10000f8a:	4652      	mov	r2, sl
10000f8c:	48a9      	ldr	r0, [pc, #676]	@ (10001234 <loop+0xac4>)
10000f8e:	49aa      	ldr	r1, [pc, #680]	@ (10001238 <loop+0xac8>)
10000f90:	f002 fa12 	bl	100033b8 <get_asf>
10000f94:	4643      	mov	r3, r8
10000f96:	4652      	mov	r2, sl
10000f98:	0021      	movs	r1, r4
10000f9a:	4648      	mov	r0, r9
10000f9c:	f002 fa66 	bl	1000346c <send_channel>
10000fa0:	465b      	mov	r3, fp
10000fa2:	2280      	movs	r2, #128	@ 0x80
10000fa4:	611c      	str	r4, [r3, #16]
10000fa6:	0612      	lsls	r2, r2, #24
10000fa8:	4ba4      	ldr	r3, [pc, #656]	@ (1000123c <loop+0xacc>)
10000faa:	9802      	ldr	r0, [sp, #8]
10000fac:	9600      	str	r6, [sp, #0]
10000fae:	f002 fa29 	bl	10003404 <get_ftw>
10000fb2:	0032      	movs	r2, r6
10000fb4:	0021      	movs	r1, r4
10000fb6:	002b      	movs	r3, r5
10000fb8:	0028      	movs	r0, r5
10000fba:	f002 fa57 	bl	1000346c <send_channel>
10000fbe:	465b      	mov	r3, fp
10000fc0:	0038      	movs	r0, r7
10000fc2:	611c      	str	r4, [r3, #16]
10000fc4:	f003 fc40 	bl	10004848 <sleep_ms>
10000fc8:	2200      	movs	r2, #0
10000fca:	4b9d      	ldr	r3, [pc, #628]	@ (10001240 <loop+0xad0>)
10000fcc:	9802      	ldr	r0, [sp, #8]
10000fce:	9600      	str	r6, [sp, #0]
10000fd0:	f002 fa18 	bl	10003404 <get_ftw>
10000fd4:	002b      	movs	r3, r5
10000fd6:	0032      	movs	r2, r6
10000fd8:	0039      	movs	r1, r7
10000fda:	0028      	movs	r0, r5
10000fdc:	f002 fa46 	bl	1000346c <send_channel>
10000fe0:	465b      	mov	r3, fp
10000fe2:	4652      	mov	r2, sl
10000fe4:	611c      	str	r4, [r3, #16]
10000fe6:	4897      	ldr	r0, [pc, #604]	@ (10001244 <loop+0xad4>)
10000fe8:	4997      	ldr	r1, [pc, #604]	@ (10001248 <loop+0xad8>)
10000fea:	f002 f9e5 	bl	100033b8 <get_asf>
10000fee:	4643      	mov	r3, r8
10000ff0:	4652      	mov	r2, sl
10000ff2:	0021      	movs	r1, r4
10000ff4:	4648      	mov	r0, r9
10000ff6:	f002 fa39 	bl	1000346c <send_channel>
10000ffa:	465b      	mov	r3, fp
10000ffc:	2280      	movs	r2, #128	@ 0x80
10000ffe:	611c      	str	r4, [r3, #16]
10001000:	0612      	lsls	r2, r2, #24
10001002:	4b92      	ldr	r3, [pc, #584]	@ (1000124c <loop+0xadc>)
10001004:	9802      	ldr	r0, [sp, #8]
10001006:	9600      	str	r6, [sp, #0]
10001008:	f002 f9fc 	bl	10003404 <get_ftw>
1000100c:	0032      	movs	r2, r6
1000100e:	0021      	movs	r1, r4
10001010:	002b      	movs	r3, r5
10001012:	0028      	movs	r0, r5
10001014:	f002 fa2a 	bl	1000346c <send_channel>
10001018:	465b      	mov	r3, fp
1000101a:	0038      	movs	r0, r7
1000101c:	611c      	str	r4, [r3, #16]
1000101e:	f003 fc13 	bl	10004848 <sleep_ms>
10001022:	4652      	mov	r2, sl
10001024:	488a      	ldr	r0, [pc, #552]	@ (10001250 <loop+0xae0>)
10001026:	498b      	ldr	r1, [pc, #556]	@ (10001254 <loop+0xae4>)
10001028:	f002 f9c6 	bl	100033b8 <get_asf>
1000102c:	4643      	mov	r3, r8
1000102e:	4652      	mov	r2, sl
10001030:	0021      	movs	r1, r4
10001032:	4648      	mov	r0, r9
10001034:	f002 fa1a 	bl	1000346c <send_channel>
10001038:	465b      	mov	r3, fp
1000103a:	2280      	movs	r2, #128	@ 0x80
1000103c:	611c      	str	r4, [r3, #16]
1000103e:	0612      	lsls	r2, r2, #24
10001040:	4b85      	ldr	r3, [pc, #532]	@ (10001258 <loop+0xae8>)
10001042:	9802      	ldr	r0, [sp, #8]
10001044:	9600      	str	r6, [sp, #0]
10001046:	f002 f9dd 	bl	10003404 <get_ftw>
1000104a:	0032      	movs	r2, r6
1000104c:	0021      	movs	r1, r4
1000104e:	002b      	movs	r3, r5
10001050:	0028      	movs	r0, r5
10001052:	f002 fa0b 	bl	1000346c <send_channel>
10001056:	465b      	mov	r3, fp
10001058:	0038      	movs	r0, r7
1000105a:	611c      	str	r4, [r3, #16]
1000105c:	f003 fbf4 	bl	10004848 <sleep_ms>
10001060:	2200      	movs	r2, #0
10001062:	4b7e      	ldr	r3, [pc, #504]	@ (1000125c <loop+0xaec>)
10001064:	9802      	ldr	r0, [sp, #8]
10001066:	9600      	str	r6, [sp, #0]
10001068:	f002 f9cc 	bl	10003404 <get_ftw>
1000106c:	002b      	movs	r3, r5
1000106e:	0032      	movs	r2, r6
10001070:	0039      	movs	r1, r7
10001072:	0028      	movs	r0, r5
10001074:	f002 f9fa 	bl	1000346c <send_channel>
10001078:	465b      	mov	r3, fp
1000107a:	4652      	mov	r2, sl
1000107c:	611c      	str	r4, [r3, #16]
1000107e:	4878      	ldr	r0, [pc, #480]	@ (10001260 <loop+0xaf0>)
10001080:	4978      	ldr	r1, [pc, #480]	@ (10001264 <loop+0xaf4>)
10001082:	f002 f999 	bl	100033b8 <get_asf>
10001086:	4643      	mov	r3, r8
10001088:	4652      	mov	r2, sl
1000108a:	0021      	movs	r1, r4
1000108c:	4648      	mov	r0, r9
1000108e:	f002 f9ed 	bl	1000346c <send_channel>
10001092:	465b      	mov	r3, fp
10001094:	2280      	movs	r2, #128	@ 0x80
10001096:	611c      	str	r4, [r3, #16]
10001098:	0612      	lsls	r2, r2, #24
1000109a:	4b73      	ldr	r3, [pc, #460]	@ (10001268 <loop+0xaf8>)
1000109c:	9802      	ldr	r0, [sp, #8]
1000109e:	9600      	str	r6, [sp, #0]
100010a0:	f002 f9b0 	bl	10003404 <get_ftw>
100010a4:	0032      	movs	r2, r6
100010a6:	0021      	movs	r1, r4
100010a8:	002b      	movs	r3, r5
100010aa:	0028      	movs	r0, r5
100010ac:	f002 f9de 	bl	1000346c <send_channel>
100010b0:	465b      	mov	r3, fp
100010b2:	0038      	movs	r0, r7
100010b4:	611c      	str	r4, [r3, #16]
100010b6:	f003 fbc7 	bl	10004848 <sleep_ms>
100010ba:	2200      	movs	r2, #0
100010bc:	4b6b      	ldr	r3, [pc, #428]	@ (1000126c <loop+0xafc>)
100010be:	9802      	ldr	r0, [sp, #8]
100010c0:	9600      	str	r6, [sp, #0]
100010c2:	f002 f99f 	bl	10003404 <get_ftw>
100010c6:	002b      	movs	r3, r5
100010c8:	0032      	movs	r2, r6
100010ca:	0039      	movs	r1, r7
100010cc:	0028      	movs	r0, r5
100010ce:	f002 f9cd 	bl	1000346c <send_channel>
100010d2:	465b      	mov	r3, fp
100010d4:	4652      	mov	r2, sl
100010d6:	611c      	str	r4, [r3, #16]
100010d8:	485a      	ldr	r0, [pc, #360]	@ (10001244 <loop+0xad4>)
100010da:	495b      	ldr	r1, [pc, #364]	@ (10001248 <loop+0xad8>)
100010dc:	f002 f96c 	bl	100033b8 <get_asf>
100010e0:	4643      	mov	r3, r8
100010e2:	4652      	mov	r2, sl
100010e4:	0021      	movs	r1, r4
100010e6:	4648      	mov	r0, r9
100010e8:	f002 f9c0 	bl	1000346c <send_channel>
100010ec:	465b      	mov	r3, fp
100010ee:	2280      	movs	r2, #128	@ 0x80
100010f0:	611c      	str	r4, [r3, #16]
100010f2:	0612      	lsls	r2, r2, #24
100010f4:	4b55      	ldr	r3, [pc, #340]	@ (1000124c <loop+0xadc>)
100010f6:	9802      	ldr	r0, [sp, #8]
100010f8:	9600      	str	r6, [sp, #0]
100010fa:	f002 f983 	bl	10003404 <get_ftw>
100010fe:	0032      	movs	r2, r6
10001100:	0021      	movs	r1, r4
10001102:	002b      	movs	r3, r5
10001104:	0028      	movs	r0, r5
10001106:	f002 f9b1 	bl	1000346c <send_channel>
1000110a:	465b      	mov	r3, fp
1000110c:	0038      	movs	r0, r7
1000110e:	611c      	str	r4, [r3, #16]
10001110:	f003 fb9a 	bl	10004848 <sleep_ms>
10001114:	4652      	mov	r2, sl
10001116:	484e      	ldr	r0, [pc, #312]	@ (10001250 <loop+0xae0>)
10001118:	494e      	ldr	r1, [pc, #312]	@ (10001254 <loop+0xae4>)
1000111a:	f002 f94d 	bl	100033b8 <get_asf>
1000111e:	4643      	mov	r3, r8
10001120:	4652      	mov	r2, sl
10001122:	0021      	movs	r1, r4
10001124:	4648      	mov	r0, r9
10001126:	f002 f9a1 	bl	1000346c <send_channel>
1000112a:	465b      	mov	r3, fp
1000112c:	2280      	movs	r2, #128	@ 0x80
1000112e:	611c      	str	r4, [r3, #16]
10001130:	0612      	lsls	r2, r2, #24
10001132:	4b49      	ldr	r3, [pc, #292]	@ (10001258 <loop+0xae8>)
10001134:	9802      	ldr	r0, [sp, #8]
10001136:	9600      	str	r6, [sp, #0]
10001138:	f002 f964 	bl	10003404 <get_ftw>
1000113c:	0032      	movs	r2, r6
1000113e:	0021      	movs	r1, r4
10001140:	002b      	movs	r3, r5
10001142:	0028      	movs	r0, r5
10001144:	f002 f992 	bl	1000346c <send_channel>
10001148:	465b      	mov	r3, fp
1000114a:	0038      	movs	r0, r7
1000114c:	611c      	str	r4, [r3, #16]
1000114e:	f003 fb7b 	bl	10004848 <sleep_ms>
10001152:	2200      	movs	r2, #0
10001154:	4b46      	ldr	r3, [pc, #280]	@ (10001270 <loop+0xb00>)
10001156:	9802      	ldr	r0, [sp, #8]
10001158:	9600      	str	r6, [sp, #0]
1000115a:	f002 f953 	bl	10003404 <get_ftw>
1000115e:	002b      	movs	r3, r5
10001160:	0032      	movs	r2, r6
10001162:	0039      	movs	r1, r7
10001164:	0028      	movs	r0, r5
10001166:	f002 f981 	bl	1000346c <send_channel>
1000116a:	465b      	mov	r3, fp
1000116c:	4652      	mov	r2, sl
1000116e:	611c      	str	r4, [r3, #16]
10001170:	482d      	ldr	r0, [pc, #180]	@ (10001228 <loop+0xab8>)
10001172:	492e      	ldr	r1, [pc, #184]	@ (1000122c <loop+0xabc>)
10001174:	f002 f920 	bl	100033b8 <get_asf>
10001178:	4643      	mov	r3, r8
1000117a:	4652      	mov	r2, sl
1000117c:	0021      	movs	r1, r4
1000117e:	4648      	mov	r0, r9
10001180:	f002 f974 	bl	1000346c <send_channel>
10001184:	465b      	mov	r3, fp
10001186:	2280      	movs	r2, #128	@ 0x80
10001188:	611c      	str	r4, [r3, #16]
1000118a:	0612      	lsls	r2, r2, #24
1000118c:	4b28      	ldr	r3, [pc, #160]	@ (10001230 <loop+0xac0>)
1000118e:	9802      	ldr	r0, [sp, #8]
10001190:	9600      	str	r6, [sp, #0]
10001192:	f002 f937 	bl	10003404 <get_ftw>
10001196:	0032      	movs	r2, r6
10001198:	0021      	movs	r1, r4
1000119a:	002b      	movs	r3, r5
1000119c:	0028      	movs	r0, r5
1000119e:	f002 f965 	bl	1000346c <send_channel>
100011a2:	465b      	mov	r3, fp
100011a4:	0038      	movs	r0, r7
100011a6:	611c      	str	r4, [r3, #16]
100011a8:	f003 fb4e 	bl	10004848 <sleep_ms>
100011ac:	4652      	mov	r2, sl
100011ae:	4821      	ldr	r0, [pc, #132]	@ (10001234 <loop+0xac4>)
100011b0:	4921      	ldr	r1, [pc, #132]	@ (10001238 <loop+0xac8>)
100011b2:	f002 f901 	bl	100033b8 <get_asf>
100011b6:	4643      	mov	r3, r8
100011b8:	4652      	mov	r2, sl
100011ba:	0021      	movs	r1, r4
100011bc:	4648      	mov	r0, r9
100011be:	f002 f955 	bl	1000346c <send_channel>
100011c2:	465b      	mov	r3, fp
100011c4:	2280      	movs	r2, #128	@ 0x80
100011c6:	611c      	str	r4, [r3, #16]
100011c8:	0612      	lsls	r2, r2, #24
100011ca:	4b1c      	ldr	r3, [pc, #112]	@ (1000123c <loop+0xacc>)
100011cc:	9802      	ldr	r0, [sp, #8]
100011ce:	9600      	str	r6, [sp, #0]
100011d0:	f002 f918 	bl	10003404 <get_ftw>
100011d4:	002b      	movs	r3, r5
100011d6:	0032      	movs	r2, r6
100011d8:	0021      	movs	r1, r4
100011da:	0028      	movs	r0, r5
100011dc:	f002 f946 	bl	1000346c <send_channel>
100011e0:	465b      	mov	r3, fp
100011e2:	0038      	movs	r0, r7
100011e4:	611c      	str	r4, [r3, #16]
100011e6:	f003 fb2f 	bl	10004848 <sleep_ms>
100011ea:	9b04      	ldr	r3, [sp, #16]
100011ec:	3b01      	subs	r3, #1
100011ee:	9304      	str	r3, [sp, #16]
100011f0:	42a3      	cmp	r3, r4
100011f2:	d000      	beq.n	100011f6 <loop+0xa86>
100011f4:	e69a      	b.n	10000f2c <loop+0x7bc>
100011f6:	f7ff fbe9 	bl	100009cc <loop+0x25c>
100011fa:	46c0      	nop			@ (mov r8, r8)
100011fc:	1000b1b0 	.word	0x1000b1b0
10001200:	1000b1bc 	.word	0x1000b1bc
10001204:	1000b1c8 	.word	0x1000b1c8
10001208:	1000b1d4 	.word	0x1000b1d4
1000120c:	1000b1e0 	.word	0x1000b1e0
10001210:	1000b1ec 	.word	0x1000b1ec
10001214:	3ff00000 	.word	0x3ff00000
10001218:	50200000 	.word	0x50200000
1000121c:	00002711 	.word	0x00002711
10001220:	20001528 	.word	0x20001528
10001224:	41948106 	.word	0x41948106
10001228:	83126e98 	.word	0x83126e98
1000122c:	3fe5cac0 	.word	0x3fe5cac0
10001230:	41946281 	.word	0x41946281
10001234:	c28f5c29 	.word	0xc28f5c29
10001238:	3fe828f5 	.word	0x3fe828f5
1000123c:	419b0f7d 	.word	0x419b0f7d
10001240:	41962c45 	.word	0x41962c45
10001244:	1eb851ec 	.word	0x1eb851ec
10001248:	3fe5eb85 	.word	0x3fe5eb85
1000124c:	41960dc0 	.word	0x41960dc0
10001250:	db22d0e5 	.word	0xdb22d0e5
10001254:	3fe67ef9 	.word	0x3fe67ef9
10001258:	4199643e 	.word	0x4199643e
1000125c:	4197d784 	.word	0x4197d784
10001260:	fbe76c8b 	.word	0xfbe76c8b
10001264:	3fe6f1a9 	.word	0x3fe6f1a9
10001268:	4197b8ff 	.word	0x4197b8ff
1000126c:	419982c3 	.word	0x419982c3
10001270:	419b2e02 	.word	0x419b2e02
10001274:	ab24      	add	r3, sp, #144	@ 0x90
10001276:	469a      	mov	sl, r3
10001278:	001a      	movs	r2, r3
1000127a:	488b      	ldr	r0, [pc, #556]	@ (100014a8 <loop+0xd38>)
1000127c:	498b      	ldr	r1, [pc, #556]	@ (100014ac <loop+0xd3c>)
1000127e:	f002 f89b 	bl	100033b8 <get_asf>
10001282:	2303      	movs	r3, #3
10001284:	4652      	mov	r2, sl
10001286:	0021      	movs	r1, r4
10001288:	2006      	movs	r0, #6
1000128a:	f002 f8ef 	bl	1000346c <send_channel>
1000128e:	4b88      	ldr	r3, [pc, #544]	@ (100014b0 <loop+0xd40>)
10001290:	4f88      	ldr	r7, [pc, #544]	@ (100014b4 <loop+0xd44>)
10001292:	611c      	str	r4, [r3, #16]
10001294:	4b88      	ldr	r3, [pc, #544]	@ (100014b8 <loop+0xd48>)
10001296:	aa25      	add	r2, sp, #148	@ 0x94
10001298:	46b9      	mov	r9, r7
1000129a:	4693      	mov	fp, r2
1000129c:	4657      	mov	r7, sl
1000129e:	4698      	mov	r8, r3
100012a0:	003a      	movs	r2, r7
100012a2:	4886      	ldr	r0, [pc, #536]	@ (100014bc <loop+0xd4c>)
100012a4:	4986      	ldr	r1, [pc, #536]	@ (100014c0 <loop+0xd50>)
100012a6:	f002 f887 	bl	100033b8 <get_asf>
100012aa:	2303      	movs	r3, #3
100012ac:	003a      	movs	r2, r7
100012ae:	2100      	movs	r1, #0
100012b0:	2006      	movs	r0, #6
100012b2:	f002 f8db 	bl	1000346c <send_channel>
100012b6:	2400      	movs	r4, #0
100012b8:	465b      	mov	r3, fp
100012ba:	2280      	movs	r2, #128	@ 0x80
100012bc:	4d7c      	ldr	r5, [pc, #496]	@ (100014b0 <loop+0xd40>)
100012be:	0612      	lsls	r2, r2, #24
100012c0:	612c      	str	r4, [r5, #16]
100012c2:	4640      	mov	r0, r8
100012c4:	9300      	str	r3, [sp, #0]
100012c6:	4b7f      	ldr	r3, [pc, #508]	@ (100014c4 <loop+0xd54>)
100012c8:	f002 f89c 	bl	10003404 <get_ftw>
100012cc:	2304      	movs	r3, #4
100012ce:	465a      	mov	r2, fp
100012d0:	2100      	movs	r1, #0
100012d2:	2004      	movs	r0, #4
100012d4:	f002 f8ca 	bl	1000346c <send_channel>
100012d8:	612c      	str	r4, [r5, #16]
100012da:	2001      	movs	r0, #1
100012dc:	f003 fab4 	bl	10004848 <sleep_ms>
100012e0:	003a      	movs	r2, r7
100012e2:	2000      	movs	r0, #0
100012e4:	2100      	movs	r1, #0
100012e6:	f002 f867 	bl	100033b8 <get_asf>
100012ea:	2303      	movs	r3, #3
100012ec:	003a      	movs	r2, r7
100012ee:	2100      	movs	r1, #0
100012f0:	2006      	movs	r0, #6
100012f2:	f002 f8bb 	bl	1000346c <send_channel>
100012f6:	2600      	movs	r6, #0
100012f8:	465b      	mov	r3, fp
100012fa:	2200      	movs	r2, #0
100012fc:	612e      	str	r6, [r5, #16]
100012fe:	4640      	mov	r0, r8
10001300:	9300      	str	r3, [sp, #0]
10001302:	2300      	movs	r3, #0
10001304:	f002 f87e 	bl	10003404 <get_ftw>
10001308:	3401      	adds	r4, #1
1000130a:	2304      	movs	r3, #4
1000130c:	465a      	mov	r2, fp
1000130e:	2100      	movs	r1, #0
10001310:	2004      	movs	r0, #4
10001312:	f002 f8ab 	bl	1000346c <send_channel>
10001316:	612e      	str	r6, [r5, #16]
10001318:	2c06      	cmp	r4, #6
1000131a:	d03d      	beq.n	10001398 <loop+0xc28>
1000131c:	2c01      	cmp	r4, #1
1000131e:	d045      	beq.n	100013ac <loop+0xc3c>
10001320:	2c03      	cmp	r4, #3
10001322:	d05f      	beq.n	100013e4 <loop+0xc74>
10001324:	2c05      	cmp	r4, #5
10001326:	d1d8      	bne.n	100012da <loop+0xb6a>
10001328:	465b      	mov	r3, fp
1000132a:	2280      	movs	r2, #128	@ 0x80
1000132c:	9300      	str	r3, [sp, #0]
1000132e:	0612      	lsls	r2, r2, #24
10001330:	4b65      	ldr	r3, [pc, #404]	@ (100014c8 <loop+0xd58>)
10001332:	4640      	mov	r0, r8
10001334:	f002 f866 	bl	10003404 <get_ftw>
10001338:	2304      	movs	r3, #4
1000133a:	465a      	mov	r2, fp
1000133c:	2100      	movs	r1, #0
1000133e:	2004      	movs	r0, #4
10001340:	f002 f894 	bl	1000346c <send_channel>
10001344:	003a      	movs	r2, r7
10001346:	4861      	ldr	r0, [pc, #388]	@ (100014cc <loop+0xd5c>)
10001348:	4961      	ldr	r1, [pc, #388]	@ (100014d0 <loop+0xd60>)
1000134a:	612e      	str	r6, [r5, #16]
1000134c:	f002 f834 	bl	100033b8 <get_asf>
10001350:	2303      	movs	r3, #3
10001352:	003a      	movs	r2, r7
10001354:	2100      	movs	r1, #0
10001356:	2006      	movs	r0, #6
10001358:	f002 f888 	bl	1000346c <send_channel>
1000135c:	2001      	movs	r0, #1
1000135e:	612e      	str	r6, [r5, #16]
10001360:	f003 fa72 	bl	10004848 <sleep_ms>
10001364:	003a      	movs	r2, r7
10001366:	2000      	movs	r0, #0
10001368:	2100      	movs	r1, #0
1000136a:	f002 f825 	bl	100033b8 <get_asf>
1000136e:	2303      	movs	r3, #3
10001370:	003a      	movs	r2, r7
10001372:	2100      	movs	r1, #0
10001374:	2006      	movs	r0, #6
10001376:	f002 f879 	bl	1000346c <send_channel>
1000137a:	465b      	mov	r3, fp
1000137c:	2200      	movs	r2, #0
1000137e:	612e      	str	r6, [r5, #16]
10001380:	4640      	mov	r0, r8
10001382:	9300      	str	r3, [sp, #0]
10001384:	2300      	movs	r3, #0
10001386:	f002 f83d 	bl	10003404 <get_ftw>
1000138a:	2304      	movs	r3, #4
1000138c:	465a      	mov	r2, fp
1000138e:	2100      	movs	r1, #0
10001390:	2004      	movs	r0, #4
10001392:	f002 f86b 	bl	1000346c <send_channel>
10001396:	612e      	str	r6, [r5, #16]
10001398:	2301      	movs	r3, #1
1000139a:	425b      	negs	r3, r3
1000139c:	469c      	mov	ip, r3
1000139e:	44e1      	add	r9, ip
100013a0:	464b      	mov	r3, r9
100013a2:	2b00      	cmp	r3, #0
100013a4:	d000      	beq.n	100013a8 <loop+0xc38>
100013a6:	e77b      	b.n	100012a0 <loop+0xb30>
100013a8:	f7ff fb10 	bl	100009cc <loop+0x25c>
100013ac:	003a      	movs	r2, r7
100013ae:	4849      	ldr	r0, [pc, #292]	@ (100014d4 <loop+0xd64>)
100013b0:	4949      	ldr	r1, [pc, #292]	@ (100014d8 <loop+0xd68>)
100013b2:	f002 f801 	bl	100033b8 <get_asf>
100013b6:	2303      	movs	r3, #3
100013b8:	003a      	movs	r2, r7
100013ba:	2100      	movs	r1, #0
100013bc:	2006      	movs	r0, #6
100013be:	f002 f855 	bl	1000346c <send_channel>
100013c2:	465b      	mov	r3, fp
100013c4:	2280      	movs	r2, #128	@ 0x80
100013c6:	612e      	str	r6, [r5, #16]
100013c8:	9300      	str	r3, [sp, #0]
100013ca:	4b44      	ldr	r3, [pc, #272]	@ (100014dc <loop+0xd6c>)
100013cc:	0612      	lsls	r2, r2, #24
100013ce:	4640      	mov	r0, r8
100013d0:	f002 f818 	bl	10003404 <get_ftw>
100013d4:	2304      	movs	r3, #4
100013d6:	465a      	mov	r2, fp
100013d8:	2100      	movs	r1, #0
100013da:	2004      	movs	r0, #4
100013dc:	f002 f846 	bl	1000346c <send_channel>
100013e0:	612e      	str	r6, [r5, #16]
100013e2:	e77a      	b.n	100012da <loop+0xb6a>
100013e4:	003a      	movs	r2, r7
100013e6:	483e      	ldr	r0, [pc, #248]	@ (100014e0 <loop+0xd70>)
100013e8:	493e      	ldr	r1, [pc, #248]	@ (100014e4 <loop+0xd74>)
100013ea:	f001 ffe5 	bl	100033b8 <get_asf>
100013ee:	2303      	movs	r3, #3
100013f0:	003a      	movs	r2, r7
100013f2:	2100      	movs	r1, #0
100013f4:	2006      	movs	r0, #6
100013f6:	f002 f839 	bl	1000346c <send_channel>
100013fa:	465b      	mov	r3, fp
100013fc:	2280      	movs	r2, #128	@ 0x80
100013fe:	612e      	str	r6, [r5, #16]
10001400:	0612      	lsls	r2, r2, #24
10001402:	9300      	str	r3, [sp, #0]
10001404:	4b38      	ldr	r3, [pc, #224]	@ (100014e8 <loop+0xd78>)
10001406:	e7e2      	b.n	100013ce <loop+0xc5e>
10001408:	aa24      	add	r2, sp, #144	@ 0x90
1000140a:	2000      	movs	r0, #0
1000140c:	4937      	ldr	r1, [pc, #220]	@ (100014ec <loop+0xd7c>)
1000140e:	f001 ffd3 	bl	100033b8 <get_asf>
10001412:	2303      	movs	r3, #3
10001414:	0004      	movs	r4, r0
10001416:	000d      	movs	r5, r1
10001418:	2006      	movs	r0, #6
1000141a:	4641      	mov	r1, r8
1000141c:	aa24      	add	r2, sp, #144	@ 0x90
1000141e:	f002 f825 	bl	1000346c <send_channel>
10001422:	4643      	mov	r3, r8
10001424:	4f22      	ldr	r7, [pc, #136]	@ (100014b0 <loop+0xd40>)
10001426:	0022      	movs	r2, r4
10001428:	613b      	str	r3, [r7, #16]
1000142a:	4831      	ldr	r0, [pc, #196]	@ (100014f0 <loop+0xd80>)
1000142c:	002b      	movs	r3, r5
1000142e:	f006 ff2b 	bl	10008288 <__wrap_printf>
10001432:	23fa      	movs	r3, #250	@ 0xfa
10001434:	005b      	lsls	r3, r3, #1
10001436:	4699      	mov	r9, r3
10001438:	aa25      	add	r2, sp, #148	@ 0x94
1000143a:	4693      	mov	fp, r2
1000143c:	4b1e      	ldr	r3, [pc, #120]	@ (100014b8 <loop+0xd48>)
1000143e:	4a2d      	ldr	r2, [pc, #180]	@ (100014f4 <loop+0xd84>)
10001440:	46ca      	mov	sl, r9
10001442:	4690      	mov	r8, r2
10001444:	4699      	mov	r9, r3
10001446:	2655      	movs	r6, #85	@ 0x55
10001448:	0030      	movs	r0, r6
1000144a:	f006 f847 	bl	100074dc <__wrap___aeabi_i2d>
1000144e:	2200      	movs	r2, #0
10001450:	4b29      	ldr	r3, [pc, #164]	@ (100014f8 <loop+0xd88>)
10001452:	f005 ffb3 	bl	100073bc <__wrap___aeabi_dadd>
10001456:	2200      	movs	r2, #0
10001458:	4b28      	ldr	r3, [pc, #160]	@ (100014fc <loop+0xd8c>)
1000145a:	0004      	movs	r4, r0
1000145c:	000d      	movs	r5, r1
1000145e:	f005 ffd4 	bl	1000740a <__wrap___aeabi_dmul>
10001462:	000b      	movs	r3, r1
10001464:	4659      	mov	r1, fp
10001466:	0002      	movs	r2, r0
10001468:	9100      	str	r1, [sp, #0]
1000146a:	4648      	mov	r0, r9
1000146c:	f001 ffca 	bl	10003404 <get_ftw>
10001470:	465a      	mov	r2, fp
10001472:	2100      	movs	r1, #0
10001474:	2304      	movs	r3, #4
10001476:	2004      	movs	r0, #4
10001478:	f001 fff8 	bl	1000346c <send_channel>
1000147c:	2300      	movs	r3, #0
1000147e:	2002      	movs	r0, #2
10001480:	613b      	str	r3, [r7, #16]
10001482:	f003 f9e1 	bl	10004848 <sleep_ms>
10001486:	3601      	adds	r6, #1
10001488:	0022      	movs	r2, r4
1000148a:	002b      	movs	r3, r5
1000148c:	4640      	mov	r0, r8
1000148e:	f006 fefb 	bl	10008288 <__wrap_printf>
10001492:	2e7a      	cmp	r6, #122	@ 0x7a
10001494:	d1d8      	bne.n	10001448 <loop+0xcd8>
10001496:	2301      	movs	r3, #1
10001498:	425b      	negs	r3, r3
1000149a:	469c      	mov	ip, r3
1000149c:	44e2      	add	sl, ip
1000149e:	4653      	mov	r3, sl
100014a0:	2b00      	cmp	r3, #0
100014a2:	d1d0      	bne.n	10001446 <loop+0xcd6>
100014a4:	f7ff fa92 	bl	100009cc <loop+0x25c>
100014a8:	9999999a 	.word	0x9999999a
100014ac:	3fe19999 	.word	0x3fe19999
100014b0:	50200000 	.word	0x50200000
100014b4:	00007530 	.word	0x00007530
100014b8:	20001528 	.word	0x20001528
100014bc:	83126e98 	.word	0x83126e98
100014c0:	3fe5cac0 	.word	0x3fe5cac0
100014c4:	41946281 	.word	0x41946281
100014c8:	419cbabc 	.word	0x419cbabc
100014cc:	47ae147b 	.word	0x47ae147b
100014d0:	3fec7ae1 	.word	0x3fec7ae1
100014d4:	1eb851ec 	.word	0x1eb851ec
100014d8:	3fe5eb85 	.word	0x3fe5eb85
100014dc:	41960dc0 	.word	0x41960dc0
100014e0:	db22d0e5 	.word	0xdb22d0e5
100014e4:	3fe67ef9 	.word	0x3fe67ef9
100014e8:	4199643e 	.word	0x4199643e
100014ec:	3ff00000 	.word	0x3ff00000
100014f0:	1000b164 	.word	0x1000b164
100014f4:	1000b184 	.word	0x1000b184
100014f8:	3fe00000 	.word	0x3fe00000
100014fc:	412e8480 	.word	0x412e8480
10001500:	ab24      	add	r3, sp, #144	@ 0x90
10001502:	469a      	mov	sl, r3
10001504:	001a      	movs	r2, r3
10001506:	2000      	movs	r0, #0
10001508:	49d6      	ldr	r1, [pc, #856]	@ (10001864 <loop+0x10f4>)
1000150a:	f001 ff55 	bl	100033b8 <get_asf>
1000150e:	2303      	movs	r3, #3
10001510:	4652      	mov	r2, sl
10001512:	2101      	movs	r1, #1
10001514:	2006      	movs	r0, #6
10001516:	f001 ffa9 	bl	1000346c <send_channel>
1000151a:	4bd3      	ldr	r3, [pc, #844]	@ (10001868 <loop+0x10f8>)
1000151c:	2504      	movs	r5, #4
1000151e:	611c      	str	r4, [r3, #16]
10001520:	4bd2      	ldr	r3, [pc, #840]	@ (1000186c <loop+0x10fc>)
10001522:	2701      	movs	r7, #1
10001524:	9304      	str	r3, [sp, #16]
10001526:	4bd2      	ldr	r3, [pc, #840]	@ (10001870 <loop+0x1100>)
10001528:	9302      	str	r3, [sp, #8]
1000152a:	ab25      	add	r3, sp, #148	@ 0x94
1000152c:	469b      	mov	fp, r3
1000152e:	2303      	movs	r3, #3
10001530:	4698      	mov	r8, r3
10001532:	18db      	adds	r3, r3, r3
10001534:	4699      	mov	r9, r3
10001536:	465e      	mov	r6, fp
10001538:	2200      	movs	r2, #0
1000153a:	4bce      	ldr	r3, [pc, #824]	@ (10001874 <loop+0x1104>)
1000153c:	9802      	ldr	r0, [sp, #8]
1000153e:	9600      	str	r6, [sp, #0]
10001540:	2400      	movs	r4, #0
10001542:	f001 ff5f 	bl	10003404 <get_ftw>
10001546:	0032      	movs	r2, r6
10001548:	0039      	movs	r1, r7
1000154a:	002b      	movs	r3, r5
1000154c:	0028      	movs	r0, r5
1000154e:	f001 ff8d 	bl	1000346c <send_channel>
10001552:	4bc5      	ldr	r3, [pc, #788]	@ (10001868 <loop+0x10f8>)
10001554:	0038      	movs	r0, r7
10001556:	469b      	mov	fp, r3
10001558:	611c      	str	r4, [r3, #16]
1000155a:	f003 f975 	bl	10004848 <sleep_ms>
1000155e:	4652      	mov	r2, sl
10001560:	48c5      	ldr	r0, [pc, #788]	@ (10001878 <loop+0x1108>)
10001562:	49c6      	ldr	r1, [pc, #792]	@ (1000187c <loop+0x110c>)
10001564:	f001 ff28 	bl	100033b8 <get_asf>
10001568:	4643      	mov	r3, r8
1000156a:	4652      	mov	r2, sl
1000156c:	0021      	movs	r1, r4
1000156e:	4648      	mov	r0, r9
10001570:	f001 ff7c 	bl	1000346c <send_channel>
10001574:	465b      	mov	r3, fp
10001576:	2280      	movs	r2, #128	@ 0x80
10001578:	611c      	str	r4, [r3, #16]
1000157a:	0612      	lsls	r2, r2, #24
1000157c:	4bc0      	ldr	r3, [pc, #768]	@ (10001880 <loop+0x1110>)
1000157e:	9802      	ldr	r0, [sp, #8]
10001580:	9600      	str	r6, [sp, #0]
10001582:	f001 ff3f 	bl	10003404 <get_ftw>
10001586:	0032      	movs	r2, r6
10001588:	0021      	movs	r1, r4
1000158a:	002b      	movs	r3, r5
1000158c:	0028      	movs	r0, r5
1000158e:	f001 ff6d 	bl	1000346c <send_channel>
10001592:	465b      	mov	r3, fp
10001594:	0038      	movs	r0, r7
10001596:	611c      	str	r4, [r3, #16]
10001598:	f003 f956 	bl	10004848 <sleep_ms>
1000159c:	4652      	mov	r2, sl
1000159e:	48b9      	ldr	r0, [pc, #740]	@ (10001884 <loop+0x1114>)
100015a0:	49b9      	ldr	r1, [pc, #740]	@ (10001888 <loop+0x1118>)
100015a2:	f001 ff09 	bl	100033b8 <get_asf>
100015a6:	4643      	mov	r3, r8
100015a8:	4652      	mov	r2, sl
100015aa:	0021      	movs	r1, r4
100015ac:	4648      	mov	r0, r9
100015ae:	f001 ff5d 	bl	1000346c <send_channel>
100015b2:	465b      	mov	r3, fp
100015b4:	2280      	movs	r2, #128	@ 0x80
100015b6:	611c      	str	r4, [r3, #16]
100015b8:	0612      	lsls	r2, r2, #24
100015ba:	4bb4      	ldr	r3, [pc, #720]	@ (1000188c <loop+0x111c>)
100015bc:	9802      	ldr	r0, [sp, #8]
100015be:	9600      	str	r6, [sp, #0]
100015c0:	f001 ff20 	bl	10003404 <get_ftw>
100015c4:	0032      	movs	r2, r6
100015c6:	0021      	movs	r1, r4
100015c8:	002b      	movs	r3, r5
100015ca:	0028      	movs	r0, r5
100015cc:	f001 ff4e 	bl	1000346c <send_channel>
100015d0:	465b      	mov	r3, fp
100015d2:	0038      	movs	r0, r7
100015d4:	611c      	str	r4, [r3, #16]
100015d6:	f003 f937 	bl	10004848 <sleep_ms>
100015da:	4652      	mov	r2, sl
100015dc:	48ac      	ldr	r0, [pc, #688]	@ (10001890 <loop+0x1120>)
100015de:	49ad      	ldr	r1, [pc, #692]	@ (10001894 <loop+0x1124>)
100015e0:	f001 feea 	bl	100033b8 <get_asf>
100015e4:	4643      	mov	r3, r8
100015e6:	4652      	mov	r2, sl
100015e8:	0021      	movs	r1, r4
100015ea:	4648      	mov	r0, r9
100015ec:	f001 ff3e 	bl	1000346c <send_channel>
100015f0:	465b      	mov	r3, fp
100015f2:	2280      	movs	r2, #128	@ 0x80
100015f4:	611c      	str	r4, [r3, #16]
100015f6:	0612      	lsls	r2, r2, #24
100015f8:	4ba7      	ldr	r3, [pc, #668]	@ (10001898 <loop+0x1128>)
100015fa:	9802      	ldr	r0, [sp, #8]
100015fc:	9600      	str	r6, [sp, #0]
100015fe:	f001 ff01 	bl	10003404 <get_ftw>
10001602:	0032      	movs	r2, r6
10001604:	0021      	movs	r1, r4
10001606:	002b      	movs	r3, r5
10001608:	0028      	movs	r0, r5
1000160a:	f001 ff2f 	bl	1000346c <send_channel>
1000160e:	465b      	mov	r3, fp
10001610:	0038      	movs	r0, r7
10001612:	611c      	str	r4, [r3, #16]
10001614:	f003 f918 	bl	10004848 <sleep_ms>
10001618:	4652      	mov	r2, sl
1000161a:	48a0      	ldr	r0, [pc, #640]	@ (1000189c <loop+0x112c>)
1000161c:	49a0      	ldr	r1, [pc, #640]	@ (100018a0 <loop+0x1130>)
1000161e:	f001 fecb 	bl	100033b8 <get_asf>
10001622:	4643      	mov	r3, r8
10001624:	4652      	mov	r2, sl
10001626:	0021      	movs	r1, r4
10001628:	4648      	mov	r0, r9
1000162a:	f001 ff1f 	bl	1000346c <send_channel>
1000162e:	465b      	mov	r3, fp
10001630:	2280      	movs	r2, #128	@ 0x80
10001632:	611c      	str	r4, [r3, #16]
10001634:	0612      	lsls	r2, r2, #24
10001636:	4b9b      	ldr	r3, [pc, #620]	@ (100018a4 <loop+0x1134>)
10001638:	9802      	ldr	r0, [sp, #8]
1000163a:	9600      	str	r6, [sp, #0]
1000163c:	f001 fee2 	bl	10003404 <get_ftw>
10001640:	0032      	movs	r2, r6
10001642:	0021      	movs	r1, r4
10001644:	002b      	movs	r3, r5
10001646:	0028      	movs	r0, r5
10001648:	f001 ff10 	bl	1000346c <send_channel>
1000164c:	465b      	mov	r3, fp
1000164e:	0038      	movs	r0, r7
10001650:	611c      	str	r4, [r3, #16]
10001652:	f003 f8f9 	bl	10004848 <sleep_ms>
10001656:	4652      	mov	r2, sl
10001658:	4893      	ldr	r0, [pc, #588]	@ (100018a8 <loop+0x1138>)
1000165a:	4994      	ldr	r1, [pc, #592]	@ (100018ac <loop+0x113c>)
1000165c:	f001 feac 	bl	100033b8 <get_asf>
10001660:	4643      	mov	r3, r8
10001662:	4652      	mov	r2, sl
10001664:	0021      	movs	r1, r4
10001666:	4648      	mov	r0, r9
10001668:	f001 ff00 	bl	1000346c <send_channel>
1000166c:	465b      	mov	r3, fp
1000166e:	2280      	movs	r2, #128	@ 0x80
10001670:	611c      	str	r4, [r3, #16]
10001672:	0612      	lsls	r2, r2, #24
10001674:	4b8e      	ldr	r3, [pc, #568]	@ (100018b0 <loop+0x1140>)
10001676:	9802      	ldr	r0, [sp, #8]
10001678:	9600      	str	r6, [sp, #0]
1000167a:	f001 fec3 	bl	10003404 <get_ftw>
1000167e:	0032      	movs	r2, r6
10001680:	0021      	movs	r1, r4
10001682:	002b      	movs	r3, r5
10001684:	0028      	movs	r0, r5
10001686:	f001 fef1 	bl	1000346c <send_channel>
1000168a:	465b      	mov	r3, fp
1000168c:	0038      	movs	r0, r7
1000168e:	611c      	str	r4, [r3, #16]
10001690:	f003 f8da 	bl	10004848 <sleep_ms>
10001694:	2200      	movs	r2, #0
10001696:	4b87      	ldr	r3, [pc, #540]	@ (100018b4 <loop+0x1144>)
10001698:	9802      	ldr	r0, [sp, #8]
1000169a:	9600      	str	r6, [sp, #0]
1000169c:	f001 feb2 	bl	10003404 <get_ftw>
100016a0:	0032      	movs	r2, r6
100016a2:	0039      	movs	r1, r7
100016a4:	002b      	movs	r3, r5
100016a6:	0028      	movs	r0, r5
100016a8:	f001 fee0 	bl	1000346c <send_channel>
100016ac:	465b      	mov	r3, fp
100016ae:	0038      	movs	r0, r7
100016b0:	611c      	str	r4, [r3, #16]
100016b2:	f003 f8c9 	bl	10004848 <sleep_ms>
100016b6:	4652      	mov	r2, sl
100016b8:	486f      	ldr	r0, [pc, #444]	@ (10001878 <loop+0x1108>)
100016ba:	4970      	ldr	r1, [pc, #448]	@ (1000187c <loop+0x110c>)
100016bc:	f001 fe7c 	bl	100033b8 <get_asf>
100016c0:	4643      	mov	r3, r8
100016c2:	4652      	mov	r2, sl
100016c4:	0021      	movs	r1, r4
100016c6:	4648      	mov	r0, r9
100016c8:	f001 fed0 	bl	1000346c <send_channel>
100016cc:	465b      	mov	r3, fp
100016ce:	2280      	movs	r2, #128	@ 0x80
100016d0:	611c      	str	r4, [r3, #16]
100016d2:	0612      	lsls	r2, r2, #24
100016d4:	4b6a      	ldr	r3, [pc, #424]	@ (10001880 <loop+0x1110>)
100016d6:	9802      	ldr	r0, [sp, #8]
100016d8:	9600      	str	r6, [sp, #0]
100016da:	f001 fe93 	bl	10003404 <get_ftw>
100016de:	0032      	movs	r2, r6
100016e0:	0021      	movs	r1, r4
100016e2:	002b      	movs	r3, r5
100016e4:	0028      	movs	r0, r5
100016e6:	f001 fec1 	bl	1000346c <send_channel>
100016ea:	465b      	mov	r3, fp
100016ec:	0038      	movs	r0, r7
100016ee:	611c      	str	r4, [r3, #16]
100016f0:	f003 f8aa 	bl	10004848 <sleep_ms>
100016f4:	4652      	mov	r2, sl
100016f6:	4863      	ldr	r0, [pc, #396]	@ (10001884 <loop+0x1114>)
100016f8:	4963      	ldr	r1, [pc, #396]	@ (10001888 <loop+0x1118>)
100016fa:	f001 fe5d 	bl	100033b8 <get_asf>
100016fe:	4643      	mov	r3, r8
10001700:	4652      	mov	r2, sl
10001702:	0021      	movs	r1, r4
10001704:	4648      	mov	r0, r9
10001706:	f001 feb1 	bl	1000346c <send_channel>
1000170a:	465b      	mov	r3, fp
1000170c:	2280      	movs	r2, #128	@ 0x80
1000170e:	611c      	str	r4, [r3, #16]
10001710:	0612      	lsls	r2, r2, #24
10001712:	4b5e      	ldr	r3, [pc, #376]	@ (1000188c <loop+0x111c>)
10001714:	9802      	ldr	r0, [sp, #8]
10001716:	9600      	str	r6, [sp, #0]
10001718:	f001 fe74 	bl	10003404 <get_ftw>
1000171c:	0032      	movs	r2, r6
1000171e:	0021      	movs	r1, r4
10001720:	002b      	movs	r3, r5
10001722:	0028      	movs	r0, r5
10001724:	f001 fea2 	bl	1000346c <send_channel>
10001728:	465b      	mov	r3, fp
1000172a:	0038      	movs	r0, r7
1000172c:	611c      	str	r4, [r3, #16]
1000172e:	f003 f88b 	bl	10004848 <sleep_ms>
10001732:	4652      	mov	r2, sl
10001734:	4856      	ldr	r0, [pc, #344]	@ (10001890 <loop+0x1120>)
10001736:	4957      	ldr	r1, [pc, #348]	@ (10001894 <loop+0x1124>)
10001738:	f001 fe3e 	bl	100033b8 <get_asf>
1000173c:	4643      	mov	r3, r8
1000173e:	4652      	mov	r2, sl
10001740:	0021      	movs	r1, r4
10001742:	4648      	mov	r0, r9
10001744:	f001 fe92 	bl	1000346c <send_channel>
10001748:	465b      	mov	r3, fp
1000174a:	2280      	movs	r2, #128	@ 0x80
1000174c:	611c      	str	r4, [r3, #16]
1000174e:	0612      	lsls	r2, r2, #24
10001750:	4b51      	ldr	r3, [pc, #324]	@ (10001898 <loop+0x1128>)
10001752:	9802      	ldr	r0, [sp, #8]
10001754:	9600      	str	r6, [sp, #0]
10001756:	f001 fe55 	bl	10003404 <get_ftw>
1000175a:	0032      	movs	r2, r6
1000175c:	0021      	movs	r1, r4
1000175e:	002b      	movs	r3, r5
10001760:	0028      	movs	r0, r5
10001762:	f001 fe83 	bl	1000346c <send_channel>
10001766:	465b      	mov	r3, fp
10001768:	0038      	movs	r0, r7
1000176a:	611c      	str	r4, [r3, #16]
1000176c:	f003 f86c 	bl	10004848 <sleep_ms>
10001770:	4652      	mov	r2, sl
10001772:	484a      	ldr	r0, [pc, #296]	@ (1000189c <loop+0x112c>)
10001774:	494a      	ldr	r1, [pc, #296]	@ (100018a0 <loop+0x1130>)
10001776:	f001 fe1f 	bl	100033b8 <get_asf>
1000177a:	4643      	mov	r3, r8
1000177c:	4652      	mov	r2, sl
1000177e:	0021      	movs	r1, r4
10001780:	4648      	mov	r0, r9
10001782:	f001 fe73 	bl	1000346c <send_channel>
10001786:	465b      	mov	r3, fp
10001788:	2280      	movs	r2, #128	@ 0x80
1000178a:	611c      	str	r4, [r3, #16]
1000178c:	0612      	lsls	r2, r2, #24
1000178e:	4b45      	ldr	r3, [pc, #276]	@ (100018a4 <loop+0x1134>)
10001790:	9802      	ldr	r0, [sp, #8]
10001792:	9600      	str	r6, [sp, #0]
10001794:	f001 fe36 	bl	10003404 <get_ftw>
10001798:	0032      	movs	r2, r6
1000179a:	0021      	movs	r1, r4
1000179c:	002b      	movs	r3, r5
1000179e:	0028      	movs	r0, r5
100017a0:	f001 fe64 	bl	1000346c <send_channel>
100017a4:	465b      	mov	r3, fp
100017a6:	0038      	movs	r0, r7
100017a8:	611c      	str	r4, [r3, #16]
100017aa:	f003 f84d 	bl	10004848 <sleep_ms>
100017ae:	4652      	mov	r2, sl
100017b0:	483d      	ldr	r0, [pc, #244]	@ (100018a8 <loop+0x1138>)
100017b2:	493e      	ldr	r1, [pc, #248]	@ (100018ac <loop+0x113c>)
100017b4:	f001 fe00 	bl	100033b8 <get_asf>
100017b8:	4643      	mov	r3, r8
100017ba:	4652      	mov	r2, sl
100017bc:	0021      	movs	r1, r4
100017be:	4648      	mov	r0, r9
100017c0:	f001 fe54 	bl	1000346c <send_channel>
100017c4:	465b      	mov	r3, fp
100017c6:	2280      	movs	r2, #128	@ 0x80
100017c8:	611c      	str	r4, [r3, #16]
100017ca:	0612      	lsls	r2, r2, #24
100017cc:	4b38      	ldr	r3, [pc, #224]	@ (100018b0 <loop+0x1140>)
100017ce:	9802      	ldr	r0, [sp, #8]
100017d0:	9600      	str	r6, [sp, #0]
100017d2:	f001 fe17 	bl	10003404 <get_ftw>
100017d6:	0032      	movs	r2, r6
100017d8:	0021      	movs	r1, r4
100017da:	002b      	movs	r3, r5
100017dc:	0028      	movs	r0, r5
100017de:	f001 fe45 	bl	1000346c <send_channel>
100017e2:	465b      	mov	r3, fp
100017e4:	0038      	movs	r0, r7
100017e6:	611c      	str	r4, [r3, #16]
100017e8:	f003 f82e 	bl	10004848 <sleep_ms>
100017ec:	2200      	movs	r2, #0
100017ee:	4b32      	ldr	r3, [pc, #200]	@ (100018b8 <loop+0x1148>)
100017f0:	9802      	ldr	r0, [sp, #8]
100017f2:	9600      	str	r6, [sp, #0]
100017f4:	f001 fe06 	bl	10003404 <get_ftw>
100017f8:	0032      	movs	r2, r6
100017fa:	0039      	movs	r1, r7
100017fc:	002b      	movs	r3, r5
100017fe:	0028      	movs	r0, r5
10001800:	f001 fe34 	bl	1000346c <send_channel>
10001804:	465b      	mov	r3, fp
10001806:	0038      	movs	r0, r7
10001808:	611c      	str	r4, [r3, #16]
1000180a:	f003 f81d 	bl	10004848 <sleep_ms>
1000180e:	2200      	movs	r2, #0
10001810:	4b2a      	ldr	r3, [pc, #168]	@ (100018bc <loop+0x114c>)
10001812:	9802      	ldr	r0, [sp, #8]
10001814:	9600      	str	r6, [sp, #0]
10001816:	f001 fdf5 	bl	10003404 <get_ftw>
1000181a:	0032      	movs	r2, r6
1000181c:	0039      	movs	r1, r7
1000181e:	002b      	movs	r3, r5
10001820:	0028      	movs	r0, r5
10001822:	f001 fe23 	bl	1000346c <send_channel>
10001826:	465b      	mov	r3, fp
10001828:	0038      	movs	r0, r7
1000182a:	611c      	str	r4, [r3, #16]
1000182c:	f003 f80c 	bl	10004848 <sleep_ms>
10001830:	2200      	movs	r2, #0
10001832:	4b23      	ldr	r3, [pc, #140]	@ (100018c0 <loop+0x1150>)
10001834:	9802      	ldr	r0, [sp, #8]
10001836:	9600      	str	r6, [sp, #0]
10001838:	f001 fde4 	bl	10003404 <get_ftw>
1000183c:	002b      	movs	r3, r5
1000183e:	0032      	movs	r2, r6
10001840:	0039      	movs	r1, r7
10001842:	0028      	movs	r0, r5
10001844:	f001 fe12 	bl	1000346c <send_channel>
10001848:	465b      	mov	r3, fp
1000184a:	0038      	movs	r0, r7
1000184c:	611c      	str	r4, [r3, #16]
1000184e:	f002 fffb 	bl	10004848 <sleep_ms>
10001852:	9b04      	ldr	r3, [sp, #16]
10001854:	3b01      	subs	r3, #1
10001856:	9304      	str	r3, [sp, #16]
10001858:	42a3      	cmp	r3, r4
1000185a:	d000      	beq.n	1000185e <loop+0x10ee>
1000185c:	e66c      	b.n	10001538 <loop+0xdc8>
1000185e:	f7ff f8b5 	bl	100009cc <loop+0x25c>
10001862:	46c0      	nop			@ (mov r8, r8)
10001864:	3ff00000 	.word	0x3ff00000
10001868:	50200000 	.word	0x50200000
1000186c:	00002711 	.word	0x00002711
10001870:	20001528 	.word	0x20001528
10001874:	41948106 	.word	0x41948106
10001878:	1eb851ec 	.word	0x1eb851ec
1000187c:	3fe5eb85 	.word	0x3fe5eb85
10001880:	41960dc0 	.word	0x41960dc0
10001884:	fbe76c8b 	.word	0xfbe76c8b
10001888:	3fe6f1a9 	.word	0x3fe6f1a9
1000188c:	4197b8ff 	.word	0x4197b8ff
10001890:	db22d0e5 	.word	0xdb22d0e5
10001894:	3fe67ef9 	.word	0x3fe67ef9
10001898:	4199643e 	.word	0x4199643e
1000189c:	c28f5c29 	.word	0xc28f5c29
100018a0:	3fe828f5 	.word	0x3fe828f5
100018a4:	419b0f7d 	.word	0x419b0f7d
100018a8:	83126e98 	.word	0x83126e98
100018ac:	3fe5cac0 	.word	0x3fe5cac0
100018b0:	41946281 	.word	0x41946281
100018b4:	4197d784 	.word	0x4197d784
100018b8:	419b2e02 	.word	0x419b2e02
100018bc:	419982c3 	.word	0x419982c3
100018c0:	4195ef3c 	.word	0x4195ef3c
100018c4:	ab24      	add	r3, sp, #144	@ 0x90
100018c6:	469a      	mov	sl, r3
100018c8:	001a      	movs	r2, r3
100018ca:	2000      	movs	r0, #0
100018cc:	49fd      	ldr	r1, [pc, #1012]	@ (10001cc4 <loop+0x1554>)
100018ce:	f001 fd73 	bl	100033b8 <get_asf>
100018d2:	2303      	movs	r3, #3
100018d4:	4652      	mov	r2, sl
100018d6:	2101      	movs	r1, #1
100018d8:	2006      	movs	r0, #6
100018da:	f001 fdc7 	bl	1000346c <send_channel>
100018de:	4bfa      	ldr	r3, [pc, #1000]	@ (10001cc8 <loop+0x1558>)
100018e0:	2504      	movs	r5, #4
100018e2:	611c      	str	r4, [r3, #16]
100018e4:	4bf9      	ldr	r3, [pc, #996]	@ (10001ccc <loop+0x155c>)
100018e6:	2701      	movs	r7, #1
100018e8:	9304      	str	r3, [sp, #16]
100018ea:	4bf9      	ldr	r3, [pc, #996]	@ (10001cd0 <loop+0x1560>)
100018ec:	9302      	str	r3, [sp, #8]
100018ee:	ab25      	add	r3, sp, #148	@ 0x94
100018f0:	469b      	mov	fp, r3
100018f2:	2303      	movs	r3, #3
100018f4:	4698      	mov	r8, r3
100018f6:	18db      	adds	r3, r3, r3
100018f8:	4699      	mov	r9, r3
100018fa:	465e      	mov	r6, fp
100018fc:	2200      	movs	r2, #0
100018fe:	4bf5      	ldr	r3, [pc, #980]	@ (10001cd4 <loop+0x1564>)
10001900:	9802      	ldr	r0, [sp, #8]
10001902:	9600      	str	r6, [sp, #0]
10001904:	f001 fd7e 	bl	10003404 <get_ftw>
10001908:	002b      	movs	r3, r5
1000190a:	0032      	movs	r2, r6
1000190c:	0039      	movs	r1, r7
1000190e:	0028      	movs	r0, r5
10001910:	2400      	movs	r4, #0
10001912:	f001 fdab 	bl	1000346c <send_channel>
10001916:	4bec      	ldr	r3, [pc, #944]	@ (10001cc8 <loop+0x1558>)
10001918:	4652      	mov	r2, sl
1000191a:	469b      	mov	fp, r3
1000191c:	611c      	str	r4, [r3, #16]
1000191e:	48ee      	ldr	r0, [pc, #952]	@ (10001cd8 <loop+0x1568>)
10001920:	49ee      	ldr	r1, [pc, #952]	@ (10001cdc <loop+0x156c>)
10001922:	f001 fd49 	bl	100033b8 <get_asf>
10001926:	4643      	mov	r3, r8
10001928:	4652      	mov	r2, sl
1000192a:	0021      	movs	r1, r4
1000192c:	4648      	mov	r0, r9
1000192e:	f001 fd9d 	bl	1000346c <send_channel>
10001932:	465b      	mov	r3, fp
10001934:	2280      	movs	r2, #128	@ 0x80
10001936:	611c      	str	r4, [r3, #16]
10001938:	0612      	lsls	r2, r2, #24
1000193a:	4be9      	ldr	r3, [pc, #932]	@ (10001ce0 <loop+0x1570>)
1000193c:	9802      	ldr	r0, [sp, #8]
1000193e:	9600      	str	r6, [sp, #0]
10001940:	f001 fd60 	bl	10003404 <get_ftw>
10001944:	0032      	movs	r2, r6
10001946:	0021      	movs	r1, r4
10001948:	002b      	movs	r3, r5
1000194a:	0028      	movs	r0, r5
1000194c:	f001 fd8e 	bl	1000346c <send_channel>
10001950:	465b      	mov	r3, fp
10001952:	0038      	movs	r0, r7
10001954:	611c      	str	r4, [r3, #16]
10001956:	f002 ff77 	bl	10004848 <sleep_ms>
1000195a:	4652      	mov	r2, sl
1000195c:	48e1      	ldr	r0, [pc, #900]	@ (10001ce4 <loop+0x1574>)
1000195e:	49e2      	ldr	r1, [pc, #904]	@ (10001ce8 <loop+0x1578>)
10001960:	f001 fd2a 	bl	100033b8 <get_asf>
10001964:	4643      	mov	r3, r8
10001966:	4652      	mov	r2, sl
10001968:	0021      	movs	r1, r4
1000196a:	4648      	mov	r0, r9
1000196c:	f001 fd7e 	bl	1000346c <send_channel>
10001970:	465b      	mov	r3, fp
10001972:	2280      	movs	r2, #128	@ 0x80
10001974:	611c      	str	r4, [r3, #16]
10001976:	0612      	lsls	r2, r2, #24
10001978:	4bdc      	ldr	r3, [pc, #880]	@ (10001cec <loop+0x157c>)
1000197a:	9802      	ldr	r0, [sp, #8]
1000197c:	9600      	str	r6, [sp, #0]
1000197e:	f001 fd41 	bl	10003404 <get_ftw>
10001982:	0032      	movs	r2, r6
10001984:	0021      	movs	r1, r4
10001986:	002b      	movs	r3, r5
10001988:	0028      	movs	r0, r5
1000198a:	f001 fd6f 	bl	1000346c <send_channel>
1000198e:	465b      	mov	r3, fp
10001990:	0038      	movs	r0, r7
10001992:	611c      	str	r4, [r3, #16]
10001994:	f002 ff58 	bl	10004848 <sleep_ms>
10001998:	4652      	mov	r2, sl
1000199a:	48d5      	ldr	r0, [pc, #852]	@ (10001cf0 <loop+0x1580>)
1000199c:	49d5      	ldr	r1, [pc, #852]	@ (10001cf4 <loop+0x1584>)
1000199e:	f001 fd0b 	bl	100033b8 <get_asf>
100019a2:	4643      	mov	r3, r8
100019a4:	4652      	mov	r2, sl
100019a6:	0021      	movs	r1, r4
100019a8:	4648      	mov	r0, r9
100019aa:	f001 fd5f 	bl	1000346c <send_channel>
100019ae:	465b      	mov	r3, fp
100019b0:	2280      	movs	r2, #128	@ 0x80
100019b2:	611c      	str	r4, [r3, #16]
100019b4:	0612      	lsls	r2, r2, #24
100019b6:	4bd0      	ldr	r3, [pc, #832]	@ (10001cf8 <loop+0x1588>)
100019b8:	9802      	ldr	r0, [sp, #8]
100019ba:	9600      	str	r6, [sp, #0]
100019bc:	f001 fd22 	bl	10003404 <get_ftw>
100019c0:	0032      	movs	r2, r6
100019c2:	0021      	movs	r1, r4
100019c4:	002b      	movs	r3, r5
100019c6:	0028      	movs	r0, r5
100019c8:	f001 fd50 	bl	1000346c <send_channel>
100019cc:	465b      	mov	r3, fp
100019ce:	0038      	movs	r0, r7
100019d0:	611c      	str	r4, [r3, #16]
100019d2:	f002 ff39 	bl	10004848 <sleep_ms>
100019d6:	4652      	mov	r2, sl
100019d8:	48c8      	ldr	r0, [pc, #800]	@ (10001cfc <loop+0x158c>)
100019da:	49c9      	ldr	r1, [pc, #804]	@ (10001d00 <loop+0x1590>)
100019dc:	f001 fcec 	bl	100033b8 <get_asf>
100019e0:	4643      	mov	r3, r8
100019e2:	4652      	mov	r2, sl
100019e4:	0021      	movs	r1, r4
100019e6:	4648      	mov	r0, r9
100019e8:	f001 fd40 	bl	1000346c <send_channel>
100019ec:	465b      	mov	r3, fp
100019ee:	2280      	movs	r2, #128	@ 0x80
100019f0:	611c      	str	r4, [r3, #16]
100019f2:	0612      	lsls	r2, r2, #24
100019f4:	4bc3      	ldr	r3, [pc, #780]	@ (10001d04 <loop+0x1594>)
100019f6:	9802      	ldr	r0, [sp, #8]
100019f8:	9600      	str	r6, [sp, #0]
100019fa:	f001 fd03 	bl	10003404 <get_ftw>
100019fe:	002b      	movs	r3, r5
10001a00:	0032      	movs	r2, r6
10001a02:	0021      	movs	r1, r4
10001a04:	0028      	movs	r0, r5
10001a06:	f001 fd31 	bl	1000346c <send_channel>
10001a0a:	465b      	mov	r3, fp
10001a0c:	2200      	movs	r2, #0
10001a0e:	611c      	str	r4, [r3, #16]
10001a10:	9802      	ldr	r0, [sp, #8]
10001a12:	4bbd      	ldr	r3, [pc, #756]	@ (10001d08 <loop+0x1598>)
10001a14:	9600      	str	r6, [sp, #0]
10001a16:	f001 fcf5 	bl	10003404 <get_ftw>
10001a1a:	0032      	movs	r2, r6
10001a1c:	0039      	movs	r1, r7
10001a1e:	002b      	movs	r3, r5
10001a20:	0028      	movs	r0, r5
10001a22:	f001 fd23 	bl	1000346c <send_channel>
10001a26:	465b      	mov	r3, fp
10001a28:	0038      	movs	r0, r7
10001a2a:	611c      	str	r4, [r3, #16]
10001a2c:	f002 ff0c 	bl	10004848 <sleep_ms>
10001a30:	2200      	movs	r2, #0
10001a32:	4bb6      	ldr	r3, [pc, #728]	@ (10001d0c <loop+0x159c>)
10001a34:	9802      	ldr	r0, [sp, #8]
10001a36:	9600      	str	r6, [sp, #0]
10001a38:	f001 fce4 	bl	10003404 <get_ftw>
10001a3c:	0032      	movs	r2, r6
10001a3e:	0039      	movs	r1, r7
10001a40:	002b      	movs	r3, r5
10001a42:	0028      	movs	r0, r5
10001a44:	f001 fd12 	bl	1000346c <send_channel>
10001a48:	465b      	mov	r3, fp
10001a4a:	0038      	movs	r0, r7
10001a4c:	611c      	str	r4, [r3, #16]
10001a4e:	f002 fefb 	bl	10004848 <sleep_ms>
10001a52:	2200      	movs	r2, #0
10001a54:	4bae      	ldr	r3, [pc, #696]	@ (10001d10 <loop+0x15a0>)
10001a56:	9802      	ldr	r0, [sp, #8]
10001a58:	9600      	str	r6, [sp, #0]
10001a5a:	f001 fcd3 	bl	10003404 <get_ftw>
10001a5e:	0032      	movs	r2, r6
10001a60:	0039      	movs	r1, r7
10001a62:	002b      	movs	r3, r5
10001a64:	0028      	movs	r0, r5
10001a66:	f001 fd01 	bl	1000346c <send_channel>
10001a6a:	465b      	mov	r3, fp
10001a6c:	0038      	movs	r0, r7
10001a6e:	611c      	str	r4, [r3, #16]
10001a70:	f002 feea 	bl	10004848 <sleep_ms>
10001a74:	4652      	mov	r2, sl
10001a76:	489e      	ldr	r0, [pc, #632]	@ (10001cf0 <loop+0x1580>)
10001a78:	499e      	ldr	r1, [pc, #632]	@ (10001cf4 <loop+0x1584>)
10001a7a:	f001 fc9d 	bl	100033b8 <get_asf>
10001a7e:	4643      	mov	r3, r8
10001a80:	4652      	mov	r2, sl
10001a82:	0021      	movs	r1, r4
10001a84:	4648      	mov	r0, r9
10001a86:	f001 fcf1 	bl	1000346c <send_channel>
10001a8a:	465b      	mov	r3, fp
10001a8c:	2280      	movs	r2, #128	@ 0x80
10001a8e:	611c      	str	r4, [r3, #16]
10001a90:	0612      	lsls	r2, r2, #24
10001a92:	4b99      	ldr	r3, [pc, #612]	@ (10001cf8 <loop+0x1588>)
10001a94:	9802      	ldr	r0, [sp, #8]
10001a96:	9600      	str	r6, [sp, #0]
10001a98:	f001 fcb4 	bl	10003404 <get_ftw>
10001a9c:	002b      	movs	r3, r5
10001a9e:	0032      	movs	r2, r6
10001aa0:	0021      	movs	r1, r4
10001aa2:	0028      	movs	r0, r5
10001aa4:	f001 fce2 	bl	1000346c <send_channel>
10001aa8:	465b      	mov	r3, fp
10001aaa:	2200      	movs	r2, #0
10001aac:	611c      	str	r4, [r3, #16]
10001aae:	9802      	ldr	r0, [sp, #8]
10001ab0:	4b98      	ldr	r3, [pc, #608]	@ (10001d14 <loop+0x15a4>)
10001ab2:	9600      	str	r6, [sp, #0]
10001ab4:	f001 fca6 	bl	10003404 <get_ftw>
10001ab8:	0032      	movs	r2, r6
10001aba:	0039      	movs	r1, r7
10001abc:	002b      	movs	r3, r5
10001abe:	0028      	movs	r0, r5
10001ac0:	f001 fcd4 	bl	1000346c <send_channel>
10001ac4:	465b      	mov	r3, fp
10001ac6:	0038      	movs	r0, r7
10001ac8:	611c      	str	r4, [r3, #16]
10001aca:	f002 febd 	bl	10004848 <sleep_ms>
10001ace:	4652      	mov	r2, sl
10001ad0:	4884      	ldr	r0, [pc, #528]	@ (10001ce4 <loop+0x1574>)
10001ad2:	4985      	ldr	r1, [pc, #532]	@ (10001ce8 <loop+0x1578>)
10001ad4:	f001 fc70 	bl	100033b8 <get_asf>
10001ad8:	4643      	mov	r3, r8
10001ada:	4652      	mov	r2, sl
10001adc:	0021      	movs	r1, r4
10001ade:	4648      	mov	r0, r9
10001ae0:	f001 fcc4 	bl	1000346c <send_channel>
10001ae4:	465b      	mov	r3, fp
10001ae6:	2280      	movs	r2, #128	@ 0x80
10001ae8:	611c      	str	r4, [r3, #16]
10001aea:	0612      	lsls	r2, r2, #24
10001aec:	4b7f      	ldr	r3, [pc, #508]	@ (10001cec <loop+0x157c>)
10001aee:	9802      	ldr	r0, [sp, #8]
10001af0:	9600      	str	r6, [sp, #0]
10001af2:	f001 fc87 	bl	10003404 <get_ftw>
10001af6:	0032      	movs	r2, r6
10001af8:	0021      	movs	r1, r4
10001afa:	002b      	movs	r3, r5
10001afc:	0028      	movs	r0, r5
10001afe:	f001 fcb5 	bl	1000346c <send_channel>
10001b02:	465b      	mov	r3, fp
10001b04:	0038      	movs	r0, r7
10001b06:	611c      	str	r4, [r3, #16]
10001b08:	f002 fe9e 	bl	10004848 <sleep_ms>
10001b0c:	4652      	mov	r2, sl
10001b0e:	4872      	ldr	r0, [pc, #456]	@ (10001cd8 <loop+0x1568>)
10001b10:	4972      	ldr	r1, [pc, #456]	@ (10001cdc <loop+0x156c>)
10001b12:	f001 fc51 	bl	100033b8 <get_asf>
10001b16:	4643      	mov	r3, r8
10001b18:	4652      	mov	r2, sl
10001b1a:	0021      	movs	r1, r4
10001b1c:	4648      	mov	r0, r9
10001b1e:	f001 fca5 	bl	1000346c <send_channel>
10001b22:	465b      	mov	r3, fp
10001b24:	2280      	movs	r2, #128	@ 0x80
10001b26:	611c      	str	r4, [r3, #16]
10001b28:	0612      	lsls	r2, r2, #24
10001b2a:	4b6d      	ldr	r3, [pc, #436]	@ (10001ce0 <loop+0x1570>)
10001b2c:	9802      	ldr	r0, [sp, #8]
10001b2e:	9600      	str	r6, [sp, #0]
10001b30:	f001 fc68 	bl	10003404 <get_ftw>
10001b34:	0032      	movs	r2, r6
10001b36:	0021      	movs	r1, r4
10001b38:	002b      	movs	r3, r5
10001b3a:	0028      	movs	r0, r5
10001b3c:	f001 fc96 	bl	1000346c <send_channel>
10001b40:	465b      	mov	r3, fp
10001b42:	0038      	movs	r0, r7
10001b44:	611c      	str	r4, [r3, #16]
10001b46:	f002 fe7f 	bl	10004848 <sleep_ms>
10001b4a:	4652      	mov	r2, sl
10001b4c:	4872      	ldr	r0, [pc, #456]	@ (10001d18 <loop+0x15a8>)
10001b4e:	4973      	ldr	r1, [pc, #460]	@ (10001d1c <loop+0x15ac>)
10001b50:	f001 fc32 	bl	100033b8 <get_asf>
10001b54:	4643      	mov	r3, r8
10001b56:	4652      	mov	r2, sl
10001b58:	0021      	movs	r1, r4
10001b5a:	4648      	mov	r0, r9
10001b5c:	f001 fc86 	bl	1000346c <send_channel>
10001b60:	465b      	mov	r3, fp
10001b62:	2200      	movs	r2, #0
10001b64:	611c      	str	r4, [r3, #16]
10001b66:	9802      	ldr	r0, [sp, #8]
10001b68:	4b69      	ldr	r3, [pc, #420]	@ (10001d10 <loop+0x15a0>)
10001b6a:	9600      	str	r6, [sp, #0]
10001b6c:	f001 fc4a 	bl	10003404 <get_ftw>
10001b70:	002b      	movs	r3, r5
10001b72:	0032      	movs	r2, r6
10001b74:	0039      	movs	r1, r7
10001b76:	0028      	movs	r0, r5
10001b78:	f001 fc78 	bl	1000346c <send_channel>
10001b7c:	465b      	mov	r3, fp
10001b7e:	2280      	movs	r2, #128	@ 0x80
10001b80:	611c      	str	r4, [r3, #16]
10001b82:	0612      	lsls	r2, r2, #24
10001b84:	4b66      	ldr	r3, [pc, #408]	@ (10001d20 <loop+0x15b0>)
10001b86:	9802      	ldr	r0, [sp, #8]
10001b88:	9600      	str	r6, [sp, #0]
10001b8a:	f001 fc3b 	bl	10003404 <get_ftw>
10001b8e:	0032      	movs	r2, r6
10001b90:	0021      	movs	r1, r4
10001b92:	002b      	movs	r3, r5
10001b94:	0028      	movs	r0, r5
10001b96:	f001 fc69 	bl	1000346c <send_channel>
10001b9a:	465b      	mov	r3, fp
10001b9c:	0038      	movs	r0, r7
10001b9e:	611c      	str	r4, [r3, #16]
10001ba0:	f002 fe52 	bl	10004848 <sleep_ms>
10001ba4:	2200      	movs	r2, #0
10001ba6:	4b59      	ldr	r3, [pc, #356]	@ (10001d0c <loop+0x159c>)
10001ba8:	9802      	ldr	r0, [sp, #8]
10001baa:	9600      	str	r6, [sp, #0]
10001bac:	f001 fc2a 	bl	10003404 <get_ftw>
10001bb0:	0032      	movs	r2, r6
10001bb2:	0039      	movs	r1, r7
10001bb4:	002b      	movs	r3, r5
10001bb6:	0028      	movs	r0, r5
10001bb8:	f001 fc58 	bl	1000346c <send_channel>
10001bbc:	465b      	mov	r3, fp
10001bbe:	0038      	movs	r0, r7
10001bc0:	611c      	str	r4, [r3, #16]
10001bc2:	f002 fe41 	bl	10004848 <sleep_ms>
10001bc6:	2200      	movs	r2, #0
10001bc8:	4b4f      	ldr	r3, [pc, #316]	@ (10001d08 <loop+0x1598>)
10001bca:	9802      	ldr	r0, [sp, #8]
10001bcc:	9600      	str	r6, [sp, #0]
10001bce:	f001 fc19 	bl	10003404 <get_ftw>
10001bd2:	0032      	movs	r2, r6
10001bd4:	0039      	movs	r1, r7
10001bd6:	002b      	movs	r3, r5
10001bd8:	0028      	movs	r0, r5
10001bda:	f001 fc47 	bl	1000346c <send_channel>
10001bde:	465b      	mov	r3, fp
10001be0:	0038      	movs	r0, r7
10001be2:	611c      	str	r4, [r3, #16]
10001be4:	f002 fe30 	bl	10004848 <sleep_ms>
10001be8:	4652      	mov	r2, sl
10001bea:	483b      	ldr	r0, [pc, #236]	@ (10001cd8 <loop+0x1568>)
10001bec:	493b      	ldr	r1, [pc, #236]	@ (10001cdc <loop+0x156c>)
10001bee:	f001 fbe3 	bl	100033b8 <get_asf>
10001bf2:	4643      	mov	r3, r8
10001bf4:	4652      	mov	r2, sl
10001bf6:	0021      	movs	r1, r4
10001bf8:	4648      	mov	r0, r9
10001bfa:	f001 fc37 	bl	1000346c <send_channel>
10001bfe:	465b      	mov	r3, fp
10001c00:	2280      	movs	r2, #128	@ 0x80
10001c02:	611c      	str	r4, [r3, #16]
10001c04:	0612      	lsls	r2, r2, #24
10001c06:	4b36      	ldr	r3, [pc, #216]	@ (10001ce0 <loop+0x1570>)
10001c08:	9802      	ldr	r0, [sp, #8]
10001c0a:	9600      	str	r6, [sp, #0]
10001c0c:	f001 fbfa 	bl	10003404 <get_ftw>
10001c10:	0032      	movs	r2, r6
10001c12:	0021      	movs	r1, r4
10001c14:	002b      	movs	r3, r5
10001c16:	0028      	movs	r0, r5
10001c18:	f001 fc28 	bl	1000346c <send_channel>
10001c1c:	465b      	mov	r3, fp
10001c1e:	0038      	movs	r0, r7
10001c20:	611c      	str	r4, [r3, #16]
10001c22:	f002 fe11 	bl	10004848 <sleep_ms>
10001c26:	4652      	mov	r2, sl
10001c28:	4831      	ldr	r0, [pc, #196]	@ (10001cf0 <loop+0x1580>)
10001c2a:	4932      	ldr	r1, [pc, #200]	@ (10001cf4 <loop+0x1584>)
10001c2c:	f001 fbc4 	bl	100033b8 <get_asf>
10001c30:	4643      	mov	r3, r8
10001c32:	4652      	mov	r2, sl
10001c34:	0021      	movs	r1, r4
10001c36:	4648      	mov	r0, r9
10001c38:	f001 fc18 	bl	1000346c <send_channel>
10001c3c:	465b      	mov	r3, fp
10001c3e:	2280      	movs	r2, #128	@ 0x80
10001c40:	611c      	str	r4, [r3, #16]
10001c42:	0612      	lsls	r2, r2, #24
10001c44:	4b2c      	ldr	r3, [pc, #176]	@ (10001cf8 <loop+0x1588>)
10001c46:	9802      	ldr	r0, [sp, #8]
10001c48:	9600      	str	r6, [sp, #0]
10001c4a:	f001 fbdb 	bl	10003404 <get_ftw>
10001c4e:	0032      	movs	r2, r6
10001c50:	0021      	movs	r1, r4
10001c52:	002b      	movs	r3, r5
10001c54:	0028      	movs	r0, r5
10001c56:	f001 fc09 	bl	1000346c <send_channel>
10001c5a:	465b      	mov	r3, fp
10001c5c:	0038      	movs	r0, r7
10001c5e:	611c      	str	r4, [r3, #16]
10001c60:	f002 fdf2 	bl	10004848 <sleep_ms>
10001c64:	2200      	movs	r2, #0
10001c66:	4b2a      	ldr	r3, [pc, #168]	@ (10001d10 <loop+0x15a0>)
10001c68:	9802      	ldr	r0, [sp, #8]
10001c6a:	9600      	str	r6, [sp, #0]
10001c6c:	f001 fbca 	bl	10003404 <get_ftw>
10001c70:	002b      	movs	r3, r5
10001c72:	0032      	movs	r2, r6
10001c74:	0039      	movs	r1, r7
10001c76:	0028      	movs	r0, r5
10001c78:	f001 fbf8 	bl	1000346c <send_channel>
10001c7c:	465b      	mov	r3, fp
10001c7e:	4652      	mov	r2, sl
10001c80:	611c      	str	r4, [r3, #16]
10001c82:	4815      	ldr	r0, [pc, #84]	@ (10001cd8 <loop+0x1568>)
10001c84:	4915      	ldr	r1, [pc, #84]	@ (10001cdc <loop+0x156c>)
10001c86:	f001 fb97 	bl	100033b8 <get_asf>
10001c8a:	4643      	mov	r3, r8
10001c8c:	4652      	mov	r2, sl
10001c8e:	0021      	movs	r1, r4
10001c90:	4648      	mov	r0, r9
10001c92:	f001 fbeb 	bl	1000346c <send_channel>
10001c96:	465b      	mov	r3, fp
10001c98:	2280      	movs	r2, #128	@ 0x80
10001c9a:	611c      	str	r4, [r3, #16]
10001c9c:	0612      	lsls	r2, r2, #24
10001c9e:	4b10      	ldr	r3, [pc, #64]	@ (10001ce0 <loop+0x1570>)
10001ca0:	9802      	ldr	r0, [sp, #8]
10001ca2:	9600      	str	r6, [sp, #0]
10001ca4:	f001 fbae 	bl	10003404 <get_ftw>
10001ca8:	0032      	movs	r2, r6
10001caa:	0021      	movs	r1, r4
10001cac:	002b      	movs	r3, r5
10001cae:	0028      	movs	r0, r5
10001cb0:	f001 fbdc 	bl	1000346c <send_channel>
10001cb4:	465b      	mov	r3, fp
10001cb6:	0038      	movs	r0, r7
10001cb8:	611c      	str	r4, [r3, #16]
10001cba:	f002 fdc5 	bl	10004848 <sleep_ms>
10001cbe:	4652      	mov	r2, sl
10001cc0:	e030      	b.n	10001d24 <loop+0x15b4>
10001cc2:	46c0      	nop			@ (mov r8, r8)
10001cc4:	3ff00000 	.word	0x3ff00000
10001cc8:	50200000 	.word	0x50200000
10001ccc:	00002711 	.word	0x00002711
10001cd0:	20001528 	.word	0x20001528
10001cd4:	41948106 	.word	0x41948106
10001cd8:	1eb851ec 	.word	0x1eb851ec
10001cdc:	3fe5eb85 	.word	0x3fe5eb85
10001ce0:	41960dc0 	.word	0x41960dc0
10001ce4:	fbe76c8b 	.word	0xfbe76c8b
10001ce8:	3fe6f1a9 	.word	0x3fe6f1a9
10001cec:	4197b8ff 	.word	0x4197b8ff
10001cf0:	db22d0e5 	.word	0xdb22d0e5
10001cf4:	3fe67ef9 	.word	0x3fe67ef9
10001cf8:	4199643e 	.word	0x4199643e
10001cfc:	c28f5c29 	.word	0xc28f5c29
10001d00:	3fe828f5 	.word	0x3fe828f5
10001d04:	419b0f7d 	.word	0x419b0f7d
10001d08:	41962c45 	.word	0x41962c45
10001d0c:	4197d784 	.word	0x4197d784
10001d10:	419982c3 	.word	0x419982c3
10001d14:	419b2e02 	.word	0x419b2e02
10001d18:	83126e98 	.word	0x83126e98
10001d1c:	3fe5cac0 	.word	0x3fe5cac0
10001d20:	41946281 	.word	0x41946281
10001d24:	48f3      	ldr	r0, [pc, #972]	@ (100020f4 <loop+0x1984>)
10001d26:	49f4      	ldr	r1, [pc, #976]	@ (100020f8 <loop+0x1988>)
10001d28:	f001 fb46 	bl	100033b8 <get_asf>
10001d2c:	4643      	mov	r3, r8
10001d2e:	4652      	mov	r2, sl
10001d30:	0021      	movs	r1, r4
10001d32:	4648      	mov	r0, r9
10001d34:	f001 fb9a 	bl	1000346c <send_channel>
10001d38:	465b      	mov	r3, fp
10001d3a:	2280      	movs	r2, #128	@ 0x80
10001d3c:	611c      	str	r4, [r3, #16]
10001d3e:	0612      	lsls	r2, r2, #24
10001d40:	4bee      	ldr	r3, [pc, #952]	@ (100020fc <loop+0x198c>)
10001d42:	9802      	ldr	r0, [sp, #8]
10001d44:	9600      	str	r6, [sp, #0]
10001d46:	f001 fb5d 	bl	10003404 <get_ftw>
10001d4a:	0032      	movs	r2, r6
10001d4c:	0021      	movs	r1, r4
10001d4e:	002b      	movs	r3, r5
10001d50:	0028      	movs	r0, r5
10001d52:	f001 fb8b 	bl	1000346c <send_channel>
10001d56:	465b      	mov	r3, fp
10001d58:	0038      	movs	r0, r7
10001d5a:	611c      	str	r4, [r3, #16]
10001d5c:	f002 fd74 	bl	10004848 <sleep_ms>
10001d60:	4652      	mov	r2, sl
10001d62:	48e7      	ldr	r0, [pc, #924]	@ (10002100 <loop+0x1990>)
10001d64:	49e7      	ldr	r1, [pc, #924]	@ (10002104 <loop+0x1994>)
10001d66:	f001 fb27 	bl	100033b8 <get_asf>
10001d6a:	4643      	mov	r3, r8
10001d6c:	4652      	mov	r2, sl
10001d6e:	0021      	movs	r1, r4
10001d70:	4648      	mov	r0, r9
10001d72:	f001 fb7b 	bl	1000346c <send_channel>
10001d76:	465b      	mov	r3, fp
10001d78:	2280      	movs	r2, #128	@ 0x80
10001d7a:	611c      	str	r4, [r3, #16]
10001d7c:	0612      	lsls	r2, r2, #24
10001d7e:	4be2      	ldr	r3, [pc, #904]	@ (10002108 <loop+0x1998>)
10001d80:	9802      	ldr	r0, [sp, #8]
10001d82:	9600      	str	r6, [sp, #0]
10001d84:	f001 fb3e 	bl	10003404 <get_ftw>
10001d88:	002b      	movs	r3, r5
10001d8a:	0032      	movs	r2, r6
10001d8c:	0021      	movs	r1, r4
10001d8e:	0028      	movs	r0, r5
10001d90:	f001 fb6c 	bl	1000346c <send_channel>
10001d94:	465b      	mov	r3, fp
10001d96:	0038      	movs	r0, r7
10001d98:	611c      	str	r4, [r3, #16]
10001d9a:	f002 fd55 	bl	10004848 <sleep_ms>
10001d9e:	9b04      	ldr	r3, [sp, #16]
10001da0:	3b01      	subs	r3, #1
10001da2:	9304      	str	r3, [sp, #16]
10001da4:	42a3      	cmp	r3, r4
10001da6:	d000      	beq.n	10001daa <loop+0x163a>
10001da8:	e5a8      	b.n	100018fc <loop+0x118c>
10001daa:	f7fe fe0f 	bl	100009cc <loop+0x25c>
10001dae:	ab24      	add	r3, sp, #144	@ 0x90
10001db0:	469a      	mov	sl, r3
10001db2:	001a      	movs	r2, r3
10001db4:	2000      	movs	r0, #0
10001db6:	49d5      	ldr	r1, [pc, #852]	@ (1000210c <loop+0x199c>)
10001db8:	f001 fafe 	bl	100033b8 <get_asf>
10001dbc:	2303      	movs	r3, #3
10001dbe:	4652      	mov	r2, sl
10001dc0:	2101      	movs	r1, #1
10001dc2:	2006      	movs	r0, #6
10001dc4:	f001 fb52 	bl	1000346c <send_channel>
10001dc8:	4bd1      	ldr	r3, [pc, #836]	@ (10002110 <loop+0x19a0>)
10001dca:	2404      	movs	r4, #4
10001dcc:	611d      	str	r5, [r3, #16]
10001dce:	4bd1      	ldr	r3, [pc, #836]	@ (10002114 <loop+0x19a4>)
10001dd0:	2701      	movs	r7, #1
10001dd2:	9304      	str	r3, [sp, #16]
10001dd4:	4bd0      	ldr	r3, [pc, #832]	@ (10002118 <loop+0x19a8>)
10001dd6:	9302      	str	r3, [sp, #8]
10001dd8:	ab25      	add	r3, sp, #148	@ 0x94
10001dda:	469b      	mov	fp, r3
10001ddc:	2303      	movs	r3, #3
10001dde:	4698      	mov	r8, r3
10001de0:	18db      	adds	r3, r3, r3
10001de2:	465e      	mov	r6, fp
10001de4:	4699      	mov	r9, r3
10001de6:	46ab      	mov	fp, r5
10001de8:	4652      	mov	r2, sl
10001dea:	48c2      	ldr	r0, [pc, #776]	@ (100020f4 <loop+0x1984>)
10001dec:	49c2      	ldr	r1, [pc, #776]	@ (100020f8 <loop+0x1988>)
10001dee:	f001 fae3 	bl	100033b8 <get_asf>
10001df2:	4643      	mov	r3, r8
10001df4:	4652      	mov	r2, sl
10001df6:	2100      	movs	r1, #0
10001df8:	4648      	mov	r0, r9
10001dfa:	f001 fb37 	bl	1000346c <send_channel>
10001dfe:	465b      	mov	r3, fp
10001e00:	2280      	movs	r2, #128	@ 0x80
10001e02:	4dc3      	ldr	r5, [pc, #780]	@ (10002110 <loop+0x19a0>)
10001e04:	0612      	lsls	r2, r2, #24
10001e06:	612b      	str	r3, [r5, #16]
10001e08:	9802      	ldr	r0, [sp, #8]
10001e0a:	4bbc      	ldr	r3, [pc, #752]	@ (100020fc <loop+0x198c>)
10001e0c:	9600      	str	r6, [sp, #0]
10001e0e:	f001 faf9 	bl	10003404 <get_ftw>
10001e12:	0023      	movs	r3, r4
10001e14:	0032      	movs	r2, r6
10001e16:	2100      	movs	r1, #0
10001e18:	0020      	movs	r0, r4
10001e1a:	f001 fb27 	bl	1000346c <send_channel>
10001e1e:	465b      	mov	r3, fp
10001e20:	2200      	movs	r2, #0
10001e22:	612b      	str	r3, [r5, #16]
10001e24:	9802      	ldr	r0, [sp, #8]
10001e26:	4bbd      	ldr	r3, [pc, #756]	@ (1000211c <loop+0x19ac>)
10001e28:	9600      	str	r6, [sp, #0]
10001e2a:	f001 faeb 	bl	10003404 <get_ftw>
10001e2e:	0032      	movs	r2, r6
10001e30:	0039      	movs	r1, r7
10001e32:	0023      	movs	r3, r4
10001e34:	0020      	movs	r0, r4
10001e36:	f001 fb19 	bl	1000346c <send_channel>
10001e3a:	465b      	mov	r3, fp
10001e3c:	0038      	movs	r0, r7
10001e3e:	612b      	str	r3, [r5, #16]
10001e40:	f002 fd02 	bl	10004848 <sleep_ms>
10001e44:	2200      	movs	r2, #0
10001e46:	4bb6      	ldr	r3, [pc, #728]	@ (10002120 <loop+0x19b0>)
10001e48:	9802      	ldr	r0, [sp, #8]
10001e4a:	9600      	str	r6, [sp, #0]
10001e4c:	f001 fada 	bl	10003404 <get_ftw>
10001e50:	0023      	movs	r3, r4
10001e52:	0032      	movs	r2, r6
10001e54:	0039      	movs	r1, r7
10001e56:	0020      	movs	r0, r4
10001e58:	f001 fb08 	bl	1000346c <send_channel>
10001e5c:	465b      	mov	r3, fp
10001e5e:	2280      	movs	r2, #128	@ 0x80
10001e60:	612b      	str	r3, [r5, #16]
10001e62:	0612      	lsls	r2, r2, #24
10001e64:	4baf      	ldr	r3, [pc, #700]	@ (10002124 <loop+0x19b4>)
10001e66:	9802      	ldr	r0, [sp, #8]
10001e68:	9600      	str	r6, [sp, #0]
10001e6a:	f001 facb 	bl	10003404 <get_ftw>
10001e6e:	0023      	movs	r3, r4
10001e70:	0032      	movs	r2, r6
10001e72:	2100      	movs	r1, #0
10001e74:	0020      	movs	r0, r4
10001e76:	f001 faf9 	bl	1000346c <send_channel>
10001e7a:	465b      	mov	r3, fp
10001e7c:	4652      	mov	r2, sl
10001e7e:	612b      	str	r3, [r5, #16]
10001e80:	48a9      	ldr	r0, [pc, #676]	@ (10002128 <loop+0x19b8>)
10001e82:	49aa      	ldr	r1, [pc, #680]	@ (1000212c <loop+0x19bc>)
10001e84:	f001 fa98 	bl	100033b8 <get_asf>
10001e88:	4652      	mov	r2, sl
10001e8a:	2100      	movs	r1, #0
10001e8c:	4643      	mov	r3, r8
10001e8e:	4648      	mov	r0, r9
10001e90:	f001 faec 	bl	1000346c <send_channel>
10001e94:	465b      	mov	r3, fp
10001e96:	0038      	movs	r0, r7
10001e98:	612b      	str	r3, [r5, #16]
10001e9a:	f002 fcd5 	bl	10004848 <sleep_ms>
10001e9e:	2280      	movs	r2, #128	@ 0x80
10001ea0:	4b99      	ldr	r3, [pc, #612]	@ (10002108 <loop+0x1998>)
10001ea2:	0612      	lsls	r2, r2, #24
10001ea4:	9802      	ldr	r0, [sp, #8]
10001ea6:	9600      	str	r6, [sp, #0]
10001ea8:	f001 faac 	bl	10003404 <get_ftw>
10001eac:	0023      	movs	r3, r4
10001eae:	0032      	movs	r2, r6
10001eb0:	2100      	movs	r1, #0
10001eb2:	0020      	movs	r0, r4
10001eb4:	f001 fada 	bl	1000346c <send_channel>
10001eb8:	465b      	mov	r3, fp
10001eba:	4652      	mov	r2, sl
10001ebc:	612b      	str	r3, [r5, #16]
10001ebe:	4890      	ldr	r0, [pc, #576]	@ (10002100 <loop+0x1990>)
10001ec0:	4990      	ldr	r1, [pc, #576]	@ (10002104 <loop+0x1994>)
10001ec2:	f001 fa79 	bl	100033b8 <get_asf>
10001ec6:	4652      	mov	r2, sl
10001ec8:	2100      	movs	r1, #0
10001eca:	4643      	mov	r3, r8
10001ecc:	4648      	mov	r0, r9
10001ece:	f001 facd 	bl	1000346c <send_channel>
10001ed2:	465b      	mov	r3, fp
10001ed4:	0038      	movs	r0, r7
10001ed6:	612b      	str	r3, [r5, #16]
10001ed8:	f002 fcb6 	bl	10004848 <sleep_ms>
10001edc:	2200      	movs	r2, #0
10001ede:	4b94      	ldr	r3, [pc, #592]	@ (10002130 <loop+0x19c0>)
10001ee0:	9802      	ldr	r0, [sp, #8]
10001ee2:	9600      	str	r6, [sp, #0]
10001ee4:	f001 fa8e 	bl	10003404 <get_ftw>
10001ee8:	0023      	movs	r3, r4
10001eea:	0032      	movs	r2, r6
10001eec:	0039      	movs	r1, r7
10001eee:	0020      	movs	r0, r4
10001ef0:	f001 fabc 	bl	1000346c <send_channel>
10001ef4:	465b      	mov	r3, fp
10001ef6:	2280      	movs	r2, #128	@ 0x80
10001ef8:	612b      	str	r3, [r5, #16]
10001efa:	0612      	lsls	r2, r2, #24
10001efc:	4b8d      	ldr	r3, [pc, #564]	@ (10002134 <loop+0x19c4>)
10001efe:	9802      	ldr	r0, [sp, #8]
10001f00:	9600      	str	r6, [sp, #0]
10001f02:	f001 fa7f 	bl	10003404 <get_ftw>
10001f06:	0023      	movs	r3, r4
10001f08:	0032      	movs	r2, r6
10001f0a:	2100      	movs	r1, #0
10001f0c:	0020      	movs	r0, r4
10001f0e:	f001 faad 	bl	1000346c <send_channel>
10001f12:	465b      	mov	r3, fp
10001f14:	4652      	mov	r2, sl
10001f16:	612b      	str	r3, [r5, #16]
10001f18:	4887      	ldr	r0, [pc, #540]	@ (10002138 <loop+0x19c8>)
10001f1a:	4988      	ldr	r1, [pc, #544]	@ (1000213c <loop+0x19cc>)
10001f1c:	f001 fa4c 	bl	100033b8 <get_asf>
10001f20:	4652      	mov	r2, sl
10001f22:	2100      	movs	r1, #0
10001f24:	4643      	mov	r3, r8
10001f26:	4648      	mov	r0, r9
10001f28:	f001 faa0 	bl	1000346c <send_channel>
10001f2c:	465b      	mov	r3, fp
10001f2e:	0038      	movs	r0, r7
10001f30:	612b      	str	r3, [r5, #16]
10001f32:	f002 fc89 	bl	10004848 <sleep_ms>
10001f36:	2280      	movs	r2, #128	@ 0x80
10001f38:	4b81      	ldr	r3, [pc, #516]	@ (10002140 <loop+0x19d0>)
10001f3a:	0612      	lsls	r2, r2, #24
10001f3c:	9802      	ldr	r0, [sp, #8]
10001f3e:	9600      	str	r6, [sp, #0]
10001f40:	f001 fa60 	bl	10003404 <get_ftw>
10001f44:	0023      	movs	r3, r4
10001f46:	0032      	movs	r2, r6
10001f48:	2100      	movs	r1, #0
10001f4a:	0020      	movs	r0, r4
10001f4c:	f001 fa8e 	bl	1000346c <send_channel>
10001f50:	465b      	mov	r3, fp
10001f52:	4652      	mov	r2, sl
10001f54:	612b      	str	r3, [r5, #16]
10001f56:	487b      	ldr	r0, [pc, #492]	@ (10002144 <loop+0x19d4>)
10001f58:	497b      	ldr	r1, [pc, #492]	@ (10002148 <loop+0x19d8>)
10001f5a:	f001 fa2d 	bl	100033b8 <get_asf>
10001f5e:	4652      	mov	r2, sl
10001f60:	2100      	movs	r1, #0
10001f62:	4643      	mov	r3, r8
10001f64:	4648      	mov	r0, r9
10001f66:	f001 fa81 	bl	1000346c <send_channel>
10001f6a:	465b      	mov	r3, fp
10001f6c:	0038      	movs	r0, r7
10001f6e:	612b      	str	r3, [r5, #16]
10001f70:	f002 fc6a 	bl	10004848 <sleep_ms>
10001f74:	2200      	movs	r2, #0
10001f76:	4b75      	ldr	r3, [pc, #468]	@ (1000214c <loop+0x19dc>)
10001f78:	9802      	ldr	r0, [sp, #8]
10001f7a:	9600      	str	r6, [sp, #0]
10001f7c:	f001 fa42 	bl	10003404 <get_ftw>
10001f80:	0023      	movs	r3, r4
10001f82:	0032      	movs	r2, r6
10001f84:	0039      	movs	r1, r7
10001f86:	0020      	movs	r0, r4
10001f88:	f001 fa70 	bl	1000346c <send_channel>
10001f8c:	465b      	mov	r3, fp
10001f8e:	2280      	movs	r2, #128	@ 0x80
10001f90:	612b      	str	r3, [r5, #16]
10001f92:	0612      	lsls	r2, r2, #24
10001f94:	4b67      	ldr	r3, [pc, #412]	@ (10002134 <loop+0x19c4>)
10001f96:	9802      	ldr	r0, [sp, #8]
10001f98:	9600      	str	r6, [sp, #0]
10001f9a:	f001 fa33 	bl	10003404 <get_ftw>
10001f9e:	0023      	movs	r3, r4
10001fa0:	0032      	movs	r2, r6
10001fa2:	2100      	movs	r1, #0
10001fa4:	0020      	movs	r0, r4
10001fa6:	f001 fa61 	bl	1000346c <send_channel>
10001faa:	465b      	mov	r3, fp
10001fac:	4652      	mov	r2, sl
10001fae:	612b      	str	r3, [r5, #16]
10001fb0:	4861      	ldr	r0, [pc, #388]	@ (10002138 <loop+0x19c8>)
10001fb2:	4962      	ldr	r1, [pc, #392]	@ (1000213c <loop+0x19cc>)
10001fb4:	f001 fa00 	bl	100033b8 <get_asf>
10001fb8:	4652      	mov	r2, sl
10001fba:	2100      	movs	r1, #0
10001fbc:	4643      	mov	r3, r8
10001fbe:	4648      	mov	r0, r9
10001fc0:	f001 fa54 	bl	1000346c <send_channel>
10001fc4:	465b      	mov	r3, fp
10001fc6:	0038      	movs	r0, r7
10001fc8:	612b      	str	r3, [r5, #16]
10001fca:	f002 fc3d 	bl	10004848 <sleep_ms>
10001fce:	2280      	movs	r2, #128	@ 0x80
10001fd0:	4b4a      	ldr	r3, [pc, #296]	@ (100020fc <loop+0x198c>)
10001fd2:	0612      	lsls	r2, r2, #24
10001fd4:	9802      	ldr	r0, [sp, #8]
10001fd6:	9600      	str	r6, [sp, #0]
10001fd8:	f001 fa14 	bl	10003404 <get_ftw>
10001fdc:	0023      	movs	r3, r4
10001fde:	0032      	movs	r2, r6
10001fe0:	2100      	movs	r1, #0
10001fe2:	0020      	movs	r0, r4
10001fe4:	f001 fa42 	bl	1000346c <send_channel>
10001fe8:	465b      	mov	r3, fp
10001fea:	4652      	mov	r2, sl
10001fec:	612b      	str	r3, [r5, #16]
10001fee:	4841      	ldr	r0, [pc, #260]	@ (100020f4 <loop+0x1984>)
10001ff0:	4941      	ldr	r1, [pc, #260]	@ (100020f8 <loop+0x1988>)
10001ff2:	f001 f9e1 	bl	100033b8 <get_asf>
10001ff6:	4652      	mov	r2, sl
10001ff8:	2100      	movs	r1, #0
10001ffa:	4643      	mov	r3, r8
10001ffc:	4648      	mov	r0, r9
10001ffe:	f001 fa35 	bl	1000346c <send_channel>
10002002:	465b      	mov	r3, fp
10002004:	0038      	movs	r0, r7
10002006:	612b      	str	r3, [r5, #16]
10002008:	f002 fc1e 	bl	10004848 <sleep_ms>
1000200c:	2280      	movs	r2, #128	@ 0x80
1000200e:	4b4c      	ldr	r3, [pc, #304]	@ (10002140 <loop+0x19d0>)
10002010:	0612      	lsls	r2, r2, #24
10002012:	9802      	ldr	r0, [sp, #8]
10002014:	9600      	str	r6, [sp, #0]
10002016:	f001 f9f5 	bl	10003404 <get_ftw>
1000201a:	0023      	movs	r3, r4
1000201c:	0032      	movs	r2, r6
1000201e:	2100      	movs	r1, #0
10002020:	0020      	movs	r0, r4
10002022:	f001 fa23 	bl	1000346c <send_channel>
10002026:	465b      	mov	r3, fp
10002028:	4652      	mov	r2, sl
1000202a:	612b      	str	r3, [r5, #16]
1000202c:	4845      	ldr	r0, [pc, #276]	@ (10002144 <loop+0x19d4>)
1000202e:	4946      	ldr	r1, [pc, #280]	@ (10002148 <loop+0x19d8>)
10002030:	f001 f9c2 	bl	100033b8 <get_asf>
10002034:	4652      	mov	r2, sl
10002036:	2100      	movs	r1, #0
10002038:	4643      	mov	r3, r8
1000203a:	4648      	mov	r0, r9
1000203c:	f001 fa16 	bl	1000346c <send_channel>
10002040:	465b      	mov	r3, fp
10002042:	0038      	movs	r0, r7
10002044:	612b      	str	r3, [r5, #16]
10002046:	f002 fbff 	bl	10004848 <sleep_ms>
1000204a:	2200      	movs	r2, #0
1000204c:	4b40      	ldr	r3, [pc, #256]	@ (10002150 <loop+0x19e0>)
1000204e:	9802      	ldr	r0, [sp, #8]
10002050:	9600      	str	r6, [sp, #0]
10002052:	f001 f9d7 	bl	10003404 <get_ftw>
10002056:	0023      	movs	r3, r4
10002058:	0032      	movs	r2, r6
1000205a:	0039      	movs	r1, r7
1000205c:	0020      	movs	r0, r4
1000205e:	f001 fa05 	bl	1000346c <send_channel>
10002062:	465b      	mov	r3, fp
10002064:	2280      	movs	r2, #128	@ 0x80
10002066:	612b      	str	r3, [r5, #16]
10002068:	0612      	lsls	r2, r2, #24
1000206a:	4b2e      	ldr	r3, [pc, #184]	@ (10002124 <loop+0x19b4>)
1000206c:	9802      	ldr	r0, [sp, #8]
1000206e:	9600      	str	r6, [sp, #0]
10002070:	f001 f9c8 	bl	10003404 <get_ftw>
10002074:	0023      	movs	r3, r4
10002076:	0032      	movs	r2, r6
10002078:	2100      	movs	r1, #0
1000207a:	0020      	movs	r0, r4
1000207c:	f001 f9f6 	bl	1000346c <send_channel>
10002080:	465b      	mov	r3, fp
10002082:	4652      	mov	r2, sl
10002084:	612b      	str	r3, [r5, #16]
10002086:	4828      	ldr	r0, [pc, #160]	@ (10002128 <loop+0x19b8>)
10002088:	4928      	ldr	r1, [pc, #160]	@ (1000212c <loop+0x19bc>)
1000208a:	f001 f995 	bl	100033b8 <get_asf>
1000208e:	4652      	mov	r2, sl
10002090:	2100      	movs	r1, #0
10002092:	4643      	mov	r3, r8
10002094:	4648      	mov	r0, r9
10002096:	f001 f9e9 	bl	1000346c <send_channel>
1000209a:	465b      	mov	r3, fp
1000209c:	0038      	movs	r0, r7
1000209e:	612b      	str	r3, [r5, #16]
100020a0:	f002 fbd2 	bl	10004848 <sleep_ms>
100020a4:	2280      	movs	r2, #128	@ 0x80
100020a6:	4b18      	ldr	r3, [pc, #96]	@ (10002108 <loop+0x1998>)
100020a8:	0612      	lsls	r2, r2, #24
100020aa:	9802      	ldr	r0, [sp, #8]
100020ac:	9600      	str	r6, [sp, #0]
100020ae:	f001 f9a9 	bl	10003404 <get_ftw>
100020b2:	0023      	movs	r3, r4
100020b4:	0032      	movs	r2, r6
100020b6:	2100      	movs	r1, #0
100020b8:	0020      	movs	r0, r4
100020ba:	f001 f9d7 	bl	1000346c <send_channel>
100020be:	465b      	mov	r3, fp
100020c0:	4652      	mov	r2, sl
100020c2:	612b      	str	r3, [r5, #16]
100020c4:	480e      	ldr	r0, [pc, #56]	@ (10002100 <loop+0x1990>)
100020c6:	490f      	ldr	r1, [pc, #60]	@ (10002104 <loop+0x1994>)
100020c8:	f001 f976 	bl	100033b8 <get_asf>
100020cc:	4643      	mov	r3, r8
100020ce:	4652      	mov	r2, sl
100020d0:	2100      	movs	r1, #0
100020d2:	4648      	mov	r0, r9
100020d4:	f001 f9ca 	bl	1000346c <send_channel>
100020d8:	465b      	mov	r3, fp
100020da:	0038      	movs	r0, r7
100020dc:	612b      	str	r3, [r5, #16]
100020de:	f002 fbb3 	bl	10004848 <sleep_ms>
100020e2:	9b04      	ldr	r3, [sp, #16]
100020e4:	3b01      	subs	r3, #1
100020e6:	9304      	str	r3, [sp, #16]
100020e8:	2b00      	cmp	r3, #0
100020ea:	d000      	beq.n	100020ee <loop+0x197e>
100020ec:	e67c      	b.n	10001de8 <loop+0x1678>
100020ee:	f7fe fc6d 	bl	100009cc <loop+0x25c>
100020f2:	46c0      	nop			@ (mov r8, r8)
100020f4:	fbe76c8b 	.word	0xfbe76c8b
100020f8:	3fe6f1a9 	.word	0x3fe6f1a9
100020fc:	4197b8ff 	.word	0x4197b8ff
10002100:	db22d0e5 	.word	0xdb22d0e5
10002104:	3fe67ef9 	.word	0x3fe67ef9
10002108:	4199643e 	.word	0x4199643e
1000210c:	3ff00000 	.word	0x3ff00000
10002110:	50200000 	.word	0x50200000
10002114:	00002711 	.word	0x00002711
10002118:	20001528 	.word	0x20001528
1000211c:	419b2e02 	.word	0x419b2e02
10002120:	419982c3 	.word	0x419982c3
10002124:	41960dc0 	.word	0x41960dc0
10002128:	1eb851ec 	.word	0x1eb851ec
1000212c:	3fe5eb85 	.word	0x3fe5eb85
10002130:	4197d784 	.word	0x4197d784
10002134:	41946281 	.word	0x41946281
10002138:	83126e98 	.word	0x83126e98
1000213c:	3fe5cac0 	.word	0x3fe5cac0
10002140:	419b0f7d 	.word	0x419b0f7d
10002144:	c28f5c29 	.word	0xc28f5c29
10002148:	3fe828f5 	.word	0x3fe828f5
1000214c:	41962c45 	.word	0x41962c45
10002150:	41948106 	.word	0x41948106
10002154:	ab24      	add	r3, sp, #144	@ 0x90
10002156:	469a      	mov	sl, r3
10002158:	001a      	movs	r2, r3
1000215a:	2000      	movs	r0, #0
1000215c:	498a      	ldr	r1, [pc, #552]	@ (10002388 <loop+0x1c18>)
1000215e:	f001 f92b 	bl	100033b8 <get_asf>
10002162:	2303      	movs	r3, #3
10002164:	4652      	mov	r2, sl
10002166:	2101      	movs	r1, #1
10002168:	2006      	movs	r0, #6
1000216a:	f001 f97f 	bl	1000346c <send_channel>
1000216e:	4b87      	ldr	r3, [pc, #540]	@ (1000238c <loop+0x1c1c>)
10002170:	4e87      	ldr	r6, [pc, #540]	@ (10002390 <loop+0x1c20>)
10002172:	611c      	str	r4, [r3, #16]
10002174:	4b87      	ldr	r3, [pc, #540]	@ (10002394 <loop+0x1c24>)
10002176:	aa25      	add	r2, sp, #148	@ 0x94
10002178:	46b1      	mov	r9, r6
1000217a:	0014      	movs	r4, r2
1000217c:	4656      	mov	r6, sl
1000217e:	4698      	mov	r8, r3
10002180:	0032      	movs	r2, r6
10002182:	4885      	ldr	r0, [pc, #532]	@ (10002398 <loop+0x1c28>)
10002184:	4985      	ldr	r1, [pc, #532]	@ (1000239c <loop+0x1c2c>)
10002186:	f001 f917 	bl	100033b8 <get_asf>
1000218a:	2303      	movs	r3, #3
1000218c:	0032      	movs	r2, r6
1000218e:	2100      	movs	r1, #0
10002190:	2006      	movs	r0, #6
10002192:	2700      	movs	r7, #0
10002194:	f001 f96a 	bl	1000346c <send_channel>
10002198:	2280      	movs	r2, #128	@ 0x80
1000219a:	4d7c      	ldr	r5, [pc, #496]	@ (1000238c <loop+0x1c1c>)
1000219c:	4b80      	ldr	r3, [pc, #512]	@ (100023a0 <loop+0x1c30>)
1000219e:	612f      	str	r7, [r5, #16]
100021a0:	0612      	lsls	r2, r2, #24
100021a2:	4640      	mov	r0, r8
100021a4:	9400      	str	r4, [sp, #0]
100021a6:	f001 f92d 	bl	10003404 <get_ftw>
100021aa:	2304      	movs	r3, #4
100021ac:	0022      	movs	r2, r4
100021ae:	2100      	movs	r1, #0
100021b0:	2004      	movs	r0, #4
100021b2:	f001 f95b 	bl	1000346c <send_channel>
100021b6:	2200      	movs	r2, #0
100021b8:	4b7a      	ldr	r3, [pc, #488]	@ (100023a4 <loop+0x1c34>)
100021ba:	612f      	str	r7, [r5, #16]
100021bc:	4640      	mov	r0, r8
100021be:	9400      	str	r4, [sp, #0]
100021c0:	f001 f920 	bl	10003404 <get_ftw>
100021c4:	2304      	movs	r3, #4
100021c6:	0022      	movs	r2, r4
100021c8:	2101      	movs	r1, #1
100021ca:	2004      	movs	r0, #4
100021cc:	f001 f94e 	bl	1000346c <send_channel>
100021d0:	2001      	movs	r0, #1
100021d2:	612f      	str	r7, [r5, #16]
100021d4:	f002 fb38 	bl	10004848 <sleep_ms>
100021d8:	0032      	movs	r2, r6
100021da:	4873      	ldr	r0, [pc, #460]	@ (100023a8 <loop+0x1c38>)
100021dc:	4973      	ldr	r1, [pc, #460]	@ (100023ac <loop+0x1c3c>)
100021de:	f001 f8eb 	bl	100033b8 <get_asf>
100021e2:	2303      	movs	r3, #3
100021e4:	0032      	movs	r2, r6
100021e6:	2100      	movs	r1, #0
100021e8:	2006      	movs	r0, #6
100021ea:	f001 f93f 	bl	1000346c <send_channel>
100021ee:	2280      	movs	r2, #128	@ 0x80
100021f0:	4b6f      	ldr	r3, [pc, #444]	@ (100023b0 <loop+0x1c40>)
100021f2:	612f      	str	r7, [r5, #16]
100021f4:	0612      	lsls	r2, r2, #24
100021f6:	4640      	mov	r0, r8
100021f8:	9400      	str	r4, [sp, #0]
100021fa:	f001 f903 	bl	10003404 <get_ftw>
100021fe:	2304      	movs	r3, #4
10002200:	0022      	movs	r2, r4
10002202:	2100      	movs	r1, #0
10002204:	2004      	movs	r0, #4
10002206:	f001 f931 	bl	1000346c <send_channel>
1000220a:	2001      	movs	r0, #1
1000220c:	612f      	str	r7, [r5, #16]
1000220e:	f002 fb1b 	bl	10004848 <sleep_ms>
10002212:	0032      	movs	r2, r6
10002214:	4867      	ldr	r0, [pc, #412]	@ (100023b4 <loop+0x1c44>)
10002216:	4968      	ldr	r1, [pc, #416]	@ (100023b8 <loop+0x1c48>)
10002218:	f001 f8ce 	bl	100033b8 <get_asf>
1000221c:	2303      	movs	r3, #3
1000221e:	0032      	movs	r2, r6
10002220:	2100      	movs	r1, #0
10002222:	2006      	movs	r0, #6
10002224:	f001 f922 	bl	1000346c <send_channel>
10002228:	2280      	movs	r2, #128	@ 0x80
1000222a:	4b64      	ldr	r3, [pc, #400]	@ (100023bc <loop+0x1c4c>)
1000222c:	612f      	str	r7, [r5, #16]
1000222e:	0612      	lsls	r2, r2, #24
10002230:	4640      	mov	r0, r8
10002232:	9400      	str	r4, [sp, #0]
10002234:	f001 f8e6 	bl	10003404 <get_ftw>
10002238:	2304      	movs	r3, #4
1000223a:	0022      	movs	r2, r4
1000223c:	2100      	movs	r1, #0
1000223e:	2004      	movs	r0, #4
10002240:	f001 f914 	bl	1000346c <send_channel>
10002244:	2001      	movs	r0, #1
10002246:	612f      	str	r7, [r5, #16]
10002248:	f002 fafe 	bl	10004848 <sleep_ms>
1000224c:	0032      	movs	r2, r6
1000224e:	485c      	ldr	r0, [pc, #368]	@ (100023c0 <loop+0x1c50>)
10002250:	495c      	ldr	r1, [pc, #368]	@ (100023c4 <loop+0x1c54>)
10002252:	f001 f8b1 	bl	100033b8 <get_asf>
10002256:	2303      	movs	r3, #3
10002258:	0032      	movs	r2, r6
1000225a:	2100      	movs	r1, #0
1000225c:	2006      	movs	r0, #6
1000225e:	f001 f905 	bl	1000346c <send_channel>
10002262:	2280      	movs	r2, #128	@ 0x80
10002264:	4b58      	ldr	r3, [pc, #352]	@ (100023c8 <loop+0x1c58>)
10002266:	612f      	str	r7, [r5, #16]
10002268:	0612      	lsls	r2, r2, #24
1000226a:	4640      	mov	r0, r8
1000226c:	9400      	str	r4, [sp, #0]
1000226e:	f001 f8c9 	bl	10003404 <get_ftw>
10002272:	2304      	movs	r3, #4
10002274:	0022      	movs	r2, r4
10002276:	2100      	movs	r1, #0
10002278:	2004      	movs	r0, #4
1000227a:	f001 f8f7 	bl	1000346c <send_channel>
1000227e:	2001      	movs	r0, #1
10002280:	612f      	str	r7, [r5, #16]
10002282:	f002 fae1 	bl	10004848 <sleep_ms>
10002286:	2280      	movs	r2, #128	@ 0x80
10002288:	4b50      	ldr	r3, [pc, #320]	@ (100023cc <loop+0x1c5c>)
1000228a:	0612      	lsls	r2, r2, #24
1000228c:	4640      	mov	r0, r8
1000228e:	9400      	str	r4, [sp, #0]
10002290:	f001 f8b8 	bl	10003404 <get_ftw>
10002294:	2304      	movs	r3, #4
10002296:	0022      	movs	r2, r4
10002298:	2100      	movs	r1, #0
1000229a:	2004      	movs	r0, #4
1000229c:	f001 f8e6 	bl	1000346c <send_channel>
100022a0:	0032      	movs	r2, r6
100022a2:	484b      	ldr	r0, [pc, #300]	@ (100023d0 <loop+0x1c60>)
100022a4:	494b      	ldr	r1, [pc, #300]	@ (100023d4 <loop+0x1c64>)
100022a6:	612f      	str	r7, [r5, #16]
100022a8:	f001 f886 	bl	100033b8 <get_asf>
100022ac:	2303      	movs	r3, #3
100022ae:	0032      	movs	r2, r6
100022b0:	2100      	movs	r1, #0
100022b2:	2006      	movs	r0, #6
100022b4:	f001 f8da 	bl	1000346c <send_channel>
100022b8:	2001      	movs	r0, #1
100022ba:	612f      	str	r7, [r5, #16]
100022bc:	f002 fac4 	bl	10004848 <sleep_ms>
100022c0:	0032      	movs	r2, r6
100022c2:	483c      	ldr	r0, [pc, #240]	@ (100023b4 <loop+0x1c44>)
100022c4:	493c      	ldr	r1, [pc, #240]	@ (100023b8 <loop+0x1c48>)
100022c6:	f001 f877 	bl	100033b8 <get_asf>
100022ca:	2303      	movs	r3, #3
100022cc:	0032      	movs	r2, r6
100022ce:	2100      	movs	r1, #0
100022d0:	2006      	movs	r0, #6
100022d2:	f001 f8cb 	bl	1000346c <send_channel>
100022d6:	2280      	movs	r2, #128	@ 0x80
100022d8:	4b38      	ldr	r3, [pc, #224]	@ (100023bc <loop+0x1c4c>)
100022da:	612f      	str	r7, [r5, #16]
100022dc:	0612      	lsls	r2, r2, #24
100022de:	4640      	mov	r0, r8
100022e0:	9400      	str	r4, [sp, #0]
100022e2:	f001 f88f 	bl	10003404 <get_ftw>
100022e6:	2304      	movs	r3, #4
100022e8:	0022      	movs	r2, r4
100022ea:	2100      	movs	r1, #0
100022ec:	2004      	movs	r0, #4
100022ee:	f001 f8bd 	bl	1000346c <send_channel>
100022f2:	2200      	movs	r2, #0
100022f4:	4b38      	ldr	r3, [pc, #224]	@ (100023d8 <loop+0x1c68>)
100022f6:	612f      	str	r7, [r5, #16]
100022f8:	4640      	mov	r0, r8
100022fa:	9400      	str	r4, [sp, #0]
100022fc:	f001 f882 	bl	10003404 <get_ftw>
10002300:	2304      	movs	r3, #4
10002302:	0022      	movs	r2, r4
10002304:	2101      	movs	r1, #1
10002306:	2004      	movs	r0, #4
10002308:	f001 f8b0 	bl	1000346c <send_channel>
1000230c:	2001      	movs	r0, #1
1000230e:	612f      	str	r7, [r5, #16]
10002310:	f002 fa9a 	bl	10004848 <sleep_ms>
10002314:	2200      	movs	r2, #0
10002316:	4b31      	ldr	r3, [pc, #196]	@ (100023dc <loop+0x1c6c>)
10002318:	4640      	mov	r0, r8
1000231a:	9400      	str	r4, [sp, #0]
1000231c:	f001 f872 	bl	10003404 <get_ftw>
10002320:	2304      	movs	r3, #4
10002322:	0022      	movs	r2, r4
10002324:	2101      	movs	r1, #1
10002326:	2004      	movs	r0, #4
10002328:	f001 f8a0 	bl	1000346c <send_channel>
1000232c:	2001      	movs	r0, #1
1000232e:	612f      	str	r7, [r5, #16]
10002330:	f002 fa8a 	bl	10004848 <sleep_ms>
10002334:	2200      	movs	r2, #0
10002336:	4b2a      	ldr	r3, [pc, #168]	@ (100023e0 <loop+0x1c70>)
10002338:	4640      	mov	r0, r8
1000233a:	9400      	str	r4, [sp, #0]
1000233c:	f001 f862 	bl	10003404 <get_ftw>
10002340:	2304      	movs	r3, #4
10002342:	0022      	movs	r2, r4
10002344:	2101      	movs	r1, #1
10002346:	2004      	movs	r0, #4
10002348:	f001 f890 	bl	1000346c <send_channel>
1000234c:	2001      	movs	r0, #1
1000234e:	612f      	str	r7, [r5, #16]
10002350:	f002 fa7a 	bl	10004848 <sleep_ms>
10002354:	2200      	movs	r2, #0
10002356:	4b23      	ldr	r3, [pc, #140]	@ (100023e4 <loop+0x1c74>)
10002358:	4640      	mov	r0, r8
1000235a:	9400      	str	r4, [sp, #0]
1000235c:	f001 f852 	bl	10003404 <get_ftw>
10002360:	2304      	movs	r3, #4
10002362:	0022      	movs	r2, r4
10002364:	2101      	movs	r1, #1
10002366:	2004      	movs	r0, #4
10002368:	f001 f880 	bl	1000346c <send_channel>
1000236c:	2001      	movs	r0, #1
1000236e:	612f      	str	r7, [r5, #16]
10002370:	f002 fa6a 	bl	10004848 <sleep_ms>
10002374:	2301      	movs	r3, #1
10002376:	425b      	negs	r3, r3
10002378:	469c      	mov	ip, r3
1000237a:	44e1      	add	r9, ip
1000237c:	464b      	mov	r3, r9
1000237e:	2b00      	cmp	r3, #0
10002380:	d000      	beq.n	10002384 <loop+0x1c14>
10002382:	e6fd      	b.n	10002180 <loop+0x1a10>
10002384:	f7fe fb22 	bl	100009cc <loop+0x25c>
10002388:	3ff00000 	.word	0x3ff00000
1000238c:	50200000 	.word	0x50200000
10002390:	00002711 	.word	0x00002711
10002394:	20001528 	.word	0x20001528
10002398:	83126e98 	.word	0x83126e98
1000239c:	3fe5cac0 	.word	0x3fe5cac0
100023a0:	41946281 	.word	0x41946281
100023a4:	41948106 	.word	0x41948106
100023a8:	1eb851ec 	.word	0x1eb851ec
100023ac:	3fe5eb85 	.word	0x3fe5eb85
100023b0:	41960dc0 	.word	0x41960dc0
100023b4:	fbe76c8b 	.word	0xfbe76c8b
100023b8:	3fe6f1a9 	.word	0x3fe6f1a9
100023bc:	4197b8ff 	.word	0x4197b8ff
100023c0:	db22d0e5 	.word	0xdb22d0e5
100023c4:	3fe67ef9 	.word	0x3fe67ef9
100023c8:	4199643e 	.word	0x4199643e
100023cc:	419b0f7d 	.word	0x419b0f7d
100023d0:	c28f5c29 	.word	0xc28f5c29
100023d4:	3fe828f5 	.word	0x3fe828f5
100023d8:	41962c45 	.word	0x41962c45
100023dc:	4197d784 	.word	0x4197d784
100023e0:	419982c3 	.word	0x419982c3
100023e4:	419b2e02 	.word	0x419b2e02
100023e8:	ab24      	add	r3, sp, #144	@ 0x90
100023ea:	469a      	mov	sl, r3
100023ec:	001a      	movs	r2, r3
100023ee:	2000      	movs	r0, #0
100023f0:	49c9      	ldr	r1, [pc, #804]	@ (10002718 <loop+0x1fa8>)
100023f2:	f000 ffe1 	bl	100033b8 <get_asf>
100023f6:	2303      	movs	r3, #3
100023f8:	4652      	mov	r2, sl
100023fa:	2101      	movs	r1, #1
100023fc:	2006      	movs	r0, #6
100023fe:	f001 f835 	bl	1000346c <send_channel>
10002402:	4bc6      	ldr	r3, [pc, #792]	@ (1000271c <loop+0x1fac>)
10002404:	4ec6      	ldr	r6, [pc, #792]	@ (10002720 <loop+0x1fb0>)
10002406:	611c      	str	r4, [r3, #16]
10002408:	4bc6      	ldr	r3, [pc, #792]	@ (10002724 <loop+0x1fb4>)
1000240a:	aa25      	add	r2, sp, #148	@ 0x94
1000240c:	46b0      	mov	r8, r6
1000240e:	0015      	movs	r5, r2
10002410:	001e      	movs	r6, r3
10002412:	4fc2      	ldr	r7, [pc, #776]	@ (1000271c <loop+0x1fac>)
10002414:	2200      	movs	r2, #0
10002416:	4bc4      	ldr	r3, [pc, #784]	@ (10002728 <loop+0x1fb8>)
10002418:	0030      	movs	r0, r6
1000241a:	9500      	str	r5, [sp, #0]
1000241c:	f000 fff2 	bl	10003404 <get_ftw>
10002420:	2304      	movs	r3, #4
10002422:	002a      	movs	r2, r5
10002424:	2101      	movs	r1, #1
10002426:	2004      	movs	r0, #4
10002428:	f001 f820 	bl	1000346c <send_channel>
1000242c:	2001      	movs	r0, #1
1000242e:	613c      	str	r4, [r7, #16]
10002430:	f002 fa0a 	bl	10004848 <sleep_ms>
10002434:	4652      	mov	r2, sl
10002436:	48bd      	ldr	r0, [pc, #756]	@ (1000272c <loop+0x1fbc>)
10002438:	49bd      	ldr	r1, [pc, #756]	@ (10002730 <loop+0x1fc0>)
1000243a:	f000 ffbd 	bl	100033b8 <get_asf>
1000243e:	2303      	movs	r3, #3
10002440:	4652      	mov	r2, sl
10002442:	2100      	movs	r1, #0
10002444:	2006      	movs	r0, #6
10002446:	f001 f811 	bl	1000346c <send_channel>
1000244a:	2280      	movs	r2, #128	@ 0x80
1000244c:	4bb9      	ldr	r3, [pc, #740]	@ (10002734 <loop+0x1fc4>)
1000244e:	613c      	str	r4, [r7, #16]
10002450:	0612      	lsls	r2, r2, #24
10002452:	0030      	movs	r0, r6
10002454:	9500      	str	r5, [sp, #0]
10002456:	f000 ffd5 	bl	10003404 <get_ftw>
1000245a:	2304      	movs	r3, #4
1000245c:	002a      	movs	r2, r5
1000245e:	2100      	movs	r1, #0
10002460:	2004      	movs	r0, #4
10002462:	f001 f803 	bl	1000346c <send_channel>
10002466:	2001      	movs	r0, #1
10002468:	613c      	str	r4, [r7, #16]
1000246a:	f002 f9ed 	bl	10004848 <sleep_ms>
1000246e:	4652      	mov	r2, sl
10002470:	48b1      	ldr	r0, [pc, #708]	@ (10002738 <loop+0x1fc8>)
10002472:	49b2      	ldr	r1, [pc, #712]	@ (1000273c <loop+0x1fcc>)
10002474:	f000 ffa0 	bl	100033b8 <get_asf>
10002478:	2303      	movs	r3, #3
1000247a:	4652      	mov	r2, sl
1000247c:	2100      	movs	r1, #0
1000247e:	2006      	movs	r0, #6
10002480:	f000 fff4 	bl	1000346c <send_channel>
10002484:	2280      	movs	r2, #128	@ 0x80
10002486:	4bae      	ldr	r3, [pc, #696]	@ (10002740 <loop+0x1fd0>)
10002488:	613c      	str	r4, [r7, #16]
1000248a:	0612      	lsls	r2, r2, #24
1000248c:	0030      	movs	r0, r6
1000248e:	9500      	str	r5, [sp, #0]
10002490:	f000 ffb8 	bl	10003404 <get_ftw>
10002494:	2304      	movs	r3, #4
10002496:	002a      	movs	r2, r5
10002498:	2100      	movs	r1, #0
1000249a:	2004      	movs	r0, #4
1000249c:	f000 ffe6 	bl	1000346c <send_channel>
100024a0:	2001      	movs	r0, #1
100024a2:	613c      	str	r4, [r7, #16]
100024a4:	f002 f9d0 	bl	10004848 <sleep_ms>
100024a8:	4652      	mov	r2, sl
100024aa:	48a6      	ldr	r0, [pc, #664]	@ (10002744 <loop+0x1fd4>)
100024ac:	49a6      	ldr	r1, [pc, #664]	@ (10002748 <loop+0x1fd8>)
100024ae:	f000 ff83 	bl	100033b8 <get_asf>
100024b2:	2303      	movs	r3, #3
100024b4:	4652      	mov	r2, sl
100024b6:	2100      	movs	r1, #0
100024b8:	2006      	movs	r0, #6
100024ba:	f000 ffd7 	bl	1000346c <send_channel>
100024be:	2280      	movs	r2, #128	@ 0x80
100024c0:	4ba2      	ldr	r3, [pc, #648]	@ (1000274c <loop+0x1fdc>)
100024c2:	613c      	str	r4, [r7, #16]
100024c4:	0612      	lsls	r2, r2, #24
100024c6:	0030      	movs	r0, r6
100024c8:	9500      	str	r5, [sp, #0]
100024ca:	f000 ff9b 	bl	10003404 <get_ftw>
100024ce:	2304      	movs	r3, #4
100024d0:	002a      	movs	r2, r5
100024d2:	2100      	movs	r1, #0
100024d4:	2004      	movs	r0, #4
100024d6:	f000 ffc9 	bl	1000346c <send_channel>
100024da:	2001      	movs	r0, #1
100024dc:	613c      	str	r4, [r7, #16]
100024de:	f002 f9b3 	bl	10004848 <sleep_ms>
100024e2:	4652      	mov	r2, sl
100024e4:	489a      	ldr	r0, [pc, #616]	@ (10002750 <loop+0x1fe0>)
100024e6:	499b      	ldr	r1, [pc, #620]	@ (10002754 <loop+0x1fe4>)
100024e8:	f000 ff66 	bl	100033b8 <get_asf>
100024ec:	2303      	movs	r3, #3
100024ee:	4652      	mov	r2, sl
100024f0:	2100      	movs	r1, #0
100024f2:	2006      	movs	r0, #6
100024f4:	f000 ffba 	bl	1000346c <send_channel>
100024f8:	2280      	movs	r2, #128	@ 0x80
100024fa:	4b97      	ldr	r3, [pc, #604]	@ (10002758 <loop+0x1fe8>)
100024fc:	613c      	str	r4, [r7, #16]
100024fe:	0612      	lsls	r2, r2, #24
10002500:	0030      	movs	r0, r6
10002502:	9500      	str	r5, [sp, #0]
10002504:	f000 ff7e 	bl	10003404 <get_ftw>
10002508:	2304      	movs	r3, #4
1000250a:	002a      	movs	r2, r5
1000250c:	2100      	movs	r1, #0
1000250e:	2004      	movs	r0, #4
10002510:	f000 ffac 	bl	1000346c <send_channel>
10002514:	2001      	movs	r0, #1
10002516:	613c      	str	r4, [r7, #16]
10002518:	f002 f996 	bl	10004848 <sleep_ms>
1000251c:	2200      	movs	r2, #0
1000251e:	4b82      	ldr	r3, [pc, #520]	@ (10002728 <loop+0x1fb8>)
10002520:	0030      	movs	r0, r6
10002522:	9500      	str	r5, [sp, #0]
10002524:	f000 ff6e 	bl	10003404 <get_ftw>
10002528:	2304      	movs	r3, #4
1000252a:	002a      	movs	r2, r5
1000252c:	2101      	movs	r1, #1
1000252e:	2004      	movs	r0, #4
10002530:	f000 ff9c 	bl	1000346c <send_channel>
10002534:	2001      	movs	r0, #1
10002536:	613c      	str	r4, [r7, #16]
10002538:	f002 f986 	bl	10004848 <sleep_ms>
1000253c:	2200      	movs	r2, #0
1000253e:	4b87      	ldr	r3, [pc, #540]	@ (1000275c <loop+0x1fec>)
10002540:	0030      	movs	r0, r6
10002542:	9500      	str	r5, [sp, #0]
10002544:	f000 ff5e 	bl	10003404 <get_ftw>
10002548:	2304      	movs	r3, #4
1000254a:	002a      	movs	r2, r5
1000254c:	2101      	movs	r1, #1
1000254e:	2004      	movs	r0, #4
10002550:	f000 ff8c 	bl	1000346c <send_channel>
10002554:	2001      	movs	r0, #1
10002556:	613c      	str	r4, [r7, #16]
10002558:	f002 f976 	bl	10004848 <sleep_ms>
1000255c:	2200      	movs	r2, #0
1000255e:	4b80      	ldr	r3, [pc, #512]	@ (10002760 <loop+0x1ff0>)
10002560:	0030      	movs	r0, r6
10002562:	9500      	str	r5, [sp, #0]
10002564:	f000 ff4e 	bl	10003404 <get_ftw>
10002568:	2304      	movs	r3, #4
1000256a:	002a      	movs	r2, r5
1000256c:	2101      	movs	r1, #1
1000256e:	2004      	movs	r0, #4
10002570:	f000 ff7c 	bl	1000346c <send_channel>
10002574:	2001      	movs	r0, #1
10002576:	613c      	str	r4, [r7, #16]
10002578:	f002 f966 	bl	10004848 <sleep_ms>
1000257c:	2200      	movs	r2, #0
1000257e:	4b79      	ldr	r3, [pc, #484]	@ (10002764 <loop+0x1ff4>)
10002580:	0030      	movs	r0, r6
10002582:	9500      	str	r5, [sp, #0]
10002584:	f000 ff3e 	bl	10003404 <get_ftw>
10002588:	2304      	movs	r3, #4
1000258a:	002a      	movs	r2, r5
1000258c:	2101      	movs	r1, #1
1000258e:	2004      	movs	r0, #4
10002590:	f000 ff6c 	bl	1000346c <send_channel>
10002594:	2001      	movs	r0, #1
10002596:	613c      	str	r4, [r7, #16]
10002598:	f002 f956 	bl	10004848 <sleep_ms>
1000259c:	2200      	movs	r2, #0
1000259e:	4b72      	ldr	r3, [pc, #456]	@ (10002768 <loop+0x1ff8>)
100025a0:	0030      	movs	r0, r6
100025a2:	9500      	str	r5, [sp, #0]
100025a4:	f000 ff2e 	bl	10003404 <get_ftw>
100025a8:	2304      	movs	r3, #4
100025aa:	002a      	movs	r2, r5
100025ac:	2101      	movs	r1, #1
100025ae:	2004      	movs	r0, #4
100025b0:	f000 ff5c 	bl	1000346c <send_channel>
100025b4:	2001      	movs	r0, #1
100025b6:	613c      	str	r4, [r7, #16]
100025b8:	f002 f946 	bl	10004848 <sleep_ms>
100025bc:	4652      	mov	r2, sl
100025be:	4861      	ldr	r0, [pc, #388]	@ (10002744 <loop+0x1fd4>)
100025c0:	4961      	ldr	r1, [pc, #388]	@ (10002748 <loop+0x1fd8>)
100025c2:	f000 fef9 	bl	100033b8 <get_asf>
100025c6:	2303      	movs	r3, #3
100025c8:	4652      	mov	r2, sl
100025ca:	2100      	movs	r1, #0
100025cc:	2006      	movs	r0, #6
100025ce:	f000 ff4d 	bl	1000346c <send_channel>
100025d2:	2280      	movs	r2, #128	@ 0x80
100025d4:	4b5d      	ldr	r3, [pc, #372]	@ (1000274c <loop+0x1fdc>)
100025d6:	613c      	str	r4, [r7, #16]
100025d8:	0612      	lsls	r2, r2, #24
100025da:	0030      	movs	r0, r6
100025dc:	9500      	str	r5, [sp, #0]
100025de:	f000 ff11 	bl	10003404 <get_ftw>
100025e2:	2304      	movs	r3, #4
100025e4:	002a      	movs	r2, r5
100025e6:	2100      	movs	r1, #0
100025e8:	2004      	movs	r0, #4
100025ea:	f000 ff3f 	bl	1000346c <send_channel>
100025ee:	2001      	movs	r0, #1
100025f0:	613c      	str	r4, [r7, #16]
100025f2:	f002 f929 	bl	10004848 <sleep_ms>
100025f6:	4652      	mov	r2, sl
100025f8:	484f      	ldr	r0, [pc, #316]	@ (10002738 <loop+0x1fc8>)
100025fa:	4950      	ldr	r1, [pc, #320]	@ (1000273c <loop+0x1fcc>)
100025fc:	f000 fedc 	bl	100033b8 <get_asf>
10002600:	2303      	movs	r3, #3
10002602:	4652      	mov	r2, sl
10002604:	2100      	movs	r1, #0
10002606:	2006      	movs	r0, #6
10002608:	f000 ff30 	bl	1000346c <send_channel>
1000260c:	2280      	movs	r2, #128	@ 0x80
1000260e:	4b4c      	ldr	r3, [pc, #304]	@ (10002740 <loop+0x1fd0>)
10002610:	613c      	str	r4, [r7, #16]
10002612:	0612      	lsls	r2, r2, #24
10002614:	0030      	movs	r0, r6
10002616:	9500      	str	r5, [sp, #0]
10002618:	f000 fef4 	bl	10003404 <get_ftw>
1000261c:	2304      	movs	r3, #4
1000261e:	002a      	movs	r2, r5
10002620:	2100      	movs	r1, #0
10002622:	2004      	movs	r0, #4
10002624:	f000 ff22 	bl	1000346c <send_channel>
10002628:	2001      	movs	r0, #1
1000262a:	613c      	str	r4, [r7, #16]
1000262c:	f002 f90c 	bl	10004848 <sleep_ms>
10002630:	4652      	mov	r2, sl
10002632:	483e      	ldr	r0, [pc, #248]	@ (1000272c <loop+0x1fbc>)
10002634:	493e      	ldr	r1, [pc, #248]	@ (10002730 <loop+0x1fc0>)
10002636:	f000 febf 	bl	100033b8 <get_asf>
1000263a:	2303      	movs	r3, #3
1000263c:	4652      	mov	r2, sl
1000263e:	2100      	movs	r1, #0
10002640:	2006      	movs	r0, #6
10002642:	f000 ff13 	bl	1000346c <send_channel>
10002646:	2280      	movs	r2, #128	@ 0x80
10002648:	4b3a      	ldr	r3, [pc, #232]	@ (10002734 <loop+0x1fc4>)
1000264a:	613c      	str	r4, [r7, #16]
1000264c:	0612      	lsls	r2, r2, #24
1000264e:	0030      	movs	r0, r6
10002650:	9500      	str	r5, [sp, #0]
10002652:	f000 fed7 	bl	10003404 <get_ftw>
10002656:	2304      	movs	r3, #4
10002658:	002a      	movs	r2, r5
1000265a:	2100      	movs	r1, #0
1000265c:	2004      	movs	r0, #4
1000265e:	f000 ff05 	bl	1000346c <send_channel>
10002662:	2001      	movs	r0, #1
10002664:	613c      	str	r4, [r7, #16]
10002666:	f002 f8ef 	bl	10004848 <sleep_ms>
1000266a:	4652      	mov	r2, sl
1000266c:	483f      	ldr	r0, [pc, #252]	@ (1000276c <loop+0x1ffc>)
1000266e:	4940      	ldr	r1, [pc, #256]	@ (10002770 <loop+0x2000>)
10002670:	f000 fea2 	bl	100033b8 <get_asf>
10002674:	2303      	movs	r3, #3
10002676:	4652      	mov	r2, sl
10002678:	2100      	movs	r1, #0
1000267a:	2006      	movs	r0, #6
1000267c:	f000 fef6 	bl	1000346c <send_channel>
10002680:	2280      	movs	r2, #128	@ 0x80
10002682:	4b3c      	ldr	r3, [pc, #240]	@ (10002774 <loop+0x2004>)
10002684:	613c      	str	r4, [r7, #16]
10002686:	0612      	lsls	r2, r2, #24
10002688:	0030      	movs	r0, r6
1000268a:	9500      	str	r5, [sp, #0]
1000268c:	f000 feba 	bl	10003404 <get_ftw>
10002690:	2304      	movs	r3, #4
10002692:	002a      	movs	r2, r5
10002694:	2100      	movs	r1, #0
10002696:	2004      	movs	r0, #4
10002698:	f000 fee8 	bl	1000346c <send_channel>
1000269c:	2001      	movs	r0, #1
1000269e:	613c      	str	r4, [r7, #16]
100026a0:	f002 f8d2 	bl	10004848 <sleep_ms>
100026a4:	2200      	movs	r2, #0
100026a6:	4b2f      	ldr	r3, [pc, #188]	@ (10002764 <loop+0x1ff4>)
100026a8:	0030      	movs	r0, r6
100026aa:	9500      	str	r5, [sp, #0]
100026ac:	f000 feaa 	bl	10003404 <get_ftw>
100026b0:	2304      	movs	r3, #4
100026b2:	002a      	movs	r2, r5
100026b4:	2101      	movs	r1, #1
100026b6:	2004      	movs	r0, #4
100026b8:	f000 fed8 	bl	1000346c <send_channel>
100026bc:	2001      	movs	r0, #1
100026be:	613c      	str	r4, [r7, #16]
100026c0:	f002 f8c2 	bl	10004848 <sleep_ms>
100026c4:	2200      	movs	r2, #0
100026c6:	4b26      	ldr	r3, [pc, #152]	@ (10002760 <loop+0x1ff0>)
100026c8:	0030      	movs	r0, r6
100026ca:	9500      	str	r5, [sp, #0]
100026cc:	f000 fe9a 	bl	10003404 <get_ftw>
100026d0:	2304      	movs	r3, #4
100026d2:	002a      	movs	r2, r5
100026d4:	2101      	movs	r1, #1
100026d6:	2004      	movs	r0, #4
100026d8:	f000 fec8 	bl	1000346c <send_channel>
100026dc:	2001      	movs	r0, #1
100026de:	613c      	str	r4, [r7, #16]
100026e0:	f002 f8b2 	bl	10004848 <sleep_ms>
100026e4:	2200      	movs	r2, #0
100026e6:	4b1d      	ldr	r3, [pc, #116]	@ (1000275c <loop+0x1fec>)
100026e8:	0030      	movs	r0, r6
100026ea:	9500      	str	r5, [sp, #0]
100026ec:	f000 fe8a 	bl	10003404 <get_ftw>
100026f0:	2304      	movs	r3, #4
100026f2:	002a      	movs	r2, r5
100026f4:	2101      	movs	r1, #1
100026f6:	2004      	movs	r0, #4
100026f8:	f000 feb8 	bl	1000346c <send_channel>
100026fc:	2001      	movs	r0, #1
100026fe:	613c      	str	r4, [r7, #16]
10002700:	f002 f8a2 	bl	10004848 <sleep_ms>
10002704:	2301      	movs	r3, #1
10002706:	425b      	negs	r3, r3
10002708:	469c      	mov	ip, r3
1000270a:	44e0      	add	r8, ip
1000270c:	4643      	mov	r3, r8
1000270e:	2b00      	cmp	r3, #0
10002710:	d000      	beq.n	10002714 <loop+0x1fa4>
10002712:	e67e      	b.n	10002412 <loop+0x1ca2>
10002714:	f7fe f95a 	bl	100009cc <loop+0x25c>
10002718:	3ff00000 	.word	0x3ff00000
1000271c:	50200000 	.word	0x50200000
10002720:	00002711 	.word	0x00002711
10002724:	20001528 	.word	0x20001528
10002728:	41948106 	.word	0x41948106
1000272c:	1eb851ec 	.word	0x1eb851ec
10002730:	3fe5eb85 	.word	0x3fe5eb85
10002734:	41960dc0 	.word	0x41960dc0
10002738:	fbe76c8b 	.word	0xfbe76c8b
1000273c:	3fe6f1a9 	.word	0x3fe6f1a9
10002740:	4197b8ff 	.word	0x4197b8ff
10002744:	db22d0e5 	.word	0xdb22d0e5
10002748:	3fe67ef9 	.word	0x3fe67ef9
1000274c:	4199643e 	.word	0x4199643e
10002750:	c28f5c29 	.word	0xc28f5c29
10002754:	3fe828f5 	.word	0x3fe828f5
10002758:	419b0f7d 	.word	0x419b0f7d
1000275c:	41962c45 	.word	0x41962c45
10002760:	4197d784 	.word	0x4197d784
10002764:	419982c3 	.word	0x419982c3
10002768:	419b2e02 	.word	0x419b2e02
1000276c:	83126e98 	.word	0x83126e98
10002770:	3fe5cac0 	.word	0x3fe5cac0
10002774:	41946281 	.word	0x41946281
10002778:	ab24      	add	r3, sp, #144	@ 0x90
1000277a:	469a      	mov	sl, r3
1000277c:	001a      	movs	r2, r3
1000277e:	2000      	movs	r0, #0
10002780:	49fd      	ldr	r1, [pc, #1012]	@ (10002b78 <loop+0x2408>)
10002782:	f000 fe19 	bl	100033b8 <get_asf>
10002786:	0021      	movs	r1, r4
10002788:	2303      	movs	r3, #3
1000278a:	4652      	mov	r2, sl
1000278c:	2006      	movs	r0, #6
1000278e:	f000 fe6d 	bl	1000346c <send_channel>
10002792:	4bfa      	ldr	r3, [pc, #1000]	@ (10002b7c <loop+0x240c>)
10002794:	2200      	movs	r2, #0
10002796:	611c      	str	r4, [r3, #16]
10002798:	2000      	movs	r0, #0
1000279a:	2300      	movs	r3, #0
1000279c:	49f8      	ldr	r1, [pc, #992]	@ (10002b80 <loop+0x2410>)
1000279e:	f004 fe16 	bl	100073ce <__wrap___aeabi_ddiv>
100027a2:	2200      	movs	r2, #0
100027a4:	2300      	movs	r3, #0
100027a6:	f004 fe30 	bl	1000740a <__wrap___aeabi_dmul>
100027aa:	0002      	movs	r2, r0
100027ac:	000b      	movs	r3, r1
100027ae:	0004      	movs	r4, r0
100027b0:	000d      	movs	r5, r1
100027b2:	f004 fdfa 	bl	100073aa <__wrap___aeabi_dsub>
100027b6:	f004 fee5 	bl	10007584 <__wrap___aeabi_d2f>
100027ba:	4af2      	ldr	r2, [pc, #968]	@ (10002b84 <loop+0x2414>)
100027bc:	4bf2      	ldr	r3, [pc, #968]	@ (10002b88 <loop+0x2418>)
100027be:	1c06      	adds	r6, r0, #0
100027c0:	0029      	movs	r1, r5
100027c2:	0020      	movs	r0, r4
100027c4:	f004 fdf1 	bl	100073aa <__wrap___aeabi_dsub>
100027c8:	f004 fedc 	bl	10007584 <__wrap___aeabi_d2f>
100027cc:	49ef      	ldr	r1, [pc, #956]	@ (10002b8c <loop+0x241c>)
100027ce:	f005 fac5 	bl	10007d5c <__wrap___aeabi_fadd>
100027d2:	49ef      	ldr	r1, [pc, #956]	@ (10002b90 <loop+0x2420>)
100027d4:	f005 fac5 	bl	10007d62 <__wrap___aeabi_fdiv>
100027d8:	2100      	movs	r1, #0
100027da:	4683      	mov	fp, r0
100027dc:	1c08      	adds	r0, r1, #0
100027de:	f005 fac0 	bl	10007d62 <__wrap___aeabi_fdiv>
100027e2:	2100      	movs	r1, #0
100027e4:	1c04      	adds	r4, r0, #0
100027e6:	4658      	mov	r0, fp
100027e8:	f005 facf 	bl	10007d8a <__wrap___aeabi_fmul>
100027ec:	1c01      	adds	r1, r0, #0
100027ee:	1c30      	adds	r0, r6, #0
100027f0:	f005 fab1 	bl	10007d56 <__wrap___aeabi_fsub>
100027f4:	2100      	movs	r1, #0
100027f6:	f005 fab4 	bl	10007d62 <__wrap___aeabi_fdiv>
100027fa:	2100      	movs	r1, #0
100027fc:	1c05      	adds	r5, r0, #0
100027fe:	1c20      	adds	r0, r4, #0
10002800:	f005 fac3 	bl	10007d8a <__wrap___aeabi_fmul>
10002804:	1c01      	adds	r1, r0, #0
10002806:	2000      	movs	r0, #0
10002808:	f005 faa5 	bl	10007d56 <__wrap___aeabi_fsub>
1000280c:	1c07      	adds	r7, r0, #0
1000280e:	1c01      	adds	r1, r0, #0
10002810:	2000      	movs	r0, #0
10002812:	f005 faa6 	bl	10007d62 <__wrap___aeabi_fdiv>
10002816:	2100      	movs	r1, #0
10002818:	4680      	mov	r8, r0
1000281a:	1c28      	adds	r0, r5, #0
1000281c:	f005 fab5 	bl	10007d8a <__wrap___aeabi_fmul>
10002820:	1c01      	adds	r1, r0, #0
10002822:	1c30      	adds	r0, r6, #0
10002824:	f005 fa97 	bl	10007d56 <__wrap___aeabi_fsub>
10002828:	1c39      	adds	r1, r7, #0
1000282a:	f005 fa9a 	bl	10007d62 <__wrap___aeabi_fdiv>
1000282e:	4643      	mov	r3, r8
10002830:	1c07      	adds	r7, r0, #0
10002832:	2100      	movs	r1, #0
10002834:	4640      	mov	r0, r8
10002836:	9307      	str	r3, [sp, #28]
10002838:	f005 faa7 	bl	10007d8a <__wrap___aeabi_fmul>
1000283c:	1c01      	adds	r1, r0, #0
1000283e:	2000      	movs	r0, #0
10002840:	f005 fa89 	bl	10007d56 <__wrap___aeabi_fsub>
10002844:	4680      	mov	r8, r0
10002846:	1c01      	adds	r1, r0, #0
10002848:	2000      	movs	r0, #0
1000284a:	f005 fa8a 	bl	10007d62 <__wrap___aeabi_fdiv>
1000284e:	2100      	movs	r1, #0
10002850:	4681      	mov	r9, r0
10002852:	1c38      	adds	r0, r7, #0
10002854:	f005 fa99 	bl	10007d8a <__wrap___aeabi_fmul>
10002858:	1c01      	adds	r1, r0, #0
1000285a:	1c30      	adds	r0, r6, #0
1000285c:	f005 fa7b 	bl	10007d56 <__wrap___aeabi_fsub>
10002860:	4641      	mov	r1, r8
10002862:	f005 fa7e 	bl	10007d62 <__wrap___aeabi_fdiv>
10002866:	464a      	mov	r2, r9
10002868:	4680      	mov	r8, r0
1000286a:	2100      	movs	r1, #0
1000286c:	4648      	mov	r0, r9
1000286e:	9208      	str	r2, [sp, #32]
10002870:	f005 fa8b 	bl	10007d8a <__wrap___aeabi_fmul>
10002874:	1c01      	adds	r1, r0, #0
10002876:	2000      	movs	r0, #0
10002878:	f005 fa6d 	bl	10007d56 <__wrap___aeabi_fsub>
1000287c:	4681      	mov	r9, r0
1000287e:	1c01      	adds	r1, r0, #0
10002880:	2000      	movs	r0, #0
10002882:	f005 fa6e 	bl	10007d62 <__wrap___aeabi_fdiv>
10002886:	2100      	movs	r1, #0
10002888:	9002      	str	r0, [sp, #8]
1000288a:	4640      	mov	r0, r8
1000288c:	f005 fa7d 	bl	10007d8a <__wrap___aeabi_fmul>
10002890:	1c01      	adds	r1, r0, #0
10002892:	1c30      	adds	r0, r6, #0
10002894:	f005 fa5f 	bl	10007d56 <__wrap___aeabi_fsub>
10002898:	4649      	mov	r1, r9
1000289a:	f005 fa62 	bl	10007d62 <__wrap___aeabi_fdiv>
1000289e:	2100      	movs	r1, #0
100028a0:	4681      	mov	r9, r0
100028a2:	9802      	ldr	r0, [sp, #8]
100028a4:	f005 fa71 	bl	10007d8a <__wrap___aeabi_fmul>
100028a8:	1c01      	adds	r1, r0, #0
100028aa:	2000      	movs	r0, #0
100028ac:	f005 fa53 	bl	10007d56 <__wrap___aeabi_fsub>
100028b0:	2100      	movs	r1, #0
100028b2:	9004      	str	r0, [sp, #16]
100028b4:	4648      	mov	r0, r9
100028b6:	f005 fa68 	bl	10007d8a <__wrap___aeabi_fmul>
100028ba:	1c01      	adds	r1, r0, #0
100028bc:	1c30      	adds	r0, r6, #0
100028be:	f005 fa4a 	bl	10007d56 <__wrap___aeabi_fsub>
100028c2:	9904      	ldr	r1, [sp, #16]
100028c4:	f005 fa4d 	bl	10007d62 <__wrap___aeabi_fdiv>
100028c8:	9904      	ldr	r1, [sp, #16]
100028ca:	1c06      	adds	r6, r0, #0
100028cc:	2000      	movs	r0, #0
100028ce:	f005 fa48 	bl	10007d62 <__wrap___aeabi_fdiv>
100028d2:	2100      	movs	r1, #0
100028d4:	f005 fa59 	bl	10007d8a <__wrap___aeabi_fmul>
100028d8:	1c01      	adds	r1, r0, #0
100028da:	1c30      	adds	r0, r6, #0
100028dc:	f005 fa3b 	bl	10007d56 <__wrap___aeabi_fsub>
100028e0:	9902      	ldr	r1, [sp, #8]
100028e2:	f005 fa52 	bl	10007d8a <__wrap___aeabi_fmul>
100028e6:	1c01      	adds	r1, r0, #0
100028e8:	4648      	mov	r0, r9
100028ea:	f005 fa34 	bl	10007d56 <__wrap___aeabi_fsub>
100028ee:	9908      	ldr	r1, [sp, #32]
100028f0:	f005 fa4b 	bl	10007d8a <__wrap___aeabi_fmul>
100028f4:	1c01      	adds	r1, r0, #0
100028f6:	4640      	mov	r0, r8
100028f8:	f005 fa2d 	bl	10007d56 <__wrap___aeabi_fsub>
100028fc:	9907      	ldr	r1, [sp, #28]
100028fe:	f005 fa44 	bl	10007d8a <__wrap___aeabi_fmul>
10002902:	1c01      	adds	r1, r0, #0
10002904:	1c38      	adds	r0, r7, #0
10002906:	f005 fa26 	bl	10007d56 <__wrap___aeabi_fsub>
1000290a:	1c21      	adds	r1, r4, #0
1000290c:	f005 fa3d 	bl	10007d8a <__wrap___aeabi_fmul>
10002910:	1c01      	adds	r1, r0, #0
10002912:	1c28      	adds	r0, r5, #0
10002914:	f005 fa1f 	bl	10007d56 <__wrap___aeabi_fsub>
10002918:	2180      	movs	r1, #128	@ 0x80
1000291a:	0609      	lsls	r1, r1, #24
1000291c:	4680      	mov	r8, r0
1000291e:	f005 fa34 	bl	10007d8a <__wrap___aeabi_fmul>
10002922:	1c01      	adds	r1, r0, #0
10002924:	4658      	mov	r0, fp
10002926:	f005 fa16 	bl	10007d56 <__wrap___aeabi_fsub>
1000292a:	4681      	mov	r9, r0
1000292c:	900a      	str	r0, [sp, #40]	@ 0x28
1000292e:	f005 fa73 	bl	10007e18 <__wrap___aeabi_f2d>
10002932:	0006      	movs	r6, r0
10002934:	1c20      	adds	r0, r4, #0
10002936:	000f      	movs	r7, r1
10002938:	f005 fa6e 	bl	10007e18 <__wrap___aeabi_f2d>
1000293c:	0032      	movs	r2, r6
1000293e:	003b      	movs	r3, r7
10002940:	9002      	str	r0, [sp, #8]
10002942:	9103      	str	r1, [sp, #12]
10002944:	0030      	movs	r0, r6
10002946:	0039      	movs	r1, r7
10002948:	f004 fd38 	bl	100073bc <__wrap___aeabi_dadd>
1000294c:	0004      	movs	r4, r0
1000294e:	4640      	mov	r0, r8
10002950:	000d      	movs	r5, r1
10002952:	f005 fa61 	bl	10007e18 <__wrap___aeabi_f2d>
10002956:	0002      	movs	r2, r0
10002958:	000b      	movs	r3, r1
1000295a:	0020      	movs	r0, r4
1000295c:	0029      	movs	r1, r5
1000295e:	f004 fd2d 	bl	100073bc <__wrap___aeabi_dadd>
10002962:	2200      	movs	r2, #0
10002964:	2300      	movs	r3, #0
10002966:	f004 fd50 	bl	1000740a <__wrap___aeabi_dmul>
1000296a:	2200      	movs	r2, #0
1000296c:	4b84      	ldr	r3, [pc, #528]	@ (10002b80 <loop+0x2410>)
1000296e:	f004 fd2e 	bl	100073ce <__wrap___aeabi_ddiv>
10002972:	0002      	movs	r2, r0
10002974:	000b      	movs	r3, r1
10002976:	9802      	ldr	r0, [sp, #8]
10002978:	9903      	ldr	r1, [sp, #12]
1000297a:	f004 fd16 	bl	100073aa <__wrap___aeabi_dsub>
1000297e:	f004 fe01 	bl	10007584 <__wrap___aeabi_d2f>
10002982:	4649      	mov	r1, r9
10002984:	900b      	str	r0, [sp, #44]	@ 0x2c
10002986:	4640      	mov	r0, r8
10002988:	f005 f9e5 	bl	10007d56 <__wrap___aeabi_fsub>
1000298c:	2100      	movs	r1, #0
1000298e:	f005 f9e8 	bl	10007d62 <__wrap___aeabi_fdiv>
10002992:	4980      	ldr	r1, [pc, #512]	@ (10002b94 <loop+0x2424>)
10002994:	9018      	str	r0, [sp, #96]	@ 0x60
10002996:	4648      	mov	r0, r9
10002998:	f005 f9f7 	bl	10007d8a <__wrap___aeabi_fmul>
1000299c:	1c01      	adds	r1, r0, #0
1000299e:	487e      	ldr	r0, [pc, #504]	@ (10002b98 <loop+0x2428>)
100029a0:	f005 f9d9 	bl	10007d56 <__wrap___aeabi_fsub>
100029a4:	4680      	mov	r8, r0
100029a6:	900c      	str	r0, [sp, #48]	@ 0x30
100029a8:	f005 fa36 	bl	10007e18 <__wrap___aeabi_f2d>
100029ac:	0002      	movs	r2, r0
100029ae:	000b      	movs	r3, r1
100029b0:	0004      	movs	r4, r0
100029b2:	000d      	movs	r5, r1
100029b4:	f004 fd02 	bl	100073bc <__wrap___aeabi_dadd>
100029b8:	0032      	movs	r2, r6
100029ba:	003b      	movs	r3, r7
100029bc:	f004 fcfe 	bl	100073bc <__wrap___aeabi_dadd>
100029c0:	2200      	movs	r2, #0
100029c2:	4b76      	ldr	r3, [pc, #472]	@ (10002b9c <loop+0x242c>)
100029c4:	f004 fd21 	bl	1000740a <__wrap___aeabi_dmul>
100029c8:	2200      	movs	r2, #0
100029ca:	4b6d      	ldr	r3, [pc, #436]	@ (10002b80 <loop+0x2410>)
100029cc:	f004 fcff 	bl	100073ce <__wrap___aeabi_ddiv>
100029d0:	0002      	movs	r2, r0
100029d2:	2080      	movs	r0, #128	@ 0x80
100029d4:	000b      	movs	r3, r1
100029d6:	0580      	lsls	r0, r0, #22
100029d8:	4971      	ldr	r1, [pc, #452]	@ (10002ba0 <loop+0x2430>)
100029da:	f004 fce6 	bl	100073aa <__wrap___aeabi_dsub>
100029de:	f004 fdd1 	bl	10007584 <__wrap___aeabi_d2f>
100029e2:	4641      	mov	r1, r8
100029e4:	900d      	str	r0, [sp, #52]	@ 0x34
100029e6:	4648      	mov	r0, r9
100029e8:	f005 f9b5 	bl	10007d56 <__wrap___aeabi_fsub>
100029ec:	496d      	ldr	r1, [pc, #436]	@ (10002ba4 <loop+0x2434>)
100029ee:	f005 f9b8 	bl	10007d62 <__wrap___aeabi_fdiv>
100029f2:	496d      	ldr	r1, [pc, #436]	@ (10002ba8 <loop+0x2438>)
100029f4:	9019      	str	r0, [sp, #100]	@ 0x64
100029f6:	4640      	mov	r0, r8
100029f8:	f005 f9c7 	bl	10007d8a <__wrap___aeabi_fmul>
100029fc:	1c01      	adds	r1, r0, #0
100029fe:	486b      	ldr	r0, [pc, #428]	@ (10002bac <loop+0x243c>)
10002a00:	f005 f9a9 	bl	10007d56 <__wrap___aeabi_fsub>
10002a04:	4681      	mov	r9, r0
10002a06:	900e      	str	r0, [sp, #56]	@ 0x38
10002a08:	f005 fa06 	bl	10007e18 <__wrap___aeabi_f2d>
10002a0c:	0002      	movs	r2, r0
10002a0e:	000b      	movs	r3, r1
10002a10:	0006      	movs	r6, r0
10002a12:	000f      	movs	r7, r1
10002a14:	f004 fcd2 	bl	100073bc <__wrap___aeabi_dadd>
10002a18:	0022      	movs	r2, r4
10002a1a:	002b      	movs	r3, r5
10002a1c:	f004 fcce 	bl	100073bc <__wrap___aeabi_dadd>
10002a20:	2200      	movs	r2, #0
10002a22:	4b63      	ldr	r3, [pc, #396]	@ (10002bb0 <loop+0x2440>)
10002a24:	f004 fcf1 	bl	1000740a <__wrap___aeabi_dmul>
10002a28:	2200      	movs	r2, #0
10002a2a:	4b55      	ldr	r3, [pc, #340]	@ (10002b80 <loop+0x2410>)
10002a2c:	f004 fccf 	bl	100073ce <__wrap___aeabi_ddiv>
10002a30:	0002      	movs	r2, r0
10002a32:	2080      	movs	r0, #128	@ 0x80
10002a34:	000b      	movs	r3, r1
10002a36:	0580      	lsls	r0, r0, #22
10002a38:	495e      	ldr	r1, [pc, #376]	@ (10002bb4 <loop+0x2444>)
10002a3a:	f004 fcb6 	bl	100073aa <__wrap___aeabi_dsub>
10002a3e:	f004 fda1 	bl	10007584 <__wrap___aeabi_d2f>
10002a42:	4649      	mov	r1, r9
10002a44:	900f      	str	r0, [sp, #60]	@ 0x3c
10002a46:	4640      	mov	r0, r8
10002a48:	f005 f985 	bl	10007d56 <__wrap___aeabi_fsub>
10002a4c:	495a      	ldr	r1, [pc, #360]	@ (10002bb8 <loop+0x2448>)
10002a4e:	f005 f988 	bl	10007d62 <__wrap___aeabi_fdiv>
10002a52:	495a      	ldr	r1, [pc, #360]	@ (10002bbc <loop+0x244c>)
10002a54:	901a      	str	r0, [sp, #104]	@ 0x68
10002a56:	4648      	mov	r0, r9
10002a58:	f005 f997 	bl	10007d8a <__wrap___aeabi_fmul>
10002a5c:	1c01      	adds	r1, r0, #0
10002a5e:	4858      	ldr	r0, [pc, #352]	@ (10002bc0 <loop+0x2450>)
10002a60:	f005 f979 	bl	10007d56 <__wrap___aeabi_fsub>
10002a64:	4680      	mov	r8, r0
10002a66:	9010      	str	r0, [sp, #64]	@ 0x40
10002a68:	f005 f9d6 	bl	10007e18 <__wrap___aeabi_f2d>
10002a6c:	0002      	movs	r2, r0
10002a6e:	000b      	movs	r3, r1
10002a70:	0004      	movs	r4, r0
10002a72:	000d      	movs	r5, r1
10002a74:	f004 fca2 	bl	100073bc <__wrap___aeabi_dadd>
10002a78:	0032      	movs	r2, r6
10002a7a:	003b      	movs	r3, r7
10002a7c:	f004 fc9e 	bl	100073bc <__wrap___aeabi_dadd>
10002a80:	2200      	movs	r2, #0
10002a82:	4b4b      	ldr	r3, [pc, #300]	@ (10002bb0 <loop+0x2440>)
10002a84:	f004 fcc1 	bl	1000740a <__wrap___aeabi_dmul>
10002a88:	2200      	movs	r2, #0
10002a8a:	4b3d      	ldr	r3, [pc, #244]	@ (10002b80 <loop+0x2410>)
10002a8c:	f004 fc9f 	bl	100073ce <__wrap___aeabi_ddiv>
10002a90:	0002      	movs	r2, r0
10002a92:	20a0      	movs	r0, #160	@ 0xa0
10002a94:	000b      	movs	r3, r1
10002a96:	0600      	lsls	r0, r0, #24
10002a98:	494a      	ldr	r1, [pc, #296]	@ (10002bc4 <loop+0x2454>)
10002a9a:	f004 fc86 	bl	100073aa <__wrap___aeabi_dsub>
10002a9e:	f004 fd71 	bl	10007584 <__wrap___aeabi_d2f>
10002aa2:	4641      	mov	r1, r8
10002aa4:	9011      	str	r0, [sp, #68]	@ 0x44
10002aa6:	4648      	mov	r0, r9
10002aa8:	f005 f955 	bl	10007d56 <__wrap___aeabi_fsub>
10002aac:	4942      	ldr	r1, [pc, #264]	@ (10002bb8 <loop+0x2448>)
10002aae:	f005 f958 	bl	10007d62 <__wrap___aeabi_fdiv>
10002ab2:	4945      	ldr	r1, [pc, #276]	@ (10002bc8 <loop+0x2458>)
10002ab4:	901b      	str	r0, [sp, #108]	@ 0x6c
10002ab6:	4640      	mov	r0, r8
10002ab8:	f005 f967 	bl	10007d8a <__wrap___aeabi_fmul>
10002abc:	1c01      	adds	r1, r0, #0
10002abe:	4843      	ldr	r0, [pc, #268]	@ (10002bcc <loop+0x245c>)
10002ac0:	f005 f949 	bl	10007d56 <__wrap___aeabi_fsub>
10002ac4:	4681      	mov	r9, r0
10002ac6:	9012      	str	r0, [sp, #72]	@ 0x48
10002ac8:	f005 f9a6 	bl	10007e18 <__wrap___aeabi_f2d>
10002acc:	0002      	movs	r2, r0
10002ace:	000b      	movs	r3, r1
10002ad0:	0006      	movs	r6, r0
10002ad2:	000f      	movs	r7, r1
10002ad4:	f004 fc72 	bl	100073bc <__wrap___aeabi_dadd>
10002ad8:	0022      	movs	r2, r4
10002ada:	002b      	movs	r3, r5
10002adc:	f004 fc6e 	bl	100073bc <__wrap___aeabi_dadd>
10002ae0:	2200      	movs	r2, #0
10002ae2:	4b33      	ldr	r3, [pc, #204]	@ (10002bb0 <loop+0x2440>)
10002ae4:	f004 fc91 	bl	1000740a <__wrap___aeabi_dmul>
10002ae8:	2200      	movs	r2, #0
10002aea:	4b25      	ldr	r3, [pc, #148]	@ (10002b80 <loop+0x2410>)
10002aec:	f004 fc6f 	bl	100073ce <__wrap___aeabi_ddiv>
10002af0:	0002      	movs	r2, r0
10002af2:	000b      	movs	r3, r1
10002af4:	2000      	movs	r0, #0
10002af6:	4936      	ldr	r1, [pc, #216]	@ (10002bd0 <loop+0x2460>)
10002af8:	f004 fc57 	bl	100073aa <__wrap___aeabi_dsub>
10002afc:	f004 fd42 	bl	10007584 <__wrap___aeabi_d2f>
10002b00:	4649      	mov	r1, r9
10002b02:	9013      	str	r0, [sp, #76]	@ 0x4c
10002b04:	4640      	mov	r0, r8
10002b06:	f005 f926 	bl	10007d56 <__wrap___aeabi_fsub>
10002b0a:	492b      	ldr	r1, [pc, #172]	@ (10002bb8 <loop+0x2448>)
10002b0c:	f005 f929 	bl	10007d62 <__wrap___aeabi_fdiv>
10002b10:	21fa      	movs	r1, #250	@ 0xfa
10002b12:	901c      	str	r0, [sp, #112]	@ 0x70
10002b14:	0589      	lsls	r1, r1, #22
10002b16:	4648      	mov	r0, r9
10002b18:	f005 f937 	bl	10007d8a <__wrap___aeabi_fmul>
10002b1c:	1c01      	adds	r1, r0, #0
10002b1e:	482d      	ldr	r0, [pc, #180]	@ (10002bd4 <loop+0x2464>)
10002b20:	f005 f919 	bl	10007d56 <__wrap___aeabi_fsub>
10002b24:	4680      	mov	r8, r0
10002b26:	9014      	str	r0, [sp, #80]	@ 0x50
10002b28:	f005 f976 	bl	10007e18 <__wrap___aeabi_f2d>
10002b2c:	0002      	movs	r2, r0
10002b2e:	000b      	movs	r3, r1
10002b30:	0004      	movs	r4, r0
10002b32:	000d      	movs	r5, r1
10002b34:	f004 fc42 	bl	100073bc <__wrap___aeabi_dadd>
10002b38:	0032      	movs	r2, r6
10002b3a:	003b      	movs	r3, r7
10002b3c:	f004 fc3e 	bl	100073bc <__wrap___aeabi_dadd>
10002b40:	2200      	movs	r2, #0
10002b42:	4b1b      	ldr	r3, [pc, #108]	@ (10002bb0 <loop+0x2440>)
10002b44:	f004 fc61 	bl	1000740a <__wrap___aeabi_dmul>
10002b48:	2200      	movs	r2, #0
10002b4a:	4b0d      	ldr	r3, [pc, #52]	@ (10002b80 <loop+0x2410>)
10002b4c:	f004 fc3f 	bl	100073ce <__wrap___aeabi_ddiv>
10002b50:	0002      	movs	r2, r0
10002b52:	20a0      	movs	r0, #160	@ 0xa0
10002b54:	000b      	movs	r3, r1
10002b56:	0600      	lsls	r0, r0, #24
10002b58:	491f      	ldr	r1, [pc, #124]	@ (10002bd8 <loop+0x2468>)
10002b5a:	f004 fc26 	bl	100073aa <__wrap___aeabi_dsub>
10002b5e:	f004 fd11 	bl	10007584 <__wrap___aeabi_d2f>
10002b62:	4641      	mov	r1, r8
10002b64:	9015      	str	r0, [sp, #84]	@ 0x54
10002b66:	4648      	mov	r0, r9
10002b68:	f005 f8f5 	bl	10007d56 <__wrap___aeabi_fsub>
10002b6c:	4912      	ldr	r1, [pc, #72]	@ (10002bb8 <loop+0x2448>)
10002b6e:	f005 f8f8 	bl	10007d62 <__wrap___aeabi_fdiv>
10002b72:	4646      	mov	r6, r8
10002b74:	2100      	movs	r1, #0
10002b76:	e031      	b.n	10002bdc <loop+0x246c>
10002b78:	3fe00000 	.word	0x3fe00000
10002b7c:	50200000 	.word	0x50200000
10002b80:	40080000 	.word	0x40080000
10002b84:	0cbf340c 	.word	0x0cbf340c
10002b88:	3f96f1c4 	.word	0x3f96f1c4
10002b8c:	3cc1e26c 	.word	0x3cc1e26c
10002b90:	c3318eef 	.word	0xc3318eef
10002b94:	3f06c7d8 	.word	0x3f06c7d8
10002b98:	394df3b4 	.word	0x394df3b4
10002b9c:	c05e2000 	.word	0xc05e2000
10002ba0:	3f7e97b0 	.word	0x3f7e97b0
10002ba4:	c3b4c000 	.word	0xc3b4c000
10002ba8:	3e892fc5 	.word	0x3e892fc5
10002bac:	3a89d1c6 	.word	0x3a89d1c6
10002bb0:	401c0000 	.word	0x401c0000
10002bb4:	3f947ae1 	.word	0x3f947ae1
10002bb8:	41a80000 	.word	0x41a80000
10002bbc:	3e892492 	.word	0x3e892492
10002bc0:	3acfdf18 	.word	0x3acfdf18
10002bc4:	3f7d41d4 	.word	0x3f7d41d4
10002bc8:	3e888889 	.word	0x3e888889
10002bcc:	baaefe95 	.word	0xbaaefe95
10002bd0:	bf6d23e0 	.word	0xbf6d23e0
10002bd4:	3a201849 	.word	0x3a201849
10002bd8:	3f7b7174 	.word	0x3f7b7174
10002bdc:	901d      	str	r0, [sp, #116]	@ 0x74
10002bde:	1c30      	adds	r0, r6, #0
10002be0:	f005 f8d3 	bl	10007d8a <__wrap___aeabi_fmul>
10002be4:	1c01      	adds	r1, r0, #0
10002be6:	2000      	movs	r0, #0
10002be8:	f005 f8b5 	bl	10007d56 <__wrap___aeabi_fsub>
10002bec:	1c07      	adds	r7, r0, #0
10002bee:	9016      	str	r0, [sp, #88]	@ 0x58
10002bf0:	f005 f912 	bl	10007e18 <__wrap___aeabi_f2d>
10002bf4:	0002      	movs	r2, r0
10002bf6:	000b      	movs	r3, r1
10002bf8:	f004 fbe0 	bl	100073bc <__wrap___aeabi_dadd>
10002bfc:	0022      	movs	r2, r4
10002bfe:	002b      	movs	r3, r5
10002c00:	f004 fbdc 	bl	100073bc <__wrap___aeabi_dadd>
10002c04:	2200      	movs	r2, #0
10002c06:	4bcd      	ldr	r3, [pc, #820]	@ (10002f3c <loop+0x27cc>)
10002c08:	f004 fbff 	bl	1000740a <__wrap___aeabi_dmul>
10002c0c:	2200      	movs	r2, #0
10002c0e:	4bcc      	ldr	r3, [pc, #816]	@ (10002f40 <loop+0x27d0>)
10002c10:	f004 fbdd 	bl	100073ce <__wrap___aeabi_ddiv>
10002c14:	0002      	movs	r2, r0
10002c16:	2080      	movs	r0, #128	@ 0x80
10002c18:	000b      	movs	r3, r1
10002c1a:	05c0      	lsls	r0, r0, #23
10002c1c:	49c9      	ldr	r1, [pc, #804]	@ (10002f44 <loop+0x27d4>)
10002c1e:	f004 fbc4 	bl	100073aa <__wrap___aeabi_dsub>
10002c22:	f004 fcaf 	bl	10007584 <__wrap___aeabi_d2f>
10002c26:	1c39      	adds	r1, r7, #0
10002c28:	9017      	str	r0, [sp, #92]	@ 0x5c
10002c2a:	1c30      	adds	r0, r6, #0
10002c2c:	f005 f893 	bl	10007d56 <__wrap___aeabi_fsub>
10002c30:	49c5      	ldr	r1, [pc, #788]	@ (10002f48 <loop+0x27d8>)
10002c32:	f005 f896 	bl	10007d62 <__wrap___aeabi_fdiv>
10002c36:	4bc5      	ldr	r3, [pc, #788]	@ (10002f4c <loop+0x27dc>)
10002c38:	26c9      	movs	r6, #201	@ 0xc9
10002c3a:	9302      	str	r3, [sp, #8]
10002c3c:	ab25      	add	r3, sp, #148	@ 0x94
10002c3e:	469b      	mov	fp, r3
10002c40:	4bc3      	ldr	r3, [pc, #780]	@ (10002f50 <loop+0x27e0>)
10002c42:	0037      	movs	r7, r6
10002c44:	931f      	str	r3, [sp, #124]	@ 0x7c
10002c46:	4653      	mov	r3, sl
10002c48:	9309      	str	r3, [sp, #36]	@ 0x24
10002c4a:	465b      	mov	r3, fp
10002c4c:	901e      	str	r0, [sp, #120]	@ 0x78
10002c4e:	9320      	str	r3, [sp, #128]	@ 0x80
10002c50:	2655      	movs	r6, #85	@ 0x55
10002c52:	9b1f      	ldr	r3, [sp, #124]	@ 0x7c
10002c54:	46b0      	mov	r8, r6
10002c56:	469a      	mov	sl, r3
10002c58:	9b09      	ldr	r3, [sp, #36]	@ 0x24
10002c5a:	9721      	str	r7, [sp, #132]	@ 0x84
10002c5c:	469b      	mov	fp, r3
10002c5e:	9b20      	ldr	r3, [sp, #128]	@ 0x80
10002c60:	4699      	mov	r9, r3
10002c62:	e07c      	b.n	10002d5e <loop+0x25ee>
10002c64:	49bb      	ldr	r1, [pc, #748]	@ (10002f54 <loop+0x27e4>)
10002c66:	1c20      	adds	r0, r4, #0
10002c68:	f005 f8ce 	bl	10007e08 <__wrap___aeabi_fcmpge>
10002c6c:	2800      	cmp	r0, #0
10002c6e:	d006      	beq.n	10002c7e <loop+0x250e>
10002c70:	49b9      	ldr	r1, [pc, #740]	@ (10002f58 <loop+0x27e8>)
10002c72:	1c20      	adds	r0, r4, #0
10002c74:	f005 f8c0 	bl	10007df8 <__wrap___aeabi_fcmple>
10002c78:	2800      	cmp	r0, #0
10002c7a:	d000      	beq.n	10002c7e <loop+0x250e>
10002c7c:	e0cb      	b.n	10002e16 <loop+0x26a6>
10002c7e:	49b6      	ldr	r1, [pc, #728]	@ (10002f58 <loop+0x27e8>)
10002c80:	1c20      	adds	r0, r4, #0
10002c82:	f005 f8c1 	bl	10007e08 <__wrap___aeabi_fcmpge>
10002c86:	2800      	cmp	r0, #0
10002c88:	d006      	beq.n	10002c98 <loop+0x2528>
10002c8a:	49b4      	ldr	r1, [pc, #720]	@ (10002f5c <loop+0x27ec>)
10002c8c:	1c20      	adds	r0, r4, #0
10002c8e:	f005 f8b3 	bl	10007df8 <__wrap___aeabi_fcmple>
10002c92:	2800      	cmp	r0, #0
10002c94:	d000      	beq.n	10002c98 <loop+0x2528>
10002c96:	e0c6      	b.n	10002e26 <loop+0x26b6>
10002c98:	49b0      	ldr	r1, [pc, #704]	@ (10002f5c <loop+0x27ec>)
10002c9a:	1c20      	adds	r0, r4, #0
10002c9c:	f005 f8b4 	bl	10007e08 <__wrap___aeabi_fcmpge>
10002ca0:	2800      	cmp	r0, #0
10002ca2:	d006      	beq.n	10002cb2 <loop+0x2542>
10002ca4:	49ae      	ldr	r1, [pc, #696]	@ (10002f60 <loop+0x27f0>)
10002ca6:	1c20      	adds	r0, r4, #0
10002ca8:	f005 f8a6 	bl	10007df8 <__wrap___aeabi_fcmple>
10002cac:	2800      	cmp	r0, #0
10002cae:	d000      	beq.n	10002cb2 <loop+0x2542>
10002cb0:	e0e0      	b.n	10002e74 <loop+0x2704>
10002cb2:	49ab      	ldr	r1, [pc, #684]	@ (10002f60 <loop+0x27f0>)
10002cb4:	1c20      	adds	r0, r4, #0
10002cb6:	f005 f8a7 	bl	10007e08 <__wrap___aeabi_fcmpge>
10002cba:	2800      	cmp	r0, #0
10002cbc:	d006      	beq.n	10002ccc <loop+0x255c>
10002cbe:	49a9      	ldr	r1, [pc, #676]	@ (10002f64 <loop+0x27f4>)
10002cc0:	1c20      	adds	r0, r4, #0
10002cc2:	f005 f899 	bl	10007df8 <__wrap___aeabi_fcmple>
10002cc6:	2800      	cmp	r0, #0
10002cc8:	d000      	beq.n	10002ccc <loop+0x255c>
10002cca:	e0db      	b.n	10002e84 <loop+0x2714>
10002ccc:	49a5      	ldr	r1, [pc, #660]	@ (10002f64 <loop+0x27f4>)
10002cce:	1c20      	adds	r0, r4, #0
10002cd0:	f005 f89a 	bl	10007e08 <__wrap___aeabi_fcmpge>
10002cd4:	2800      	cmp	r0, #0
10002cd6:	d006      	beq.n	10002ce6 <loop+0x2576>
10002cd8:	2100      	movs	r1, #0
10002cda:	1c20      	adds	r0, r4, #0
10002cdc:	f005 f88c 	bl	10007df8 <__wrap___aeabi_fcmple>
10002ce0:	2800      	cmp	r0, #0
10002ce2:	d000      	beq.n	10002ce6 <loop+0x2576>
10002ce4:	e0be      	b.n	10002e64 <loop+0x26f4>
10002ce6:	2100      	movs	r1, #0
10002ce8:	1c20      	adds	r0, r4, #0
10002cea:	f005 f88d 	bl	10007e08 <__wrap___aeabi_fcmpge>
10002cee:	2800      	cmp	r0, #0
10002cf0:	d006      	beq.n	10002d00 <loop+0x2590>
10002cf2:	2100      	movs	r1, #0
10002cf4:	1c20      	adds	r0, r4, #0
10002cf6:	f005 f877 	bl	10007de8 <__wrap___aeabi_fcmpeq>
10002cfa:	2800      	cmp	r0, #0
10002cfc:	d000      	beq.n	10002d00 <loop+0x2590>
10002cfe:	e0c9      	b.n	10002e94 <loop+0x2724>
10002d00:	4899      	ldr	r0, [pc, #612]	@ (10002f68 <loop+0x27f8>)
10002d02:	f005 f9cf 	bl	100080a4 <__wrap_puts>
10002d06:	2600      	movs	r6, #0
10002d08:	2700      	movs	r7, #0
10002d0a:	003b      	movs	r3, r7
10002d0c:	0032      	movs	r2, r6
10002d0e:	4650      	mov	r0, sl
10002d10:	f005 faba 	bl	10008288 <__wrap_printf>
10002d14:	465a      	mov	r2, fp
10002d16:	0030      	movs	r0, r6
10002d18:	0039      	movs	r1, r7
10002d1a:	f000 fb4d 	bl	100033b8 <get_asf>
10002d1e:	2303      	movs	r3, #3
10002d20:	465a      	mov	r2, fp
10002d22:	2100      	movs	r1, #0
10002d24:	2006      	movs	r0, #6
10002d26:	f000 fba1 	bl	1000346c <send_channel>
10002d2a:	2500      	movs	r5, #0
10002d2c:	464b      	mov	r3, r9
10002d2e:	4c8f      	ldr	r4, [pc, #572]	@ (10002f6c <loop+0x27fc>)
10002d30:	9802      	ldr	r0, [sp, #8]
10002d32:	6125      	str	r5, [r4, #16]
10002d34:	9300      	str	r3, [sp, #0]
10002d36:	9a04      	ldr	r2, [sp, #16]
10002d38:	9b05      	ldr	r3, [sp, #20]
10002d3a:	f000 fb63 	bl	10003404 <get_ftw>
10002d3e:	2304      	movs	r3, #4
10002d40:	464a      	mov	r2, r9
10002d42:	2100      	movs	r1, #0
10002d44:	2004      	movs	r0, #4
10002d46:	f000 fb91 	bl	1000346c <send_channel>
10002d4a:	2003      	movs	r0, #3
10002d4c:	6125      	str	r5, [r4, #16]
10002d4e:	f001 fd7b 	bl	10004848 <sleep_ms>
10002d52:	2301      	movs	r3, #1
10002d54:	469c      	mov	ip, r3
10002d56:	44e0      	add	r8, ip
10002d58:	4643      	mov	r3, r8
10002d5a:	2b79      	cmp	r3, #121	@ 0x79
10002d5c:	d06b      	beq.n	10002e36 <loop+0x26c6>
10002d5e:	4640      	mov	r0, r8
10002d60:	f004 fbbc 	bl	100074dc <__wrap___aeabi_i2d>
10002d64:	2200      	movs	r2, #0
10002d66:	4b82      	ldr	r3, [pc, #520]	@ (10002f70 <loop+0x2800>)
10002d68:	f004 fb28 	bl	100073bc <__wrap___aeabi_dadd>
10002d6c:	2200      	movs	r2, #0
10002d6e:	4b81      	ldr	r3, [pc, #516]	@ (10002f74 <loop+0x2804>)
10002d70:	0004      	movs	r4, r0
10002d72:	000d      	movs	r5, r1
10002d74:	f004 fb49 	bl	1000740a <__wrap___aeabi_dmul>
10002d78:	9004      	str	r0, [sp, #16]
10002d7a:	9105      	str	r1, [sp, #20]
10002d7c:	0020      	movs	r0, r4
10002d7e:	0029      	movs	r1, r5
10002d80:	f004 fc00 	bl	10007584 <__wrap___aeabi_d2f>
10002d84:	497c      	ldr	r1, [pc, #496]	@ (10002f78 <loop+0x2808>)
10002d86:	1c04      	adds	r4, r0, #0
10002d88:	f005 f83e 	bl	10007e08 <__wrap___aeabi_fcmpge>
10002d8c:	2800      	cmp	r0, #0
10002d8e:	d100      	bne.n	10002d92 <loop+0x2622>
10002d90:	e768      	b.n	10002c64 <loop+0x24f4>
10002d92:	4970      	ldr	r1, [pc, #448]	@ (10002f54 <loop+0x27e4>)
10002d94:	1c20      	adds	r0, r4, #0
10002d96:	f005 f82f 	bl	10007df8 <__wrap___aeabi_fcmple>
10002d9a:	2800      	cmp	r0, #0
10002d9c:	d100      	bne.n	10002da0 <loop+0x2630>
10002d9e:	e761      	b.n	10002c64 <loop+0x24f4>
10002da0:	9b16      	ldr	r3, [sp, #88]	@ 0x58
10002da2:	9f1e      	ldr	r7, [sp, #120]	@ 0x78
10002da4:	9308      	str	r3, [sp, #32]
10002da6:	9b17      	ldr	r3, [sp, #92]	@ 0x5c
10002da8:	4e74      	ldr	r6, [pc, #464]	@ (10002f7c <loop+0x280c>)
10002daa:	4973      	ldr	r1, [pc, #460]	@ (10002f78 <loop+0x2808>)
10002dac:	9307      	str	r3, [sp, #28]
10002dae:	1c20      	adds	r0, r4, #0
10002db0:	f004 ffd1 	bl	10007d56 <__wrap___aeabi_fsub>
10002db4:	9907      	ldr	r1, [sp, #28]
10002db6:	1c05      	adds	r5, r0, #0
10002db8:	f004 ffe7 	bl	10007d8a <__wrap___aeabi_fmul>
10002dbc:	1c31      	adds	r1, r6, #0
10002dbe:	f004 ffcd 	bl	10007d5c <__wrap___aeabi_fadd>
10002dc2:	9908      	ldr	r1, [sp, #32]
10002dc4:	1c06      	adds	r6, r0, #0
10002dc6:	1c28      	adds	r0, r5, #0
10002dc8:	f004 ffdf 	bl	10007d8a <__wrap___aeabi_fmul>
10002dcc:	1c29      	adds	r1, r5, #0
10002dce:	f004 ffdc 	bl	10007d8a <__wrap___aeabi_fmul>
10002dd2:	1c01      	adds	r1, r0, #0
10002dd4:	1c30      	adds	r0, r6, #0
10002dd6:	f004 ffc1 	bl	10007d5c <__wrap___aeabi_fadd>
10002dda:	1c39      	adds	r1, r7, #0
10002ddc:	1c06      	adds	r6, r0, #0
10002dde:	1c28      	adds	r0, r5, #0
10002de0:	f004 ffd3 	bl	10007d8a <__wrap___aeabi_fmul>
10002de4:	1c29      	adds	r1, r5, #0
10002de6:	f004 ffd0 	bl	10007d8a <__wrap___aeabi_fmul>
10002dea:	1c29      	adds	r1, r5, #0
10002dec:	f004 ffcd 	bl	10007d8a <__wrap___aeabi_fmul>
10002df0:	1c01      	adds	r1, r0, #0
10002df2:	1c30      	adds	r0, r6, #0
10002df4:	f004 ffb2 	bl	10007d5c <__wrap___aeabi_fadd>
10002df8:	f005 f80e 	bl	10007e18 <__wrap___aeabi_f2d>
10002dfc:	0006      	movs	r6, r0
10002dfe:	1c20      	adds	r0, r4, #0
10002e00:	000f      	movs	r7, r1
10002e02:	f005 f809 	bl	10007e18 <__wrap___aeabi_f2d>
10002e06:	9600      	str	r6, [sp, #0]
10002e08:	9701      	str	r7, [sp, #4]
10002e0a:	0002      	movs	r2, r0
10002e0c:	000b      	movs	r3, r1
10002e0e:	485c      	ldr	r0, [pc, #368]	@ (10002f80 <loop+0x2810>)
10002e10:	f005 fa3a 	bl	10008288 <__wrap_printf>
10002e14:	e779      	b.n	10002d0a <loop+0x259a>
10002e16:	9b14      	ldr	r3, [sp, #80]	@ 0x50
10002e18:	9f1d      	ldr	r7, [sp, #116]	@ 0x74
10002e1a:	9308      	str	r3, [sp, #32]
10002e1c:	9b15      	ldr	r3, [sp, #84]	@ 0x54
10002e1e:	4e59      	ldr	r6, [pc, #356]	@ (10002f84 <loop+0x2814>)
10002e20:	494c      	ldr	r1, [pc, #304]	@ (10002f54 <loop+0x27e4>)
10002e22:	9307      	str	r3, [sp, #28]
10002e24:	e7c3      	b.n	10002dae <loop+0x263e>
10002e26:	9b12      	ldr	r3, [sp, #72]	@ 0x48
10002e28:	9f1c      	ldr	r7, [sp, #112]	@ 0x70
10002e2a:	9308      	str	r3, [sp, #32]
10002e2c:	9b13      	ldr	r3, [sp, #76]	@ 0x4c
10002e2e:	4e56      	ldr	r6, [pc, #344]	@ (10002f88 <loop+0x2818>)
10002e30:	4949      	ldr	r1, [pc, #292]	@ (10002f58 <loop+0x27e8>)
10002e32:	9307      	str	r3, [sp, #28]
10002e34:	e7bb      	b.n	10002dae <loop+0x263e>
10002e36:	9e09      	ldr	r6, [sp, #36]	@ 0x24
10002e38:	9f21      	ldr	r7, [sp, #132]	@ 0x84
10002e3a:	0032      	movs	r2, r6
10002e3c:	2000      	movs	r0, #0
10002e3e:	2100      	movs	r1, #0
10002e40:	f000 faba 	bl	100033b8 <get_asf>
10002e44:	2303      	movs	r3, #3
10002e46:	0032      	movs	r2, r6
10002e48:	2100      	movs	r1, #0
10002e4a:	2006      	movs	r0, #6
10002e4c:	f000 fb0e 	bl	1000346c <send_channel>
10002e50:	3f01      	subs	r7, #1
10002e52:	2001      	movs	r0, #1
10002e54:	6125      	str	r5, [r4, #16]
10002e56:	f001 fcf7 	bl	10004848 <sleep_ms>
10002e5a:	2f00      	cmp	r7, #0
10002e5c:	d000      	beq.n	10002e60 <loop+0x26f0>
10002e5e:	e6f7      	b.n	10002c50 <loop+0x24e0>
10002e60:	f7fd fdb4 	bl	100009cc <loop+0x25c>
10002e64:	9b0c      	ldr	r3, [sp, #48]	@ 0x30
10002e66:	9f19      	ldr	r7, [sp, #100]	@ 0x64
10002e68:	9308      	str	r3, [sp, #32]
10002e6a:	9b0d      	ldr	r3, [sp, #52]	@ 0x34
10002e6c:	4e47      	ldr	r6, [pc, #284]	@ (10002f8c <loop+0x281c>)
10002e6e:	493d      	ldr	r1, [pc, #244]	@ (10002f64 <loop+0x27f4>)
10002e70:	9307      	str	r3, [sp, #28]
10002e72:	e79c      	b.n	10002dae <loop+0x263e>
10002e74:	9b10      	ldr	r3, [sp, #64]	@ 0x40
10002e76:	9f1b      	ldr	r7, [sp, #108]	@ 0x6c
10002e78:	9308      	str	r3, [sp, #32]
10002e7a:	9b11      	ldr	r3, [sp, #68]	@ 0x44
10002e7c:	4e44      	ldr	r6, [pc, #272]	@ (10002f90 <loop+0x2820>)
10002e7e:	4937      	ldr	r1, [pc, #220]	@ (10002f5c <loop+0x27ec>)
10002e80:	9307      	str	r3, [sp, #28]
10002e82:	e794      	b.n	10002dae <loop+0x263e>
10002e84:	9b0e      	ldr	r3, [sp, #56]	@ 0x38
10002e86:	9f1a      	ldr	r7, [sp, #104]	@ 0x68
10002e88:	9308      	str	r3, [sp, #32]
10002e8a:	9b0f      	ldr	r3, [sp, #60]	@ 0x3c
10002e8c:	4e41      	ldr	r6, [pc, #260]	@ (10002f94 <loop+0x2824>)
10002e8e:	4934      	ldr	r1, [pc, #208]	@ (10002f60 <loop+0x27f0>)
10002e90:	9307      	str	r3, [sp, #28]
10002e92:	e78c      	b.n	10002dae <loop+0x263e>
10002e94:	2600      	movs	r6, #0
10002e96:	9b0a      	ldr	r3, [sp, #40]	@ 0x28
10002e98:	9f18      	ldr	r7, [sp, #96]	@ 0x60
10002e9a:	9308      	str	r3, [sp, #32]
10002e9c:	9b0b      	ldr	r3, [sp, #44]	@ 0x2c
10002e9e:	1c31      	adds	r1, r6, #0
10002ea0:	9307      	str	r3, [sp, #28]
10002ea2:	e784      	b.n	10002dae <loop+0x263e>
10002ea4:	aa24      	add	r2, sp, #144	@ 0x90
10002ea6:	2000      	movs	r0, #0
10002ea8:	493b      	ldr	r1, [pc, #236]	@ (10002f98 <loop+0x2828>)
10002eaa:	f000 fa85 	bl	100033b8 <get_asf>
10002eae:	0006      	movs	r6, r0
10002eb0:	000f      	movs	r7, r1
10002eb2:	4d2e      	ldr	r5, [pc, #184]	@ (10002f6c <loop+0x27fc>)
10002eb4:	2303      	movs	r3, #3
10002eb6:	0021      	movs	r1, r4
10002eb8:	2006      	movs	r0, #6
10002eba:	aa24      	add	r2, sp, #144	@ 0x90
10002ebc:	f000 fad6 	bl	1000346c <send_channel>
10002ec0:	0030      	movs	r0, r6
10002ec2:	0039      	movs	r1, r7
10002ec4:	aa24      	add	r2, sp, #144	@ 0x90
10002ec6:	612c      	str	r4, [r5, #16]
10002ec8:	f000 fa76 	bl	100033b8 <get_asf>
10002ecc:	2303      	movs	r3, #3
10002ece:	2101      	movs	r1, #1
10002ed0:	2006      	movs	r0, #6
10002ed2:	aa24      	add	r2, sp, #144	@ 0x90
10002ed4:	f000 faca 	bl	1000346c <send_channel>
10002ed8:	2280      	movs	r2, #128	@ 0x80
10002eda:	491c      	ldr	r1, [pc, #112]	@ (10002f4c <loop+0x27dc>)
10002edc:	ab25      	add	r3, sp, #148	@ 0x94
10002ede:	612c      	str	r4, [r5, #16]
10002ee0:	0612      	lsls	r2, r2, #24
10002ee2:	9300      	str	r3, [sp, #0]
10002ee4:	0008      	movs	r0, r1
10002ee6:	4b2d      	ldr	r3, [pc, #180]	@ (10002f9c <loop+0x282c>)
10002ee8:	4688      	mov	r8, r1
10002eea:	f000 fa8b 	bl	10003404 <get_ftw>
10002eee:	2304      	movs	r3, #4
10002ef0:	0006      	movs	r6, r0
10002ef2:	000f      	movs	r7, r1
10002ef4:	0018      	movs	r0, r3
10002ef6:	0021      	movs	r1, r4
10002ef8:	aa25      	add	r2, sp, #148	@ 0x94
10002efa:	f000 fab7 	bl	1000346c <send_channel>
10002efe:	ab25      	add	r3, sp, #148	@ 0x94
10002f00:	0032      	movs	r2, r6
10002f02:	612c      	str	r4, [r5, #16]
10002f04:	4640      	mov	r0, r8
10002f06:	9300      	str	r3, [sp, #0]
10002f08:	003b      	movs	r3, r7
10002f0a:	f000 fa7b 	bl	10003404 <get_ftw>
10002f0e:	2304      	movs	r3, #4
10002f10:	0006      	movs	r6, r0
10002f12:	000f      	movs	r7, r1
10002f14:	0018      	movs	r0, r3
10002f16:	2101      	movs	r1, #1
10002f18:	aa25      	add	r2, sp, #148	@ 0x94
10002f1a:	f000 faa7 	bl	1000346c <send_channel>
10002f1e:	4b20      	ldr	r3, [pc, #128]	@ (10002fa0 <loop+0x2830>)
10002f20:	612c      	str	r4, [r5, #16]
10002f22:	781b      	ldrb	r3, [r3, #0]
10002f24:	2b00      	cmp	r3, #0
10002f26:	d101      	bne.n	10002f2c <loop+0x27bc>
10002f28:	f7fd fd96 	bl	10000a58 <loop+0x2e8>
10002f2c:	0032      	movs	r2, r6
10002f2e:	003b      	movs	r3, r7
10002f30:	481c      	ldr	r0, [pc, #112]	@ (10002fa4 <loop+0x2834>)
10002f32:	f005 f9a9 	bl	10008288 <__wrap_printf>
10002f36:	f7fd fd8f 	bl	10000a58 <loop+0x2e8>
10002f3a:	46c0      	nop			@ (mov r8, r8)
10002f3c:	401c0000 	.word	0x401c0000
10002f40:	40080000 	.word	0x40080000
10002f44:	3f506252 	.word	0x3f506252
10002f48:	41a80000 	.word	0x41a80000
10002f4c:	20001528 	.word	0x20001528
10002f50:	1000b164 	.word	0x1000b164
10002f54:	42b90000 	.word	0x42b90000
10002f58:	42c70000 	.word	0x42c70000
10002f5c:	42d50000 	.word	0x42d50000
10002f60:	42e30000 	.word	0x42e30000
10002f64:	42f10000 	.word	0x42f10000
10002f68:	1000aef8 	.word	0x1000aef8
10002f6c:	50200000 	.word	0x50200000
10002f70:	3fe00000 	.word	0x3fe00000
10002f74:	412e8480 	.word	0x412e8480
10002f78:	42ab0000 	.word	0x42ab0000
10002f7c:	3f2e5604 	.word	0x3f2e5604
10002f80:	1000af30 	.word	0x1000af30
10002f84:	3f3020c5 	.word	0x3f3020c5
10002f88:	3f3c2268 	.word	0x3f3c2268
10002f8c:	3f666666 	.word	0x3f666666
10002f90:	3f35c28f 	.word	0x3f35c28f
10002f94:	3f428f5c 	.word	0x3f428f5c
10002f98:	3ff00000 	.word	0x3ff00000
10002f9c:	4197b8ff 	.word	0x4197b8ff
10002fa0:	20000ff8 	.word	0x20000ff8
10002fa4:	1000b100 	.word	0x1000b100
10002fa8:	ab24      	add	r3, sp, #144	@ 0x90
10002faa:	469a      	mov	sl, r3
10002fac:	001a      	movs	r2, r3
10002fae:	4890      	ldr	r0, [pc, #576]	@ (100031f0 <loop+0x2a80>)
10002fb0:	4990      	ldr	r1, [pc, #576]	@ (100031f4 <loop+0x2a84>)
10002fb2:	f000 fa01 	bl	100033b8 <get_asf>
10002fb6:	2303      	movs	r3, #3
10002fb8:	4652      	mov	r2, sl
10002fba:	2100      	movs	r1, #0
10002fbc:	2006      	movs	r0, #6
10002fbe:	f000 fa55 	bl	1000346c <send_channel>
10002fc2:	2280      	movs	r2, #128	@ 0x80
10002fc4:	4d8c      	ldr	r5, [pc, #560]	@ (100031f8 <loop+0x2a88>)
10002fc6:	ae25      	add	r6, sp, #148	@ 0x94
10002fc8:	4b8c      	ldr	r3, [pc, #560]	@ (100031fc <loop+0x2a8c>)
10002fca:	612c      	str	r4, [r5, #16]
10002fcc:	0612      	lsls	r2, r2, #24
10002fce:	9600      	str	r6, [sp, #0]
10002fd0:	488b      	ldr	r0, [pc, #556]	@ (10003200 <loop+0x2a90>)
10002fd2:	f000 fa17 	bl	10003404 <get_ftw>
10002fd6:	2304      	movs	r3, #4
10002fd8:	4657      	mov	r7, sl
10002fda:	0032      	movs	r2, r6
10002fdc:	2100      	movs	r1, #0
10002fde:	0018      	movs	r0, r3
10002fe0:	4e88      	ldr	r6, [pc, #544]	@ (10003204 <loop+0x2a94>)
10002fe2:	f000 fa43 	bl	1000346c <send_channel>
10002fe6:	612c      	str	r4, [r5, #16]
10002fe8:	2401      	movs	r4, #1
10002fea:	0020      	movs	r0, r4
10002fec:	f004 fa76 	bl	100074dc <__wrap___aeabi_i2d>
10002ff0:	4a85      	ldr	r2, [pc, #532]	@ (10003208 <loop+0x2a98>)
10002ff2:	4b86      	ldr	r3, [pc, #536]	@ (1000320c <loop+0x2a9c>)
10002ff4:	f004 fa09 	bl	1000740a <__wrap___aeabi_dmul>
10002ff8:	4b7e      	ldr	r3, [pc, #504]	@ (100031f4 <loop+0x2a84>)
10002ffa:	4a7d      	ldr	r2, [pc, #500]	@ (100031f0 <loop+0x2a80>)
10002ffc:	f004 f9de 	bl	100073bc <__wrap___aeabi_dadd>
10003000:	003a      	movs	r2, r7
10003002:	f000 f9d9 	bl	100033b8 <get_asf>
10003006:	2303      	movs	r3, #3
10003008:	2006      	movs	r0, #6
1000300a:	003a      	movs	r2, r7
1000300c:	2100      	movs	r1, #0
1000300e:	f000 fa2d 	bl	1000346c <send_channel>
10003012:	2300      	movs	r3, #0
10003014:	3401      	adds	r4, #1
10003016:	2001      	movs	r0, #1
10003018:	612b      	str	r3, [r5, #16]
1000301a:	f001 fc15 	bl	10004848 <sleep_ms>
1000301e:	2c33      	cmp	r4, #51	@ 0x33
10003020:	d1e3      	bne.n	10002fea <loop+0x287a>
10003022:	3e01      	subs	r6, #1
10003024:	2e00      	cmp	r6, #0
10003026:	d1df      	bne.n	10002fe8 <loop+0x2878>
10003028:	2200      	movs	r2, #0
1000302a:	2303      	movs	r3, #3
1000302c:	0011      	movs	r1, r2
1000302e:	2006      	movs	r0, #6
10003030:	f000 fa1c 	bl	1000346c <send_channel>
10003034:	612e      	str	r6, [r5, #16]
10003036:	f7fd fcc9 	bl	100009cc <loop+0x25c>
1000303a:	4b75      	ldr	r3, [pc, #468]	@ (10003210 <loop+0x2aa0>)
1000303c:	88b2      	ldrh	r2, [r6, #4]
1000303e:	429a      	cmp	r2, r3
10003040:	d001      	beq.n	10003046 <loop+0x28d6>
10003042:	f7fd fc04 	bl	1000084e <loop+0xde>
10003046:	ab24      	add	r3, sp, #144	@ 0x90
10003048:	469a      	mov	sl, r3
1000304a:	2400      	movs	r4, #0
1000304c:	001a      	movs	r2, r3
1000304e:	4871      	ldr	r0, [pc, #452]	@ (10003214 <loop+0x2aa4>)
10003050:	4971      	ldr	r1, [pc, #452]	@ (10003218 <loop+0x2aa8>)
10003052:	f000 f9b1 	bl	100033b8 <get_asf>
10003056:	2303      	movs	r3, #3
10003058:	4652      	mov	r2, sl
1000305a:	0021      	movs	r1, r4
1000305c:	2006      	movs	r0, #6
1000305e:	f000 fa05 	bl	1000346c <send_channel>
10003062:	4b65      	ldr	r3, [pc, #404]	@ (100031f8 <loop+0x2a88>)
10003064:	4f6d      	ldr	r7, [pc, #436]	@ (1000321c <loop+0x2aac>)
10003066:	611c      	str	r4, [r3, #16]
10003068:	4b65      	ldr	r3, [pc, #404]	@ (10003200 <loop+0x2a90>)
1000306a:	aa25      	add	r2, sp, #148	@ 0x94
1000306c:	46b9      	mov	r9, r7
1000306e:	4693      	mov	fp, r2
10003070:	4657      	mov	r7, sl
10003072:	4698      	mov	r8, r3
10003074:	003a      	movs	r2, r7
10003076:	486a      	ldr	r0, [pc, #424]	@ (10003220 <loop+0x2ab0>)
10003078:	496a      	ldr	r1, [pc, #424]	@ (10003224 <loop+0x2ab4>)
1000307a:	f000 f99d 	bl	100033b8 <get_asf>
1000307e:	2303      	movs	r3, #3
10003080:	003a      	movs	r2, r7
10003082:	2100      	movs	r1, #0
10003084:	2006      	movs	r0, #6
10003086:	f000 f9f1 	bl	1000346c <send_channel>
1000308a:	2500      	movs	r5, #0
1000308c:	465b      	mov	r3, fp
1000308e:	2280      	movs	r2, #128	@ 0x80
10003090:	4c59      	ldr	r4, [pc, #356]	@ (100031f8 <loop+0x2a88>)
10003092:	0612      	lsls	r2, r2, #24
10003094:	6125      	str	r5, [r4, #16]
10003096:	4640      	mov	r0, r8
10003098:	9300      	str	r3, [sp, #0]
1000309a:	4b58      	ldr	r3, [pc, #352]	@ (100031fc <loop+0x2a8c>)
1000309c:	f000 f9b2 	bl	10003404 <get_ftw>
100030a0:	2304      	movs	r3, #4
100030a2:	465a      	mov	r2, fp
100030a4:	2100      	movs	r1, #0
100030a6:	2004      	movs	r0, #4
100030a8:	f000 f9e0 	bl	1000346c <send_channel>
100030ac:	6125      	str	r5, [r4, #16]
100030ae:	2400      	movs	r4, #0
100030b0:	2001      	movs	r0, #1
100030b2:	f001 fbc9 	bl	10004848 <sleep_ms>
100030b6:	003a      	movs	r2, r7
100030b8:	2000      	movs	r0, #0
100030ba:	2100      	movs	r1, #0
100030bc:	f000 f97c 	bl	100033b8 <get_asf>
100030c0:	2303      	movs	r3, #3
100030c2:	003a      	movs	r2, r7
100030c4:	2100      	movs	r1, #0
100030c6:	2006      	movs	r0, #6
100030c8:	f000 f9d0 	bl	1000346c <send_channel>
100030cc:	2600      	movs	r6, #0
100030ce:	465b      	mov	r3, fp
100030d0:	4d49      	ldr	r5, [pc, #292]	@ (100031f8 <loop+0x2a88>)
100030d2:	2200      	movs	r2, #0
100030d4:	612e      	str	r6, [r5, #16]
100030d6:	4640      	mov	r0, r8
100030d8:	9300      	str	r3, [sp, #0]
100030da:	2300      	movs	r3, #0
100030dc:	f000 f992 	bl	10003404 <get_ftw>
100030e0:	3401      	adds	r4, #1
100030e2:	2304      	movs	r3, #4
100030e4:	465a      	mov	r2, fp
100030e6:	2100      	movs	r1, #0
100030e8:	2004      	movs	r0, #4
100030ea:	f000 f9bf 	bl	1000346c <send_channel>
100030ee:	612e      	str	r6, [r5, #16]
100030f0:	2c06      	cmp	r4, #6
100030f2:	d023      	beq.n	1000313c <loop+0x29cc>
100030f4:	2c01      	cmp	r4, #1
100030f6:	d039      	beq.n	1000316c <loop+0x29fc>
100030f8:	2c02      	cmp	r4, #2
100030fa:	d053      	beq.n	100031a4 <loop+0x2a34>
100030fc:	2c03      	cmp	r4, #3
100030fe:	d064      	beq.n	100031ca <loop+0x2a5a>
10003100:	465b      	mov	r3, fp
10003102:	2280      	movs	r2, #128	@ 0x80
10003104:	9300      	str	r3, [sp, #0]
10003106:	0612      	lsls	r2, r2, #24
10003108:	2c04      	cmp	r4, #4
1000310a:	d020      	beq.n	1000314e <loop+0x29de>
1000310c:	4b46      	ldr	r3, [pc, #280]	@ (10003228 <loop+0x2ab8>)
1000310e:	4640      	mov	r0, r8
10003110:	f000 f978 	bl	10003404 <get_ftw>
10003114:	465a      	mov	r2, fp
10003116:	2100      	movs	r1, #0
10003118:	2004      	movs	r0, #4
1000311a:	2304      	movs	r3, #4
1000311c:	f000 f9a6 	bl	1000346c <send_channel>
10003120:	003a      	movs	r2, r7
10003122:	4842      	ldr	r0, [pc, #264]	@ (1000322c <loop+0x2abc>)
10003124:	4942      	ldr	r1, [pc, #264]	@ (10003230 <loop+0x2ac0>)
10003126:	612e      	str	r6, [r5, #16]
10003128:	f000 f946 	bl	100033b8 <get_asf>
1000312c:	2303      	movs	r3, #3
1000312e:	003a      	movs	r2, r7
10003130:	2100      	movs	r1, #0
10003132:	2006      	movs	r0, #6
10003134:	f000 f99a 	bl	1000346c <send_channel>
10003138:	612e      	str	r6, [r5, #16]
1000313a:	e7b9      	b.n	100030b0 <loop+0x2940>
1000313c:	2301      	movs	r3, #1
1000313e:	425b      	negs	r3, r3
10003140:	469c      	mov	ip, r3
10003142:	44e1      	add	r9, ip
10003144:	464b      	mov	r3, r9
10003146:	2b00      	cmp	r3, #0
10003148:	d194      	bne.n	10003074 <loop+0x2904>
1000314a:	f7fd fc3f 	bl	100009cc <loop+0x25c>
1000314e:	4b39      	ldr	r3, [pc, #228]	@ (10003234 <loop+0x2ac4>)
10003150:	4640      	mov	r0, r8
10003152:	f000 f957 	bl	10003404 <get_ftw>
10003156:	465a      	mov	r2, fp
10003158:	2100      	movs	r1, #0
1000315a:	2004      	movs	r0, #4
1000315c:	2304      	movs	r3, #4
1000315e:	f000 f985 	bl	1000346c <send_channel>
10003162:	003a      	movs	r2, r7
10003164:	4834      	ldr	r0, [pc, #208]	@ (10003238 <loop+0x2ac8>)
10003166:	4935      	ldr	r1, [pc, #212]	@ (1000323c <loop+0x2acc>)
10003168:	612e      	str	r6, [r5, #16]
1000316a:	e7dd      	b.n	10003128 <loop+0x29b8>
1000316c:	003a      	movs	r2, r7
1000316e:	4834      	ldr	r0, [pc, #208]	@ (10003240 <loop+0x2ad0>)
10003170:	4934      	ldr	r1, [pc, #208]	@ (10003244 <loop+0x2ad4>)
10003172:	f000 f921 	bl	100033b8 <get_asf>
10003176:	2303      	movs	r3, #3
10003178:	003a      	movs	r2, r7
1000317a:	2100      	movs	r1, #0
1000317c:	2006      	movs	r0, #6
1000317e:	f000 f975 	bl	1000346c <send_channel>
10003182:	465b      	mov	r3, fp
10003184:	2280      	movs	r2, #128	@ 0x80
10003186:	612e      	str	r6, [r5, #16]
10003188:	9300      	str	r3, [sp, #0]
1000318a:	4b2f      	ldr	r3, [pc, #188]	@ (10003248 <loop+0x2ad8>)
1000318c:	0612      	lsls	r2, r2, #24
1000318e:	4640      	mov	r0, r8
10003190:	f000 f938 	bl	10003404 <get_ftw>
10003194:	2304      	movs	r3, #4
10003196:	465a      	mov	r2, fp
10003198:	2100      	movs	r1, #0
1000319a:	2004      	movs	r0, #4
1000319c:	f000 f966 	bl	1000346c <send_channel>
100031a0:	612e      	str	r6, [r5, #16]
100031a2:	e785      	b.n	100030b0 <loop+0x2940>
100031a4:	465b      	mov	r3, fp
100031a6:	2280      	movs	r2, #128	@ 0x80
100031a8:	9300      	str	r3, [sp, #0]
100031aa:	0612      	lsls	r2, r2, #24
100031ac:	4b27      	ldr	r3, [pc, #156]	@ (1000324c <loop+0x2adc>)
100031ae:	4640      	mov	r0, r8
100031b0:	f000 f928 	bl	10003404 <get_ftw>
100031b4:	465a      	mov	r2, fp
100031b6:	2100      	movs	r1, #0
100031b8:	2004      	movs	r0, #4
100031ba:	2304      	movs	r3, #4
100031bc:	f000 f956 	bl	1000346c <send_channel>
100031c0:	003a      	movs	r2, r7
100031c2:	4823      	ldr	r0, [pc, #140]	@ (10003250 <loop+0x2ae0>)
100031c4:	4923      	ldr	r1, [pc, #140]	@ (10003254 <loop+0x2ae4>)
100031c6:	612e      	str	r6, [r5, #16]
100031c8:	e7ae      	b.n	10003128 <loop+0x29b8>
100031ca:	003a      	movs	r2, r7
100031cc:	4822      	ldr	r0, [pc, #136]	@ (10003258 <loop+0x2ae8>)
100031ce:	4923      	ldr	r1, [pc, #140]	@ (1000325c <loop+0x2aec>)
100031d0:	f000 f8f2 	bl	100033b8 <get_asf>
100031d4:	2303      	movs	r3, #3
100031d6:	003a      	movs	r2, r7
100031d8:	2100      	movs	r1, #0
100031da:	2006      	movs	r0, #6
100031dc:	f000 f946 	bl	1000346c <send_channel>
100031e0:	465b      	mov	r3, fp
100031e2:	2280      	movs	r2, #128	@ 0x80
100031e4:	612e      	str	r6, [r5, #16]
100031e6:	0612      	lsls	r2, r2, #24
100031e8:	9300      	str	r3, [sp, #0]
100031ea:	4b1d      	ldr	r3, [pc, #116]	@ (10003260 <loop+0x2af0>)
100031ec:	e7cf      	b.n	1000318e <loop+0x2a1e>
100031ee:	46c0      	nop			@ (mov r8, r8)
100031f0:	cccccccd 	.word	0xcccccccd
100031f4:	3fe4cccc 	.word	0x3fe4cccc
100031f8:	50200000 	.word	0x50200000
100031fc:	41946281 	.word	0x41946281
10003200:	20001528 	.word	0x20001528
10003204:	000003e7 	.word	0x000003e7
10003208:	d2f1a9fc 	.word	0xd2f1a9fc
1000320c:	3f50624d 	.word	0x3f50624d
10003210:	00006d6f 	.word	0x00006d6f
10003214:	9999999a 	.word	0x9999999a
10003218:	3fe19999 	.word	0x3fe19999
1000321c:	00007530 	.word	0x00007530
10003220:	83126e98 	.word	0x83126e98
10003224:	3fe5cac0 	.word	0x3fe5cac0
10003228:	419cbabc 	.word	0x419cbabc
1000322c:	47ae147b 	.word	0x47ae147b
10003230:	3fec7ae1 	.word	0x3fec7ae1
10003234:	419b0f7d 	.word	0x419b0f7d
10003238:	c28f5c29 	.word	0xc28f5c29
1000323c:	3fe828f5 	.word	0x3fe828f5
10003240:	1eb851ec 	.word	0x1eb851ec
10003244:	3fe5eb85 	.word	0x3fe5eb85
10003248:	41960dc0 	.word	0x41960dc0
1000324c:	4197b8ff 	.word	0x4197b8ff
10003250:	fbe76c8b 	.word	0xfbe76c8b
10003254:	3fe6f1a9 	.word	0x3fe6f1a9
10003258:	db22d0e5 	.word	0xdb22d0e5
1000325c:	3fe67ef9 	.word	0x3fe67ef9
10003260:	4199643e 	.word	0x4199643e

10003264 <main>:
10003264:	b510      	push	{r4, lr}
10003266:	2019      	movs	r0, #25
10003268:	b086      	sub	sp, #24
1000326a:	f000 fc2d 	bl	10003ac8 <gpio_init>
1000326e:	23d0      	movs	r3, #208	@ 0xd0
10003270:	2280      	movs	r2, #128	@ 0x80
10003272:	061b      	lsls	r3, r3, #24
10003274:	0492      	lsls	r2, r2, #18
10003276:	625a      	str	r2, [r3, #36]	@ 0x24
10003278:	619a      	str	r2, [r3, #24]
1000327a:	615a      	str	r2, [r3, #20]
1000327c:	f005 f810 	bl	100082a0 <stdio_init_all>
10003280:	483d      	ldr	r0, [pc, #244]	@ (10003378 <main+0x114>)
10003282:	ab05      	add	r3, sp, #20
10003284:	aa04      	add	r2, sp, #16
10003286:	a903      	add	r1, sp, #12
10003288:	f000 fafe 	bl	10003888 <check_sys_clock_khz>
1000328c:	2800      	cmp	r0, #0
1000328e:	d16d      	bne.n	1000336c <main+0x108>
10003290:	2300      	movs	r3, #0
10003292:	2201      	movs	r2, #1
10003294:	2106      	movs	r1, #6
10003296:	2015      	movs	r0, #21
10003298:	f002 f8c0 	bl	1000541c <clock_gpio_init_int_frac>
1000329c:	4b37      	ldr	r3, [pc, #220]	@ (1000337c <main+0x118>)
1000329e:	4c38      	ldr	r4, [pc, #224]	@ (10003380 <main+0x11c>)
100032a0:	2201      	movs	r2, #1
100032a2:	9300      	str	r3, [sp, #0]
100032a4:	2100      	movs	r1, #0
100032a6:	2006      	movs	r0, #6
100032a8:	f001 fea2 	bl	10004ff0 <clock_configure>
100032ac:	0020      	movs	r0, r4
100032ae:	4935      	ldr	r1, [pc, #212]	@ (10003384 <main+0x120>)
100032b0:	f007 fa32 	bl	1000a718 <spi_init>
100032b4:	2202      	movs	r2, #2
100032b6:	4934      	ldr	r1, [pc, #208]	@ (10003388 <main+0x124>)
100032b8:	6863      	ldr	r3, [r4, #4]
100032ba:	600a      	str	r2, [r1, #0]
100032bc:	6821      	ldr	r1, [r4, #0]
100032be:	4013      	ands	r3, r2
100032c0:	3205      	adds	r2, #5
100032c2:	4051      	eors	r1, r2
100032c4:	32c8      	adds	r2, #200	@ 0xc8
100032c6:	400a      	ands	r2, r1
100032c8:	4930      	ldr	r1, [pc, #192]	@ (1000338c <main+0x128>)
100032ca:	200c      	movs	r0, #12
100032cc:	600a      	str	r2, [r1, #0]
100032ce:	4a30      	ldr	r2, [pc, #192]	@ (10003390 <main+0x12c>)
100032d0:	2101      	movs	r1, #1
100032d2:	6013      	str	r3, [r2, #0]
100032d4:	f000 fbe0 	bl	10003a98 <gpio_set_function>
100032d8:	2101      	movs	r1, #1
100032da:	200e      	movs	r0, #14
100032dc:	f000 fbdc 	bl	10003a98 <gpio_set_function>
100032e0:	2101      	movs	r1, #1
100032e2:	200f      	movs	r0, #15
100032e4:	f000 fbd8 	bl	10003a98 <gpio_set_function>
100032e8:	482a      	ldr	r0, [pc, #168]	@ (10003394 <main+0x130>)
100032ea:	f007 f9e9 	bl	1000a6c0 <multicore_launch_core1>
100032ee:	f007 f997 	bl	1000a620 <multicore_fifo_pop_blocking>
100032f2:	4829      	ldr	r0, [pc, #164]	@ (10003398 <main+0x134>)
100032f4:	f000 ff8a 	bl	1000420c <mutex_init>
100032f8:	4828      	ldr	r0, [pc, #160]	@ (1000339c <main+0x138>)
100032fa:	f000 ff87 	bl	1000420c <mutex_init>
100032fe:	f7fd f90d 	bl	1000051c <init_pio>
10003302:	2001      	movs	r0, #1
10003304:	f007 fc2e 	bl	1000ab64 <dma_claim_unused_channel>
10003308:	21a0      	movs	r1, #160	@ 0xa0
1000330a:	05c9      	lsls	r1, r1, #23
1000330c:	468c      	mov	ip, r1
1000330e:	4b24      	ldr	r3, [pc, #144]	@ (100033a0 <main+0x13c>)
10003310:	4a24      	ldr	r2, [pc, #144]	@ (100033a4 <main+0x140>)
10003312:	6018      	str	r0, [r3, #0]
10003314:	02c3      	lsls	r3, r0, #11
10003316:	4013      	ands	r3, r2
10003318:	4a23      	ldr	r2, [pc, #140]	@ (100033a8 <main+0x144>)
1000331a:	4924      	ldr	r1, [pc, #144]	@ (100033ac <main+0x148>)
1000331c:	431a      	orrs	r2, r3
1000331e:	0183      	lsls	r3, r0, #6
10003320:	4463      	add	r3, ip
10003322:	6019      	str	r1, [r3, #0]
10003324:	4922      	ldr	r1, [pc, #136]	@ (100033b0 <main+0x14c>)
10003326:	200a      	movs	r0, #10
10003328:	6059      	str	r1, [r3, #4]
1000332a:	2100      	movs	r1, #0
1000332c:	6099      	str	r1, [r3, #8]
1000332e:	611a      	str	r2, [r3, #16]
10003330:	f000 fbca 	bl	10003ac8 <gpio_init>
10003334:	24d0      	movs	r4, #208	@ 0xd0
10003336:	2380      	movs	r3, #128	@ 0x80
10003338:	0624      	lsls	r4, r4, #24
1000333a:	00db      	lsls	r3, r3, #3
1000333c:	6263      	str	r3, [r4, #36]	@ 0x24
1000333e:	2009      	movs	r0, #9
10003340:	61a3      	str	r3, [r4, #24]
10003342:	f000 fbc1 	bl	10003ac8 <gpio_init>
10003346:	2380      	movs	r3, #128	@ 0x80
10003348:	009b      	lsls	r3, r3, #2
1000334a:	6263      	str	r3, [r4, #36]	@ 0x24
1000334c:	61a3      	str	r3, [r4, #24]
1000334e:	4c19      	ldr	r4, [pc, #100]	@ (100033b4 <main+0x150>)
10003350:	2300      	movs	r3, #0
10003352:	0020      	movs	r0, r4
10003354:	4a09      	ldr	r2, [pc, #36]	@ (1000337c <main+0x118>)
10003356:	f000 fa0b 	bl	10003770 <set_ref_clk>
1000335a:	2104      	movs	r1, #4
1000335c:	0020      	movs	r0, r4
1000335e:	f000 f9e1 	bl	10003724 <set_pll_mult>
10003362:	f7fd f9d7 	bl	10000714 <reset>
10003366:	f7fd fa03 	bl	10000770 <loop>
1000336a:	e7fc      	b.n	10003366 <main+0x102>
1000336c:	9a05      	ldr	r2, [sp, #20]
1000336e:	9904      	ldr	r1, [sp, #16]
10003370:	9803      	ldr	r0, [sp, #12]
10003372:	f000 fa4d 	bl	10003810 <set_sys_clock_pll>
10003376:	e78b      	b.n	10003290 <main+0x2c>
10003378:	0001e848 	.word	0x0001e848
1000337c:	07735940 	.word	0x07735940
10003380:	40040000 	.word	0x40040000
10003384:	05f5e100 	.word	0x05f5e100
10003388:	40043004 	.word	0x40043004
1000338c:	40041000 	.word	0x40041000
10003390:	40042004 	.word	0x40042004
10003394:	10000355 	.word	0x10000355
10003398:	2003f3a8 	.word	0x2003f3a8
1000339c:	2003f3e4 	.word	0x2003f3e4
100033a0:	2003f3c8 	.word	0x2003f3c8
100033a4:	ff007ff1 	.word	0xff007ff1
100033a8:	00040019 	.word	0x00040019
100033ac:	2003a450 	.word	0x2003a450
100033b0:	50300010 	.word	0x50300010
100033b4:	20001528 	.word	0x20001528

100033b8 <get_asf>:
100033b8:	b510      	push	{r4, lr}
100033ba:	4b0f      	ldr	r3, [pc, #60]	@ (100033f8 <get_asf+0x40>)
100033bc:	0014      	movs	r4, r2
100033be:	2200      	movs	r2, #0
100033c0:	f004 f823 	bl	1000740a <__wrap___aeabi_dmul>
100033c4:	f004 f936 	bl	10007634 <__wrap_round>
100033c8:	f004 f8c4 	bl	10007554 <__wrap___aeabi_d2uiz>
100033cc:	2800      	cmp	r0, #0
100033ce:	d100      	bne.n	100033d2 <get_asf+0x1a>
100033d0:	3001      	adds	r0, #1
100033d2:	2380      	movs	r3, #128	@ 0x80
100033d4:	00db      	lsls	r3, r3, #3
100033d6:	4298      	cmp	r0, r3
100033d8:	d300      	bcc.n	100033dc <get_asf+0x24>
100033da:	4808      	ldr	r0, [pc, #32]	@ (100033fc <get_asf+0x44>)
100033dc:	2300      	movs	r3, #0
100033de:	2210      	movs	r2, #16
100033e0:	7023      	strb	r3, [r4, #0]
100033e2:	0a03      	lsrs	r3, r0, #8
100033e4:	4313      	orrs	r3, r2
100033e6:	7063      	strb	r3, [r4, #1]
100033e8:	70a0      	strb	r0, [r4, #2]
100033ea:	f004 f873 	bl	100074d4 <__wrap___aeabi_ui2d>
100033ee:	2200      	movs	r2, #0
100033f0:	4b03      	ldr	r3, [pc, #12]	@ (10003400 <get_asf+0x48>)
100033f2:	f003 ffec 	bl	100073ce <__wrap___aeabi_ddiv>
100033f6:	bd10      	pop	{r4, pc}
100033f8:	40900000 	.word	0x40900000
100033fc:	000003ff 	.word	0x000003ff
10003400:	408ff800 	.word	0x408ff800

10003404 <get_ftw>:
10003404:	b5f8      	push	{r3, r4, r5, r6, r7, lr}
10003406:	0004      	movs	r4, r0
10003408:	6880      	ldr	r0, [r0, #8]
1000340a:	0016      	movs	r6, r2
1000340c:	001f      	movs	r7, r3
1000340e:	f004 f861 	bl	100074d4 <__wrap___aeabi_ui2d>
10003412:	6822      	ldr	r2, [r4, #0]
10003414:	6863      	ldr	r3, [r4, #4]
10003416:	f003 fff8 	bl	1000740a <__wrap___aeabi_dmul>
1000341a:	000d      	movs	r5, r1
1000341c:	0004      	movs	r4, r0
1000341e:	0039      	movs	r1, r7
10003420:	0030      	movs	r0, r6
10003422:	2200      	movs	r2, #0
10003424:	4b0f      	ldr	r3, [pc, #60]	@ (10003464 <get_ftw+0x60>)
10003426:	f003 fff0 	bl	1000740a <__wrap___aeabi_dmul>
1000342a:	002b      	movs	r3, r5
1000342c:	0022      	movs	r2, r4
1000342e:	f003 ffce 	bl	100073ce <__wrap___aeabi_ddiv>
10003432:	f004 f8ff 	bl	10007634 <__wrap_round>
10003436:	f004 f88d 	bl	10007554 <__wrap___aeabi_d2uiz>
1000343a:	9a06      	ldr	r2, [sp, #24]
1000343c:	0e03      	lsrs	r3, r0, #24
1000343e:	7013      	strb	r3, [r2, #0]
10003440:	0203      	lsls	r3, r0, #8
10003442:	0e1b      	lsrs	r3, r3, #24
10003444:	7053      	strb	r3, [r2, #1]
10003446:	0403      	lsls	r3, r0, #16
10003448:	0e1b      	lsrs	r3, r3, #24
1000344a:	7093      	strb	r3, [r2, #2]
1000344c:	70d0      	strb	r0, [r2, #3]
1000344e:	f004 f841 	bl	100074d4 <__wrap___aeabi_ui2d>
10003452:	002b      	movs	r3, r5
10003454:	0022      	movs	r2, r4
10003456:	f003 ffd8 	bl	1000740a <__wrap___aeabi_dmul>
1000345a:	2200      	movs	r2, #0
1000345c:	4b02      	ldr	r3, [pc, #8]	@ (10003468 <get_ftw+0x64>)
1000345e:	f003 ffd4 	bl	1000740a <__wrap___aeabi_dmul>
10003462:	bdf8      	pop	{r3, r4, r5, r6, r7, pc}
10003464:	41f00000 	.word	0x41f00000
10003468:	3df00000 	.word	0x3df00000

1000346c <send_channel>:
1000346c:	b5f0      	push	{r4, r5, r6, r7, lr}
1000346e:	b085      	sub	sp, #20
10003470:	001e      	movs	r6, r3
10003472:	466b      	mov	r3, sp
10003474:	0015      	movs	r5, r2
10003476:	1ddf      	adds	r7, r3, #7
10003478:	466a      	mov	r2, sp
1000347a:	71d8      	strb	r0, [r3, #7]
1000347c:	2300      	movs	r3, #0
1000347e:	2001      	movs	r0, #1
10003480:	3104      	adds	r1, #4
10003482:	7313      	strb	r3, [r2, #12]
10003484:	4088      	lsls	r0, r1
10003486:	2302      	movs	r3, #2
10003488:	4c09      	ldr	r4, [pc, #36]	@ (100034b0 <send_channel+0x44>)
1000348a:	4318      	orrs	r0, r3
1000348c:	7350      	strb	r0, [r2, #13]
1000348e:	a903      	add	r1, sp, #12
10003490:	2202      	movs	r2, #2
10003492:	0020      	movs	r0, r4
10003494:	f007 fd00 	bl	1000ae98 <__spi_write_blocking_veneer>
10003498:	0039      	movs	r1, r7
1000349a:	2201      	movs	r2, #1
1000349c:	0020      	movs	r0, r4
1000349e:	f007 fcfb 	bl	1000ae98 <__spi_write_blocking_veneer>
100034a2:	0032      	movs	r2, r6
100034a4:	0029      	movs	r1, r5
100034a6:	0020      	movs	r0, r4
100034a8:	f007 fcf6 	bl	1000ae98 <__spi_write_blocking_veneer>
100034ac:	b005      	add	sp, #20
100034ae:	bdf0      	pop	{r4, r5, r6, r7, pc}
100034b0:	40040000 	.word	0x40040000

100034b4 <read_all>:
100034b4:	b5f0      	push	{r4, r5, r6, r7, lr}
100034b6:	46de      	mov	lr, fp
100034b8:	4657      	mov	r7, sl
100034ba:	464e      	mov	r6, r9
100034bc:	4645      	mov	r5, r8
100034be:	b5e0      	push	{r5, r6, r7, lr}
100034c0:	4989      	ldr	r1, [pc, #548]	@ (100036e8 <read_all+0x234>)
100034c2:	b091      	sub	sp, #68	@ 0x44
100034c4:	4889      	ldr	r0, [pc, #548]	@ (100036ec <read_all+0x238>)
100034c6:	f007 f9cf 	bl	1000a868 <spi_set_baudrate>
100034ca:	2380      	movs	r3, #128	@ 0x80
100034cc:	af0a      	add	r7, sp, #40	@ 0x28
100034ce:	ac0b      	add	r4, sp, #44	@ 0x2c
100034d0:	2201      	movs	r2, #1
100034d2:	0039      	movs	r1, r7
100034d4:	703b      	strb	r3, [r7, #0]
100034d6:	4885      	ldr	r0, [pc, #532]	@ (100036ec <read_all+0x238>)
100034d8:	f007 fcde 	bl	1000ae98 <__spi_write_blocking_veneer>
100034dc:	2301      	movs	r3, #1
100034de:	0022      	movs	r2, r4
100034e0:	2100      	movs	r1, #0
100034e2:	4882      	ldr	r0, [pc, #520]	@ (100036ec <read_all+0x238>)
100034e4:	f007 fc88 	bl	1000adf8 <__spi_read_blocking_veneer>
100034e8:	7821      	ldrb	r1, [r4, #0]
100034ea:	4881      	ldr	r0, [pc, #516]	@ (100036f0 <read_all+0x23c>)
100034ec:	f004 fecc 	bl	10008288 <__wrap_printf>
100034f0:	2381      	movs	r3, #129	@ 0x81
100034f2:	2201      	movs	r2, #1
100034f4:	0039      	movs	r1, r7
100034f6:	703b      	strb	r3, [r7, #0]
100034f8:	487c      	ldr	r0, [pc, #496]	@ (100036ec <read_all+0x238>)
100034fa:	f007 fccd 	bl	1000ae98 <__spi_write_blocking_veneer>
100034fe:	2303      	movs	r3, #3
10003500:	0022      	movs	r2, r4
10003502:	2100      	movs	r1, #0
10003504:	4879      	ldr	r0, [pc, #484]	@ (100036ec <read_all+0x238>)
10003506:	f007 fc77 	bl	1000adf8 <__spi_read_blocking_veneer>
1000350a:	78a3      	ldrb	r3, [r4, #2]
1000350c:	7862      	ldrb	r2, [r4, #1]
1000350e:	7821      	ldrb	r1, [r4, #0]
10003510:	4878      	ldr	r0, [pc, #480]	@ (100036f4 <read_all+0x240>)
10003512:	f004 feb9 	bl	10008288 <__wrap_printf>
10003516:	2382      	movs	r3, #130	@ 0x82
10003518:	2201      	movs	r2, #1
1000351a:	0039      	movs	r1, r7
1000351c:	703b      	strb	r3, [r7, #0]
1000351e:	4873      	ldr	r0, [pc, #460]	@ (100036ec <read_all+0x238>)
10003520:	f007 fcba 	bl	1000ae98 <__spi_write_blocking_veneer>
10003524:	2302      	movs	r3, #2
10003526:	0022      	movs	r2, r4
10003528:	2100      	movs	r1, #0
1000352a:	4870      	ldr	r0, [pc, #448]	@ (100036ec <read_all+0x238>)
1000352c:	f007 fc64 	bl	1000adf8 <__spi_read_blocking_veneer>
10003530:	7862      	ldrb	r2, [r4, #1]
10003532:	7821      	ldrb	r1, [r4, #0]
10003534:	4870      	ldr	r0, [pc, #448]	@ (100036f8 <read_all+0x244>)
10003536:	f004 fea7 	bl	10008288 <__wrap_printf>
1000353a:	4b70      	ldr	r3, [pc, #448]	@ (100036fc <read_all+0x248>)
1000353c:	250f      	movs	r5, #15
1000353e:	469b      	mov	fp, r3
10003540:	ab06      	add	r3, sp, #24
10003542:	469c      	mov	ip, r3
10003544:	2600      	movs	r6, #0
10003546:	4b6e      	ldr	r3, [pc, #440]	@ (10003700 <read_all+0x24c>)
10003548:	4465      	add	r5, ip
1000354a:	469a      	mov	sl, r3
1000354c:	4b6d      	ldr	r3, [pc, #436]	@ (10003704 <read_all+0x250>)
1000354e:	4699      	mov	r9, r3
10003550:	4b6d      	ldr	r3, [pc, #436]	@ (10003708 <read_all+0x254>)
10003552:	4698      	mov	r8, r3
10003554:	4b6d      	ldr	r3, [pc, #436]	@ (1000370c <read_all+0x258>)
10003556:	9303      	str	r3, [sp, #12]
10003558:	4b6d      	ldr	r3, [pc, #436]	@ (10003710 <read_all+0x25c>)
1000355a:	9304      	str	r3, [sp, #16]
1000355c:	4b6d      	ldr	r3, [pc, #436]	@ (10003714 <read_all+0x260>)
1000355e:	9305      	str	r3, [sp, #20]
10003560:	4b6d      	ldr	r3, [pc, #436]	@ (10003718 <read_all+0x264>)
10003562:	9306      	str	r3, [sp, #24]
10003564:	4b6d      	ldr	r3, [pc, #436]	@ (1000371c <read_all+0x268>)
10003566:	9307      	str	r3, [sp, #28]
10003568:	0031      	movs	r1, r6
1000356a:	4658      	mov	r0, fp
1000356c:	f004 fe8c 	bl	10008288 <__wrap_printf>
10003570:	2300      	movs	r3, #0
10003572:	2201      	movs	r2, #1
10003574:	703b      	strb	r3, [r7, #0]
10003576:	1d33      	adds	r3, r6, #4
10003578:	409a      	lsls	r2, r3
1000357a:	0013      	movs	r3, r2
1000357c:	2202      	movs	r2, #2
1000357e:	4313      	orrs	r3, r2
10003580:	0039      	movs	r1, r7
10003582:	2202      	movs	r2, #2
10003584:	707b      	strb	r3, [r7, #1]
10003586:	4859      	ldr	r0, [pc, #356]	@ (100036ec <read_all+0x238>)
10003588:	f007 fc86 	bl	1000ae98 <__spi_write_blocking_veneer>
1000358c:	2383      	movs	r3, #131	@ 0x83
1000358e:	2201      	movs	r2, #1
10003590:	0029      	movs	r1, r5
10003592:	702b      	strb	r3, [r5, #0]
10003594:	4855      	ldr	r0, [pc, #340]	@ (100036ec <read_all+0x238>)
10003596:	f007 fc7f 	bl	1000ae98 <__spi_write_blocking_veneer>
1000359a:	2303      	movs	r3, #3
1000359c:	0022      	movs	r2, r4
1000359e:	2100      	movs	r1, #0
100035a0:	4852      	ldr	r0, [pc, #328]	@ (100036ec <read_all+0x238>)
100035a2:	f007 fc29 	bl	1000adf8 <__spi_read_blocking_veneer>
100035a6:	78a3      	ldrb	r3, [r4, #2]
100035a8:	7862      	ldrb	r2, [r4, #1]
100035aa:	7821      	ldrb	r1, [r4, #0]
100035ac:	4650      	mov	r0, sl
100035ae:	f004 fe6b 	bl	10008288 <__wrap_printf>
100035b2:	2384      	movs	r3, #132	@ 0x84
100035b4:	2201      	movs	r2, #1
100035b6:	0029      	movs	r1, r5
100035b8:	702b      	strb	r3, [r5, #0]
100035ba:	484c      	ldr	r0, [pc, #304]	@ (100036ec <read_all+0x238>)
100035bc:	f007 fc6c 	bl	1000ae98 <__spi_write_blocking_veneer>
100035c0:	2304      	movs	r3, #4
100035c2:	0022      	movs	r2, r4
100035c4:	2100      	movs	r1, #0
100035c6:	4849      	ldr	r0, [pc, #292]	@ (100036ec <read_all+0x238>)
100035c8:	f007 fc16 	bl	1000adf8 <__spi_read_blocking_veneer>
100035cc:	78e0      	ldrb	r0, [r4, #3]
100035ce:	78a3      	ldrb	r3, [r4, #2]
100035d0:	7862      	ldrb	r2, [r4, #1]
100035d2:	7821      	ldrb	r1, [r4, #0]
100035d4:	9000      	str	r0, [sp, #0]
100035d6:	4648      	mov	r0, r9
100035d8:	f004 fe56 	bl	10008288 <__wrap_printf>
100035dc:	2385      	movs	r3, #133	@ 0x85
100035de:	2201      	movs	r2, #1
100035e0:	0029      	movs	r1, r5
100035e2:	702b      	strb	r3, [r5, #0]
100035e4:	4841      	ldr	r0, [pc, #260]	@ (100036ec <read_all+0x238>)
100035e6:	f007 fc57 	bl	1000ae98 <__spi_write_blocking_veneer>
100035ea:	2302      	movs	r3, #2
100035ec:	0022      	movs	r2, r4
100035ee:	2100      	movs	r1, #0
100035f0:	483e      	ldr	r0, [pc, #248]	@ (100036ec <read_all+0x238>)
100035f2:	f007 fc01 	bl	1000adf8 <__spi_read_blocking_veneer>
100035f6:	7862      	ldrb	r2, [r4, #1]
100035f8:	7821      	ldrb	r1, [r4, #0]
100035fa:	4640      	mov	r0, r8
100035fc:	f004 fe44 	bl	10008288 <__wrap_printf>
10003600:	2386      	movs	r3, #134	@ 0x86
10003602:	2201      	movs	r2, #1
10003604:	0029      	movs	r1, r5
10003606:	702b      	strb	r3, [r5, #0]
10003608:	4838      	ldr	r0, [pc, #224]	@ (100036ec <read_all+0x238>)
1000360a:	f007 fc45 	bl	1000ae98 <__spi_write_blocking_veneer>
1000360e:	2303      	movs	r3, #3
10003610:	0022      	movs	r2, r4
10003612:	2100      	movs	r1, #0
10003614:	4835      	ldr	r0, [pc, #212]	@ (100036ec <read_all+0x238>)
10003616:	f007 fbef 	bl	1000adf8 <__spi_read_blocking_veneer>
1000361a:	78a3      	ldrb	r3, [r4, #2]
1000361c:	7862      	ldrb	r2, [r4, #1]
1000361e:	7821      	ldrb	r1, [r4, #0]
10003620:	9803      	ldr	r0, [sp, #12]
10003622:	f004 fe31 	bl	10008288 <__wrap_printf>
10003626:	2387      	movs	r3, #135	@ 0x87
10003628:	2201      	movs	r2, #1
1000362a:	0029      	movs	r1, r5
1000362c:	702b      	strb	r3, [r5, #0]
1000362e:	482f      	ldr	r0, [pc, #188]	@ (100036ec <read_all+0x238>)
10003630:	f007 fc32 	bl	1000ae98 <__spi_write_blocking_veneer>
10003634:	2302      	movs	r3, #2
10003636:	0022      	movs	r2, r4
10003638:	2100      	movs	r1, #0
1000363a:	482c      	ldr	r0, [pc, #176]	@ (100036ec <read_all+0x238>)
1000363c:	f007 fbdc 	bl	1000adf8 <__spi_read_blocking_veneer>
10003640:	7862      	ldrb	r2, [r4, #1]
10003642:	7821      	ldrb	r1, [r4, #0]
10003644:	9804      	ldr	r0, [sp, #16]
10003646:	f004 fe1f 	bl	10008288 <__wrap_printf>
1000364a:	2388      	movs	r3, #136	@ 0x88
1000364c:	2201      	movs	r2, #1
1000364e:	0029      	movs	r1, r5
10003650:	702b      	strb	r3, [r5, #0]
10003652:	4826      	ldr	r0, [pc, #152]	@ (100036ec <read_all+0x238>)
10003654:	f007 fc20 	bl	1000ae98 <__spi_write_blocking_veneer>
10003658:	2304      	movs	r3, #4
1000365a:	0022      	movs	r2, r4
1000365c:	2100      	movs	r1, #0
1000365e:	4823      	ldr	r0, [pc, #140]	@ (100036ec <read_all+0x238>)
10003660:	f007 fbca 	bl	1000adf8 <__spi_read_blocking_veneer>
10003664:	78e0      	ldrb	r0, [r4, #3]
10003666:	78a3      	ldrb	r3, [r4, #2]
10003668:	7862      	ldrb	r2, [r4, #1]
1000366a:	7821      	ldrb	r1, [r4, #0]
1000366c:	9000      	str	r0, [sp, #0]
1000366e:	9805      	ldr	r0, [sp, #20]
10003670:	f004 fe0a 	bl	10008288 <__wrap_printf>
10003674:	2389      	movs	r3, #137	@ 0x89
10003676:	2201      	movs	r2, #1
10003678:	0029      	movs	r1, r5
1000367a:	702b      	strb	r3, [r5, #0]
1000367c:	481b      	ldr	r0, [pc, #108]	@ (100036ec <read_all+0x238>)
1000367e:	f007 fc0b 	bl	1000ae98 <__spi_write_blocking_veneer>
10003682:	2304      	movs	r3, #4
10003684:	0022      	movs	r2, r4
10003686:	2100      	movs	r1, #0
10003688:	4818      	ldr	r0, [pc, #96]	@ (100036ec <read_all+0x238>)
1000368a:	f007 fbb5 	bl	1000adf8 <__spi_read_blocking_veneer>
1000368e:	78e0      	ldrb	r0, [r4, #3]
10003690:	78a3      	ldrb	r3, [r4, #2]
10003692:	7862      	ldrb	r2, [r4, #1]
10003694:	7821      	ldrb	r1, [r4, #0]
10003696:	9000      	str	r0, [sp, #0]
10003698:	9806      	ldr	r0, [sp, #24]
1000369a:	f004 fdf5 	bl	10008288 <__wrap_printf>
1000369e:	238a      	movs	r3, #138	@ 0x8a
100036a0:	2201      	movs	r2, #1
100036a2:	0029      	movs	r1, r5
100036a4:	702b      	strb	r3, [r5, #0]
100036a6:	4811      	ldr	r0, [pc, #68]	@ (100036ec <read_all+0x238>)
100036a8:	f007 fbf6 	bl	1000ae98 <__spi_write_blocking_veneer>
100036ac:	2304      	movs	r3, #4
100036ae:	0022      	movs	r2, r4
100036b0:	2100      	movs	r1, #0
100036b2:	480e      	ldr	r0, [pc, #56]	@ (100036ec <read_all+0x238>)
100036b4:	f007 fba0 	bl	1000adf8 <__spi_read_blocking_veneer>
100036b8:	78e0      	ldrb	r0, [r4, #3]
100036ba:	78a3      	ldrb	r3, [r4, #2]
100036bc:	7862      	ldrb	r2, [r4, #1]
100036be:	7821      	ldrb	r1, [r4, #0]
100036c0:	3601      	adds	r6, #1
100036c2:	9000      	str	r0, [sp, #0]
100036c4:	9807      	ldr	r0, [sp, #28]
100036c6:	f004 fddf 	bl	10008288 <__wrap_printf>
100036ca:	2e04      	cmp	r6, #4
100036cc:	d000      	beq.n	100036d0 <read_all+0x21c>
100036ce:	e74b      	b.n	10003568 <read_all+0xb4>
100036d0:	4913      	ldr	r1, [pc, #76]	@ (10003720 <read_all+0x26c>)
100036d2:	4806      	ldr	r0, [pc, #24]	@ (100036ec <read_all+0x238>)
100036d4:	f007 f8c8 	bl	1000a868 <spi_set_baudrate>
100036d8:	b011      	add	sp, #68	@ 0x44
100036da:	bcf0      	pop	{r4, r5, r6, r7}
100036dc:	46bb      	mov	fp, r7
100036de:	46b2      	mov	sl, r6
100036e0:	46a9      	mov	r9, r5
100036e2:	46a0      	mov	r8, r4
100036e4:	bdf0      	pop	{r4, r5, r6, r7, pc}
100036e6:	46c0      	nop			@ (mov r8, r8)
100036e8:	000f4240 	.word	0x000f4240
100036ec:	40040000 	.word	0x40040000
100036f0:	1000b228 	.word	0x1000b228
100036f4:	1000b234 	.word	0x1000b234
100036f8:	1000b24c 	.word	0x1000b24c
100036fc:	1000b260 	.word	0x1000b260
10003700:	1000b270 	.word	0x1000b270
10003704:	1000b288 	.word	0x1000b288
10003708:	1000b2a4 	.word	0x1000b2a4
1000370c:	1000b2b8 	.word	0x1000b2b8
10003710:	1000b2d0 	.word	0x1000b2d0
10003714:	1000b2e4 	.word	0x1000b2e4
10003718:	1000b300 	.word	0x1000b300
1000371c:	1000b31c 	.word	0x1000b31c
10003720:	05f5e100 	.word	0x05f5e100

10003724 <set_pll_mult>:
10003724:	b530      	push	{r4, r5, lr}
10003726:	0005      	movs	r5, r0
10003728:	b083      	sub	sp, #12
1000372a:	6081      	str	r1, [r0, #8]
1000372c:	0008      	movs	r0, r1
1000372e:	000c      	movs	r4, r1
10003730:	f003 fed0 	bl	100074d4 <__wrap___aeabi_ui2d>
10003734:	682a      	ldr	r2, [r5, #0]
10003736:	686b      	ldr	r3, [r5, #4]
10003738:	f003 fe67 	bl	1000740a <__wrap___aeabi_dmul>
1000373c:	2280      	movs	r2, #128	@ 0x80
1000373e:	4b0a      	ldr	r3, [pc, #40]	@ (10003768 <set_pll_mult+0x44>)
10003740:	0612      	lsls	r2, r2, #24
10003742:	f003 feab 	bl	1000749c <__wrap___aeabi_dcmpge>
10003746:	1e43      	subs	r3, r0, #1
10003748:	4198      	sbcs	r0, r3
1000374a:	2301      	movs	r3, #1
1000374c:	a901      	add	r1, sp, #4
1000374e:	700b      	strb	r3, [r1, #0]
10003750:	2300      	movs	r3, #0
10003752:	00a4      	lsls	r4, r4, #2
10003754:	01c0      	lsls	r0, r0, #7
10003756:	4320      	orrs	r0, r4
10003758:	7048      	strb	r0, [r1, #1]
1000375a:	2204      	movs	r2, #4
1000375c:	4803      	ldr	r0, [pc, #12]	@ (1000376c <set_pll_mult+0x48>)
1000375e:	804b      	strh	r3, [r1, #2]
10003760:	f007 fb9a 	bl	1000ae98 <__spi_write_blocking_veneer>
10003764:	b003      	add	sp, #12
10003766:	bd30      	pop	{r4, r5, pc}
10003768:	41ae65fb 	.word	0x41ae65fb
1000376c:	40040000 	.word	0x40040000

10003770 <set_ref_clk>:
10003770:	b510      	push	{r4, lr}
10003772:	0019      	movs	r1, r3
10003774:	0004      	movs	r4, r0
10003776:	0010      	movs	r0, r2
10003778:	f003 fef8 	bl	1000756c <__wrap___aeabi_ul2d>
1000377c:	6020      	str	r0, [r4, #0]
1000377e:	6061      	str	r1, [r4, #4]
10003780:	bd10      	pop	{r4, pc}
10003782:	46c0      	nop			@ (mov r8, r8)

10003784 <single_step_mode>:
10003784:	b570      	push	{r4, r5, r6, lr}
10003786:	b082      	sub	sp, #8
10003788:	466b      	mov	r3, sp
1000378a:	1c9e      	adds	r6, r3, #2
1000378c:	23f2      	movs	r3, #242	@ 0xf2
1000378e:	7033      	strb	r3, [r6, #0]
10003790:	2300      	movs	r3, #0
10003792:	4d10      	ldr	r5, [pc, #64]	@ (100037d4 <single_step_mode+0x50>)
10003794:	ac01      	add	r4, sp, #4
10003796:	7023      	strb	r3, [r4, #0]
10003798:	0021      	movs	r1, r4
1000379a:	2201      	movs	r2, #1
1000379c:	0028      	movs	r0, r5
1000379e:	f007 fb7b 	bl	1000ae98 <__spi_write_blocking_veneer>
100037a2:	0031      	movs	r1, r6
100037a4:	2201      	movs	r2, #1
100037a6:	0028      	movs	r0, r5
100037a8:	f007 fb76 	bl	1000ae98 <__spi_write_blocking_veneer>
100037ac:	4b0a      	ldr	r3, [pc, #40]	@ (100037d8 <single_step_mode+0x54>)
100037ae:	0028      	movs	r0, r5
100037b0:	881a      	ldrh	r2, [r3, #0]
100037b2:	8022      	strh	r2, [r4, #0]
100037b4:	789b      	ldrb	r3, [r3, #2]
100037b6:	2201      	movs	r2, #1
100037b8:	70a3      	strb	r3, [r4, #2]
100037ba:	466b      	mov	r3, sp
100037bc:	1cd9      	adds	r1, r3, #3
100037be:	2303      	movs	r3, #3
100037c0:	700b      	strb	r3, [r1, #0]
100037c2:	f007 fb69 	bl	1000ae98 <__spi_write_blocking_veneer>
100037c6:	2203      	movs	r2, #3
100037c8:	0021      	movs	r1, r4
100037ca:	0028      	movs	r0, r5
100037cc:	f007 fb64 	bl	1000ae98 <__spi_write_blocking_veneer>
100037d0:	b002      	add	sp, #8
100037d2:	bd70      	pop	{r4, r5, r6, pc}
100037d4:	40040000 	.word	0x40040000
100037d8:	1000b338 	.word	0x1000b338

100037dc <clear>:
100037dc:	b530      	push	{r4, r5, lr}
100037de:	b08b      	sub	sp, #44	@ 0x2c
100037e0:	4669      	mov	r1, sp
100037e2:	000a      	movs	r2, r1
100037e4:	4b08      	ldr	r3, [pc, #32]	@ (10003808 <clear+0x2c>)
100037e6:	cb31      	ldmia	r3!, {r0, r4, r5}
100037e8:	c231      	stmia	r2!, {r0, r4, r5}
100037ea:	cb31      	ldmia	r3!, {r0, r4, r5}
100037ec:	c231      	stmia	r2!, {r0, r4, r5}
100037ee:	cb31      	ldmia	r3!, {r0, r4, r5}
100037f0:	c231      	stmia	r2!, {r0, r4, r5}
100037f2:	8818      	ldrh	r0, [r3, #0]
100037f4:	8010      	strh	r0, [r2, #0]
100037f6:	789b      	ldrb	r3, [r3, #2]
100037f8:	4804      	ldr	r0, [pc, #16]	@ (1000380c <clear+0x30>)
100037fa:	7093      	strb	r3, [r2, #2]
100037fc:	2227      	movs	r2, #39	@ 0x27
100037fe:	f007 fb4b 	bl	1000ae98 <__spi_write_blocking_veneer>
10003802:	b00b      	add	sp, #44	@ 0x2c
10003804:	bd30      	pop	{r4, r5, pc}
10003806:	46c0      	nop			@ (mov r8, r8)
10003808:	1000b33c 	.word	0x1000b33c
1000380c:	40040000 	.word	0x40040000

10003810 <set_sys_clock_pll>:
10003810:	b5f0      	push	{r4, r5, r6, r7, lr}
10003812:	b083      	sub	sp, #12
10003814:	0005      	movs	r5, r0
10003816:	000e      	movs	r6, r1
10003818:	0014      	movs	r4, r2
1000381a:	f000 f973 	bl	10003b04 <running_on_fpga>
1000381e:	2800      	cmp	r0, #0
10003820:	d001      	beq.n	10003826 <set_sys_clock_pll+0x16>
10003822:	b003      	add	sp, #12
10003824:	bdf0      	pop	{r4, r5, r6, r7, pc}
10003826:	4f15      	ldr	r7, [pc, #84]	@ (1000387c <set_sys_clock_pll+0x6c>)
10003828:	2201      	movs	r2, #1
1000382a:	003b      	movs	r3, r7
1000382c:	2101      	movs	r1, #1
1000382e:	9700      	str	r7, [sp, #0]
10003830:	3005      	adds	r0, #5
10003832:	f001 fbdd 	bl	10004ff0 <clock_configure>
10003836:	0033      	movs	r3, r6
10003838:	002a      	movs	r2, r5
1000383a:	9400      	str	r4, [sp, #0]
1000383c:	2101      	movs	r1, #1
1000383e:	4810      	ldr	r0, [pc, #64]	@ (10003880 <set_sys_clock_pll+0x70>)
10003840:	f001 fe16 	bl	10005470 <pll_init>
10003844:	0021      	movs	r1, r4
10003846:	0028      	movs	r0, r5
10003848:	4371      	muls	r1, r6
1000384a:	f003 fb73 	bl	10006f34 <__wrap___aeabi_uidiv>
1000384e:	0004      	movs	r4, r0
10003850:	4b0c      	ldr	r3, [pc, #48]	@ (10003884 <set_sys_clock_pll+0x74>)
10003852:	2200      	movs	r2, #0
10003854:	9300      	str	r3, [sp, #0]
10003856:	2102      	movs	r1, #2
10003858:	2004      	movs	r0, #4
1000385a:	f001 fbc9 	bl	10004ff0 <clock_configure>
1000385e:	0023      	movs	r3, r4
10003860:	2200      	movs	r2, #0
10003862:	2101      	movs	r1, #1
10003864:	9400      	str	r4, [sp, #0]
10003866:	2005      	movs	r0, #5
10003868:	f001 fbc2 	bl	10004ff0 <clock_configure>
1000386c:	003b      	movs	r3, r7
1000386e:	2202      	movs	r2, #2
10003870:	2100      	movs	r1, #0
10003872:	9700      	str	r7, [sp, #0]
10003874:	2006      	movs	r0, #6
10003876:	f001 fbbb 	bl	10004ff0 <clock_configure>
1000387a:	e7d2      	b.n	10003822 <set_sys_clock_pll+0x12>
1000387c:	02dc6c00 	.word	0x02dc6c00
10003880:	40028000 	.word	0x40028000
10003884:	00b71b00 	.word	0x00b71b00

10003888 <check_sys_clock_khz>:
10003888:	b5f0      	push	{r4, r5, r6, r7, lr}
1000388a:	464e      	mov	r6, r9
1000388c:	4691      	mov	r9, r2
1000388e:	4a7d      	ldr	r2, [pc, #500]	@ (10003a84 <check_sys_clock_khz+0x1fc>)
10003890:	4645      	mov	r5, r8
10003892:	4690      	mov	r8, r2
10003894:	22a0      	movs	r2, #160	@ 0xa0
10003896:	4657      	mov	r7, sl
10003898:	46de      	mov	lr, fp
1000389a:	0052      	lsls	r2, r2, #1
1000389c:	b5e0      	push	{r5, r6, r7, lr}
1000389e:	0017      	movs	r7, r2
100038a0:	4642      	mov	r2, r8
100038a2:	0006      	movs	r6, r0
100038a4:	468a      	mov	sl, r1
100038a6:	b083      	sub	sp, #12
100038a8:	9200      	str	r2, [sp, #0]
100038aa:	9301      	str	r3, [sp, #4]
100038ac:	9b00      	ldr	r3, [sp, #0]
100038ae:	4a76      	ldr	r2, [pc, #472]	@ (10003a88 <check_sys_clock_khz+0x200>)
100038b0:	4293      	cmp	r3, r2
100038b2:	d909      	bls.n	100038c8 <check_sys_clock_khz+0x40>
100038b4:	4a75      	ldr	r2, [pc, #468]	@ (10003a8c <check_sys_clock_khz+0x204>)
100038b6:	9b00      	ldr	r3, [sp, #0]
100038b8:	4694      	mov	ip, r2
100038ba:	3f01      	subs	r7, #1
100038bc:	4463      	add	r3, ip
100038be:	9300      	str	r3, [sp, #0]
100038c0:	2f0f      	cmp	r7, #15
100038c2:	d1f3      	bne.n	100038ac <check_sys_clock_khz+0x24>
100038c4:	2000      	movs	r0, #0
100038c6:	e06e      	b.n	100039a6 <check_sys_clock_khz+0x11e>
100038c8:	001d      	movs	r5, r3
100038ca:	4b71      	ldr	r3, [pc, #452]	@ (10003a90 <check_sys_clock_khz+0x208>)
100038cc:	2131      	movs	r1, #49	@ 0x31
100038ce:	469c      	mov	ip, r3
100038d0:	4465      	add	r5, ip
100038d2:	0028      	movs	r0, r5
100038d4:	f003 fb2e 	bl	10006f34 <__wrap___aeabi_uidiv>
100038d8:	4286      	cmp	r6, r0
100038da:	d100      	bne.n	100038de <check_sys_clock_khz+0x56>
100038dc:	e0bc      	b.n	10003a58 <check_sys_clock_khz+0x1d0>
100038de:	2407      	movs	r4, #7
100038e0:	1e63      	subs	r3, r4, #1
100038e2:	46b8      	mov	r8, r7
100038e4:	469b      	mov	fp, r3
100038e6:	0037      	movs	r7, r6
100038e8:	002e      	movs	r6, r5
100038ea:	465d      	mov	r5, fp
100038ec:	4365      	muls	r5, r4
100038ee:	0030      	movs	r0, r6
100038f0:	0029      	movs	r1, r5
100038f2:	f003 fb1f 	bl	10006f34 <__wrap___aeabi_uidiv>
100038f6:	4287      	cmp	r7, r0
100038f8:	d046      	beq.n	10003988 <check_sys_clock_khz+0x100>
100038fa:	1ea3      	subs	r3, r4, #2
100038fc:	469b      	mov	fp, r3
100038fe:	2c02      	cmp	r4, #2
10003900:	d100      	bne.n	10003904 <check_sys_clock_khz+0x7c>
10003902:	e0ad      	b.n	10003a60 <check_sys_clock_khz+0x1d8>
10003904:	1b2d      	subs	r5, r5, r4
10003906:	0029      	movs	r1, r5
10003908:	0030      	movs	r0, r6
1000390a:	f003 fb13 	bl	10006f34 <__wrap___aeabi_uidiv>
1000390e:	4287      	cmp	r7, r0
10003910:	d050      	beq.n	100039b4 <check_sys_clock_khz+0x12c>
10003912:	1ee3      	subs	r3, r4, #3
10003914:	469b      	mov	fp, r3
10003916:	2c03      	cmp	r4, #3
10003918:	d052      	beq.n	100039c0 <check_sys_clock_khz+0x138>
1000391a:	1b2d      	subs	r5, r5, r4
1000391c:	0029      	movs	r1, r5
1000391e:	0030      	movs	r0, r6
10003920:	f003 fb08 	bl	10006f34 <__wrap___aeabi_uidiv>
10003924:	4287      	cmp	r7, r0
10003926:	d053      	beq.n	100039d0 <check_sys_clock_khz+0x148>
10003928:	1f23      	subs	r3, r4, #4
1000392a:	469b      	mov	fp, r3
1000392c:	2c04      	cmp	r4, #4
1000392e:	d055      	beq.n	100039dc <check_sys_clock_khz+0x154>
10003930:	1b2d      	subs	r5, r5, r4
10003932:	0029      	movs	r1, r5
10003934:	0030      	movs	r0, r6
10003936:	f003 fafd 	bl	10006f34 <__wrap___aeabi_uidiv>
1000393a:	4287      	cmp	r7, r0
1000393c:	d059      	beq.n	100039f2 <check_sys_clock_khz+0x16a>
1000393e:	1f63      	subs	r3, r4, #5
10003940:	469b      	mov	fp, r3
10003942:	2c05      	cmp	r4, #5
10003944:	d05b      	beq.n	100039fe <check_sys_clock_khz+0x176>
10003946:	1b2d      	subs	r5, r5, r4
10003948:	0029      	movs	r1, r5
1000394a:	0030      	movs	r0, r6
1000394c:	f003 faf2 	bl	10006f34 <__wrap___aeabi_uidiv>
10003950:	4287      	cmp	r7, r0
10003952:	d05c      	beq.n	10003a0e <check_sys_clock_khz+0x186>
10003954:	2c06      	cmp	r4, #6
10003956:	d05e      	beq.n	10003a16 <check_sys_clock_khz+0x18e>
10003958:	0030      	movs	r0, r6
1000395a:	1fe9      	subs	r1, r5, #7
1000395c:	f003 faea 	bl	10006f34 <__wrap___aeabi_uidiv>
10003960:	42b8      	cmp	r0, r7
10003962:	d063      	beq.n	10003a2c <check_sys_clock_khz+0x1a4>
10003964:	2124      	movs	r1, #36	@ 0x24
10003966:	0030      	movs	r0, r6
10003968:	2406      	movs	r4, #6
1000396a:	2524      	movs	r5, #36	@ 0x24
1000396c:	f003 fae2 	bl	10006f34 <__wrap___aeabi_uidiv>
10003970:	4287      	cmp	r7, r0
10003972:	d061      	beq.n	10003a38 <check_sys_clock_khz+0x1b0>
10003974:	2305      	movs	r3, #5
10003976:	469b      	mov	fp, r3
10003978:	465d      	mov	r5, fp
1000397a:	4365      	muls	r5, r4
1000397c:	0030      	movs	r0, r6
1000397e:	0029      	movs	r1, r5
10003980:	f003 fad8 	bl	10006f34 <__wrap___aeabi_uidiv>
10003984:	4287      	cmp	r7, r0
10003986:	d1b8      	bne.n	100038fa <check_sys_clock_khz+0x72>
10003988:	2900      	cmp	r1, #0
1000398a:	d1b6      	bne.n	100038fa <check_sys_clock_khz+0x72>
1000398c:	465d      	mov	r5, fp
1000398e:	46d3      	mov	fp, sl
10003990:	46c2      	mov	sl, r8
10003992:	9b01      	ldr	r3, [sp, #4]
10003994:	4652      	mov	r2, sl
10003996:	493f      	ldr	r1, [pc, #252]	@ (10003a94 <check_sys_clock_khz+0x20c>)
10003998:	2001      	movs	r0, #1
1000399a:	4351      	muls	r1, r2
1000399c:	465a      	mov	r2, fp
1000399e:	6011      	str	r1, [r2, #0]
100039a0:	464a      	mov	r2, r9
100039a2:	6014      	str	r4, [r2, #0]
100039a4:	601d      	str	r5, [r3, #0]
100039a6:	b003      	add	sp, #12
100039a8:	bcf0      	pop	{r4, r5, r6, r7}
100039aa:	46bb      	mov	fp, r7
100039ac:	46b2      	mov	sl, r6
100039ae:	46a9      	mov	r9, r5
100039b0:	46a0      	mov	r8, r4
100039b2:	bdf0      	pop	{r4, r5, r6, r7, pc}
100039b4:	2900      	cmp	r1, #0
100039b6:	d0e9      	beq.n	1000398c <check_sys_clock_khz+0x104>
100039b8:	1ee3      	subs	r3, r4, #3
100039ba:	469b      	mov	fp, r3
100039bc:	2c03      	cmp	r4, #3
100039be:	d1ac      	bne.n	1000391a <check_sys_clock_khz+0x92>
100039c0:	2402      	movs	r4, #2
100039c2:	2504      	movs	r5, #4
100039c4:	08b3      	lsrs	r3, r6, #2
100039c6:	429f      	cmp	r7, r3
100039c8:	d036      	beq.n	10003a38 <check_sys_clock_khz+0x1b0>
100039ca:	2301      	movs	r3, #1
100039cc:	469b      	mov	fp, r3
100039ce:	e78c      	b.n	100038ea <check_sys_clock_khz+0x62>
100039d0:	2900      	cmp	r1, #0
100039d2:	d0db      	beq.n	1000398c <check_sys_clock_khz+0x104>
100039d4:	1f23      	subs	r3, r4, #4
100039d6:	469b      	mov	fp, r3
100039d8:	2c04      	cmp	r4, #4
100039da:	d1a9      	bne.n	10003930 <check_sys_clock_khz+0xa8>
100039dc:	2109      	movs	r1, #9
100039de:	0030      	movs	r0, r6
100039e0:	2403      	movs	r4, #3
100039e2:	2509      	movs	r5, #9
100039e4:	f003 faa6 	bl	10006f34 <__wrap___aeabi_uidiv>
100039e8:	4287      	cmp	r7, r0
100039ea:	d025      	beq.n	10003a38 <check_sys_clock_khz+0x1b0>
100039ec:	2302      	movs	r3, #2
100039ee:	469b      	mov	fp, r3
100039f0:	e77b      	b.n	100038ea <check_sys_clock_khz+0x62>
100039f2:	2900      	cmp	r1, #0
100039f4:	d0ca      	beq.n	1000398c <check_sys_clock_khz+0x104>
100039f6:	1f63      	subs	r3, r4, #5
100039f8:	469b      	mov	fp, r3
100039fa:	2c05      	cmp	r4, #5
100039fc:	d1a3      	bne.n	10003946 <check_sys_clock_khz+0xbe>
100039fe:	2404      	movs	r4, #4
10003a00:	2510      	movs	r5, #16
10003a02:	0933      	lsrs	r3, r6, #4
10003a04:	429f      	cmp	r7, r3
10003a06:	d017      	beq.n	10003a38 <check_sys_clock_khz+0x1b0>
10003a08:	2303      	movs	r3, #3
10003a0a:	469b      	mov	fp, r3
10003a0c:	e76d      	b.n	100038ea <check_sys_clock_khz+0x62>
10003a0e:	2900      	cmp	r1, #0
10003a10:	d0bc      	beq.n	1000398c <check_sys_clock_khz+0x104>
10003a12:	2c06      	cmp	r4, #6
10003a14:	d1a0      	bne.n	10003958 <check_sys_clock_khz+0xd0>
10003a16:	2119      	movs	r1, #25
10003a18:	0030      	movs	r0, r6
10003a1a:	2405      	movs	r4, #5
10003a1c:	2519      	movs	r5, #25
10003a1e:	f003 fa89 	bl	10006f34 <__wrap___aeabi_uidiv>
10003a22:	4287      	cmp	r7, r0
10003a24:	d008      	beq.n	10003a38 <check_sys_clock_khz+0x1b0>
10003a26:	2304      	movs	r3, #4
10003a28:	469b      	mov	fp, r3
10003a2a:	e75e      	b.n	100038ea <check_sys_clock_khz+0x62>
10003a2c:	2900      	cmp	r1, #0
10003a2e:	d023      	beq.n	10003a78 <check_sys_clock_khz+0x1f0>
10003a30:	2305      	movs	r3, #5
10003a32:	2406      	movs	r4, #6
10003a34:	469b      	mov	fp, r3
10003a36:	e758      	b.n	100038ea <check_sys_clock_khz+0x62>
10003a38:	46ab      	mov	fp, r5
10003a3a:	0035      	movs	r5, r6
10003a3c:	003e      	movs	r6, r7
10003a3e:	4647      	mov	r7, r8
10003a40:	4659      	mov	r1, fp
10003a42:	0028      	movs	r0, r5
10003a44:	f003 fa76 	bl	10006f34 <__wrap___aeabi_uidiv>
10003a48:	2900      	cmp	r1, #0
10003a4a:	d000      	beq.n	10003a4e <check_sys_clock_khz+0x1c6>
10003a4c:	e748      	b.n	100038e0 <check_sys_clock_khz+0x58>
10003a4e:	46d3      	mov	fp, sl
10003a50:	0025      	movs	r5, r4
10003a52:	46ba      	mov	sl, r7
10003a54:	9b01      	ldr	r3, [sp, #4]
10003a56:	e79d      	b.n	10003994 <check_sys_clock_khz+0x10c>
10003a58:	2331      	movs	r3, #49	@ 0x31
10003a5a:	2407      	movs	r4, #7
10003a5c:	469b      	mov	fp, r3
10003a5e:	e7ef      	b.n	10003a40 <check_sys_clock_khz+0x1b8>
10003a60:	0035      	movs	r5, r6
10003a62:	003e      	movs	r6, r7
10003a64:	4647      	mov	r7, r8
10003a66:	42b5      	cmp	r5, r6
10003a68:	d000      	beq.n	10003a6c <check_sys_clock_khz+0x1e4>
10003a6a:	e723      	b.n	100038b4 <check_sys_clock_khz+0x2c>
10003a6c:	46d3      	mov	fp, sl
10003a6e:	2401      	movs	r4, #1
10003a70:	46c2      	mov	sl, r8
10003a72:	2501      	movs	r5, #1
10003a74:	9b01      	ldr	r3, [sp, #4]
10003a76:	e78d      	b.n	10003994 <check_sys_clock_khz+0x10c>
10003a78:	46d3      	mov	fp, sl
10003a7a:	2407      	movs	r4, #7
10003a7c:	46c2      	mov	sl, r8
10003a7e:	2501      	movs	r5, #1
10003a80:	9b01      	ldr	r3, [sp, #4]
10003a82:	e787      	b.n	10003994 <check_sys_clock_khz+0x10c>
10003a84:	002f2650 	.word	0x002f2650
10003a88:	000cf850 	.word	0x000cf850
10003a8c:	ffffd120 	.word	0xffffd120
10003a90:	000b71b0 	.word	0x000b71b0
10003a94:	00b71b00 	.word	0x00b71b00

10003a98 <gpio_set_function>:
10003a98:	4a09      	ldr	r2, [pc, #36]	@ (10003ac0 <gpio_set_function+0x28>)
10003a9a:	b510      	push	{r4, lr}
10003a9c:	4694      	mov	ip, r2
10003a9e:	2440      	movs	r4, #64	@ 0x40
10003aa0:	0083      	lsls	r3, r0, #2
10003aa2:	4463      	add	r3, ip
10003aa4:	681a      	ldr	r2, [r3, #0]
10003aa6:	00c0      	lsls	r0, r0, #3
10003aa8:	4062      	eors	r2, r4
10003aaa:	3480      	adds	r4, #128	@ 0x80
10003aac:	4014      	ands	r4, r2
10003aae:	2280      	movs	r2, #128	@ 0x80
10003ab0:	0152      	lsls	r2, r2, #5
10003ab2:	4313      	orrs	r3, r2
10003ab4:	601c      	str	r4, [r3, #0]
10003ab6:	4b03      	ldr	r3, [pc, #12]	@ (10003ac4 <gpio_set_function+0x2c>)
10003ab8:	469c      	mov	ip, r3
10003aba:	4460      	add	r0, ip
10003abc:	6041      	str	r1, [r0, #4]
10003abe:	bd10      	pop	{r4, pc}
10003ac0:	4001c004 	.word	0x4001c004
10003ac4:	40014000 	.word	0x40014000

10003ac8 <gpio_init>:
10003ac8:	2301      	movs	r3, #1
10003aca:	22d0      	movs	r2, #208	@ 0xd0
10003acc:	4083      	lsls	r3, r0
10003ace:	0612      	lsls	r2, r2, #24
10003ad0:	6293      	str	r3, [r2, #40]	@ 0x28
10003ad2:	6193      	str	r3, [r2, #24]
10003ad4:	4a09      	ldr	r2, [pc, #36]	@ (10003afc <gpio_init+0x34>)
10003ad6:	2140      	movs	r1, #64	@ 0x40
10003ad8:	4694      	mov	ip, r2
10003ada:	0083      	lsls	r3, r0, #2
10003adc:	4463      	add	r3, ip
10003ade:	681a      	ldr	r2, [r3, #0]
10003ae0:	00c0      	lsls	r0, r0, #3
10003ae2:	404a      	eors	r2, r1
10003ae4:	3180      	adds	r1, #128	@ 0x80
10003ae6:	4011      	ands	r1, r2
10003ae8:	2280      	movs	r2, #128	@ 0x80
10003aea:	0152      	lsls	r2, r2, #5
10003aec:	4313      	orrs	r3, r2
10003aee:	6019      	str	r1, [r3, #0]
10003af0:	4b03      	ldr	r3, [pc, #12]	@ (10003b00 <gpio_init+0x38>)
10003af2:	469c      	mov	ip, r3
10003af4:	2305      	movs	r3, #5
10003af6:	4460      	add	r0, ip
10003af8:	6043      	str	r3, [r0, #4]
10003afa:	4770      	bx	lr
10003afc:	4001c004 	.word	0x4001c004
10003b00:	40014000 	.word	0x40014000

10003b04 <running_on_fpga>:
10003b04:	4b02      	ldr	r3, [pc, #8]	@ (10003b10 <running_on_fpga+0xc>)
10003b06:	6818      	ldr	r0, [r3, #0]
10003b08:	0780      	lsls	r0, r0, #30
10003b0a:	0fc0      	lsrs	r0, r0, #31
10003b0c:	4770      	bx	lr
10003b0e:	46c0      	nop			@ (mov r8, r8)
10003b10:	4006c000 	.word	0x4006c000

10003b14 <hw_claim_lock>:
10003b14:	f3ef 8010 	mrs	r0, PRIMASK
10003b18:	b672      	cpsid	i
10003b1a:	4a03      	ldr	r2, [pc, #12]	@ (10003b28 <hw_claim_lock+0x14>)
10003b1c:	6813      	ldr	r3, [r2, #0]
10003b1e:	2b00      	cmp	r3, #0
10003b20:	d0fc      	beq.n	10003b1c <hw_claim_lock+0x8>
10003b22:	f3bf 8f5f 	dmb	sy
10003b26:	4770      	bx	lr
10003b28:	d000012c 	.word	0xd000012c

10003b2c <hw_claim_unlock>:
10003b2c:	f3bf 8f5f 	dmb	sy
10003b30:	2200      	movs	r2, #0
10003b32:	4b02      	ldr	r3, [pc, #8]	@ (10003b3c <hw_claim_unlock+0x10>)
10003b34:	601a      	str	r2, [r3, #0]
10003b36:	f380 8810 	msr	PRIMASK, r0
10003b3a:	4770      	bx	lr
10003b3c:	d000012c 	.word	0xd000012c

10003b40 <hw_claim_or_assert>:
10003b40:	b570      	push	{r4, r5, r6, lr}
10003b42:	f3ef 8c10 	mrs	ip, PRIMASK
10003b46:	b672      	cpsid	i
10003b48:	4d0d      	ldr	r5, [pc, #52]	@ (10003b80 <hw_claim_or_assert+0x40>)
10003b4a:	682b      	ldr	r3, [r5, #0]
10003b4c:	2b00      	cmp	r3, #0
10003b4e:	d0fc      	beq.n	10003b4a <hw_claim_or_assert+0xa>
10003b50:	f3bf 8f5f 	dmb	sy
10003b54:	2407      	movs	r4, #7
10003b56:	08cb      	lsrs	r3, r1, #3
10003b58:	18c6      	adds	r6, r0, r3
10003b5a:	5cc0      	ldrb	r0, [r0, r3]
10003b5c:	2301      	movs	r3, #1
10003b5e:	400c      	ands	r4, r1
10003b60:	40a3      	lsls	r3, r4
10003b62:	001c      	movs	r4, r3
10003b64:	4004      	ands	r4, r0
10003b66:	4203      	tst	r3, r0
10003b68:	d107      	bne.n	10003b7a <hw_claim_or_assert+0x3a>
10003b6a:	4318      	orrs	r0, r3
10003b6c:	7030      	strb	r0, [r6, #0]
10003b6e:	f3bf 8f5f 	dmb	sy
10003b72:	602c      	str	r4, [r5, #0]
10003b74:	f38c 8810 	msr	PRIMASK, ip
10003b78:	bd70      	pop	{r4, r5, r6, pc}
10003b7a:	0010      	movs	r0, r2
10003b7c:	f001 fdae 	bl	100056dc <panic>
10003b80:	d000012c 	.word	0xd000012c

10003b84 <hw_claim_unused_from_range>:
10003b84:	b5f8      	push	{r3, r4, r5, r6, r7, lr}
10003b86:	4647      	mov	r7, r8
10003b88:	46ce      	mov	lr, r9
10003b8a:	4688      	mov	r8, r1
10003b8c:	b580      	push	{r7, lr}
10003b8e:	f3ef 8c10 	mrs	ip, PRIMASK
10003b92:	b672      	cpsid	i
10003b94:	4d21      	ldr	r5, [pc, #132]	@ (10003c1c <hw_claim_unused_from_range+0x98>)
10003b96:	682c      	ldr	r4, [r5, #0]
10003b98:	2c00      	cmp	r4, #0
10003b9a:	d0fc      	beq.n	10003b96 <hw_claim_unused_from_range+0x12>
10003b9c:	f3bf 8f5f 	dmb	sy
10003ba0:	429a      	cmp	r2, r3
10003ba2:	d82c      	bhi.n	10003bfe <hw_claim_unused_from_range+0x7a>
10003ba4:	08d4      	lsrs	r4, r2, #3
10003ba6:	2707      	movs	r7, #7
10003ba8:	5d05      	ldrb	r5, [r0, r4]
10003baa:	1906      	adds	r6, r0, r4
10003bac:	2401      	movs	r4, #1
10003bae:	4017      	ands	r7, r2
10003bb0:	40bc      	lsls	r4, r7
10003bb2:	422c      	tst	r4, r5
10003bb4:	d01f      	beq.n	10003bf6 <hw_claim_unused_from_range+0x72>
10003bb6:	2107      	movs	r1, #7
10003bb8:	2701      	movs	r7, #1
10003bba:	4689      	mov	r9, r1
10003bbc:	e009      	b.n	10003bd2 <hw_claim_unused_from_range+0x4e>
10003bbe:	08d4      	lsrs	r4, r2, #3
10003bc0:	5d05      	ldrb	r5, [r0, r4]
10003bc2:	1906      	adds	r6, r0, r4
10003bc4:	464c      	mov	r4, r9
10003bc6:	0039      	movs	r1, r7
10003bc8:	4014      	ands	r4, r2
10003bca:	40a1      	lsls	r1, r4
10003bcc:	000c      	movs	r4, r1
10003bce:	4229      	tst	r1, r5
10003bd0:	d011      	beq.n	10003bf6 <hw_claim_unused_from_range+0x72>
10003bd2:	3201      	adds	r2, #1
10003bd4:	4293      	cmp	r3, r2
10003bd6:	d2f2      	bcs.n	10003bbe <hw_claim_unused_from_range+0x3a>
10003bd8:	2001      	movs	r0, #1
10003bda:	4240      	negs	r0, r0
10003bdc:	f3bf 8f5f 	dmb	sy
10003be0:	2200      	movs	r2, #0
10003be2:	4b0e      	ldr	r3, [pc, #56]	@ (10003c1c <hw_claim_unused_from_range+0x98>)
10003be4:	601a      	str	r2, [r3, #0]
10003be6:	f38c 8810 	msr	PRIMASK, ip
10003bea:	2800      	cmp	r0, #0
10003bec:	db0f      	blt.n	10003c0e <hw_claim_unused_from_range+0x8a>
10003bee:	bcc0      	pop	{r6, r7}
10003bf0:	46b9      	mov	r9, r7
10003bf2:	46b0      	mov	r8, r6
10003bf4:	bdf8      	pop	{r3, r4, r5, r6, r7, pc}
10003bf6:	4325      	orrs	r5, r4
10003bf8:	0010      	movs	r0, r2
10003bfa:	7035      	strb	r5, [r6, #0]
10003bfc:	e7ee      	b.n	10003bdc <hw_claim_unused_from_range+0x58>
10003bfe:	f3bf 8f5f 	dmb	sy
10003c02:	2300      	movs	r3, #0
10003c04:	602b      	str	r3, [r5, #0]
10003c06:	f38c 8810 	msr	PRIMASK, ip
10003c0a:	2001      	movs	r0, #1
10003c0c:	4240      	negs	r0, r0
10003c0e:	4643      	mov	r3, r8
10003c10:	2b00      	cmp	r3, #0
10003c12:	d0ec      	beq.n	10003bee <hw_claim_unused_from_range+0x6a>
10003c14:	9808      	ldr	r0, [sp, #32]
10003c16:	f001 fd61 	bl	100056dc <panic>
10003c1a:	46c0      	nop			@ (mov r8, r8)
10003c1c:	d000012c 	.word	0xd000012c

10003c20 <spin_locks_reset>:
10003c20:	2100      	movs	r1, #0
10003c22:	4b04      	ldr	r3, [pc, #16]	@ (10003c34 <spin_locks_reset+0x14>)
10003c24:	4a04      	ldr	r2, [pc, #16]	@ (10003c38 <spin_locks_reset+0x18>)
10003c26:	f3bf 8f5f 	dmb	sy
10003c2a:	c302      	stmia	r3!, {r1}
10003c2c:	4293      	cmp	r3, r2
10003c2e:	d1fa      	bne.n	10003c26 <spin_locks_reset+0x6>
10003c30:	4770      	bx	lr
10003c32:	46c0      	nop			@ (mov r8, r8)
10003c34:	d0000100 	.word	0xd0000100
10003c38:	d0000180 	.word	0xd0000180

10003c3c <next_striped_spin_lock_num>:
10003c3c:	4a04      	ldr	r2, [pc, #16]	@ (10003c50 <next_striped_spin_lock_num+0x14>)
10003c3e:	7810      	ldrb	r0, [r2, #0]
10003c40:	1c43      	adds	r3, r0, #1
10003c42:	b2db      	uxtb	r3, r3
10003c44:	2b17      	cmp	r3, #23
10003c46:	d900      	bls.n	10003c4a <next_striped_spin_lock_num+0xe>
10003c48:	2310      	movs	r3, #16
10003c4a:	7013      	strb	r3, [r2, #0]
10003c4c:	4770      	bx	lr
10003c4e:	46c0      	nop			@ (mov r8, r8)
10003c50:	20000ff9 	.word	0x20000ff9

10003c54 <spin_lock_claim_unused>:
10003c54:	b510      	push	{r4, lr}
10003c56:	4b06      	ldr	r3, [pc, #24]	@ (10003c70 <spin_lock_claim_unused+0x1c>)
10003c58:	4c06      	ldr	r4, [pc, #24]	@ (10003c74 <spin_lock_claim_unused+0x20>)
10003c5a:	b082      	sub	sp, #8
10003c5c:	0001      	movs	r1, r0
10003c5e:	9300      	str	r3, [sp, #0]
10003c60:	2218      	movs	r2, #24
10003c62:	231f      	movs	r3, #31
10003c64:	0020      	movs	r0, r4
10003c66:	f7ff ff8d 	bl	10003b84 <hw_claim_unused_from_range>
10003c6a:	b002      	add	sp, #8
10003c6c:	bd10      	pop	{r4, pc}
10003c6e:	46c0      	nop			@ (mov r8, r8)
10003c70:	1000b364 	.word	0x1000b364
10003c74:	20001df8 	.word	0x20001df8

10003c78 <irq_set_enabled>:
10003c78:	2301      	movs	r3, #1
10003c7a:	4083      	lsls	r3, r0
10003c7c:	2900      	cmp	r1, #0
10003c7e:	d004      	beq.n	10003c8a <irq_set_enabled+0x12>
10003c80:	4a03      	ldr	r2, [pc, #12]	@ (10003c90 <irq_set_enabled+0x18>)
10003c82:	6013      	str	r3, [r2, #0]
10003c84:	4a03      	ldr	r2, [pc, #12]	@ (10003c94 <irq_set_enabled+0x1c>)
10003c86:	6013      	str	r3, [r2, #0]
10003c88:	4770      	bx	lr
10003c8a:	4a03      	ldr	r2, [pc, #12]	@ (10003c98 <irq_set_enabled+0x20>)
10003c8c:	6013      	str	r3, [r2, #0]
10003c8e:	e7fb      	b.n	10003c88 <irq_set_enabled+0x10>
10003c90:	e000e280 	.word	0xe000e280
10003c94:	e000e100 	.word	0xe000e100
10003c98:	e000e180 	.word	0xe000e180

10003c9c <irq_is_enabled>:
10003c9c:	2201      	movs	r2, #1
10003c9e:	4082      	lsls	r2, r0
10003ca0:	4b03      	ldr	r3, [pc, #12]	@ (10003cb0 <irq_is_enabled+0x14>)
10003ca2:	681b      	ldr	r3, [r3, #0]
10003ca4:	4013      	ands	r3, r2
10003ca6:	1e5a      	subs	r2, r3, #1
10003ca8:	4193      	sbcs	r3, r2
10003caa:	b2d8      	uxtb	r0, r3
10003cac:	4770      	bx	lr
10003cae:	46c0      	nop			@ (mov r8, r8)
10003cb0:	e000e100 	.word	0xe000e100

10003cb4 <irq_set_pending>:
10003cb4:	2301      	movs	r3, #1
10003cb6:	4083      	lsls	r3, r0
10003cb8:	4a01      	ldr	r2, [pc, #4]	@ (10003cc0 <irq_set_pending+0xc>)
10003cba:	6013      	str	r3, [r2, #0]
10003cbc:	4770      	bx	lr
10003cbe:	46c0      	nop			@ (mov r8, r8)
10003cc0:	e000e200 	.word	0xe000e200

10003cc4 <irq_has_shared_handler>:
10003cc4:	4b08      	ldr	r3, [pc, #32]	@ (10003ce8 <irq_has_shared_handler+0x24>)
10003cc6:	3010      	adds	r0, #16
10003cc8:	689b      	ldr	r3, [r3, #8]
10003cca:	0080      	lsls	r0, r0, #2
10003ccc:	58c3      	ldr	r3, [r0, r3]
10003cce:	2b00      	cmp	r3, #0
10003cd0:	d007      	beq.n	10003ce2 <irq_has_shared_handler+0x1e>
10003cd2:	4a06      	ldr	r2, [pc, #24]	@ (10003cec <irq_has_shared_handler+0x28>)
10003cd4:	2000      	movs	r0, #0
10003cd6:	1a9b      	subs	r3, r3, r2
10003cd8:	222f      	movs	r2, #47	@ 0x2f
10003cda:	429a      	cmp	r2, r3
10003cdc:	4140      	adcs	r0, r0
10003cde:	b2c0      	uxtb	r0, r0
10003ce0:	4770      	bx	lr
10003ce2:	2000      	movs	r0, #0
10003ce4:	e7fc      	b.n	10003ce0 <irq_has_shared_handler+0x1c>
10003ce6:	46c0      	nop			@ (mov r8, r8)
10003ce8:	e000ed00 	.word	0xe000ed00
10003cec:	20000ffc 	.word	0x20000ffc

10003cf0 <irq_get_vtable_handler>:
10003cf0:	4b02      	ldr	r3, [pc, #8]	@ (10003cfc <irq_get_vtable_handler+0xc>)
10003cf2:	3010      	adds	r0, #16
10003cf4:	689b      	ldr	r3, [r3, #8]
10003cf6:	0080      	lsls	r0, r0, #2
10003cf8:	58c0      	ldr	r0, [r0, r3]
10003cfa:	4770      	bx	lr
10003cfc:	e000ed00 	.word	0xe000ed00

10003d00 <irq_set_exclusive_handler>:
10003d00:	b570      	push	{r4, r5, r6, lr}
10003d02:	000d      	movs	r5, r1
10003d04:	f3ef 8610 	mrs	r6, PRIMASK
10003d08:	b672      	cpsid	i
10003d0a:	4a0f      	ldr	r2, [pc, #60]	@ (10003d48 <irq_set_exclusive_handler+0x48>)
10003d0c:	6813      	ldr	r3, [r2, #0]
10003d0e:	2b00      	cmp	r3, #0
10003d10:	d0fc      	beq.n	10003d0c <irq_set_exclusive_handler+0xc>
10003d12:	f3bf 8f5f 	dmb	sy
10003d16:	4b0d      	ldr	r3, [pc, #52]	@ (10003d4c <irq_set_exclusive_handler+0x4c>)
10003d18:	3010      	adds	r0, #16
10003d1a:	689b      	ldr	r3, [r3, #8]
10003d1c:	0084      	lsls	r4, r0, #2
10003d1e:	591b      	ldr	r3, [r3, r4]
10003d20:	4a0b      	ldr	r2, [pc, #44]	@ (10003d50 <irq_set_exclusive_handler+0x50>)
10003d22:	4293      	cmp	r3, r2
10003d24:	d003      	beq.n	10003d2e <irq_set_exclusive_handler+0x2e>
10003d26:	429d      	cmp	r5, r3
10003d28:	d001      	beq.n	10003d2e <irq_set_exclusive_handler+0x2e>
10003d2a:	f001 fcef 	bl	1000570c <hard_assertion_failure>
10003d2e:	4b07      	ldr	r3, [pc, #28]	@ (10003d4c <irq_set_exclusive_handler+0x4c>)
10003d30:	689b      	ldr	r3, [r3, #8]
10003d32:	511d      	str	r5, [r3, r4]
10003d34:	f3bf 8f5f 	dmb	sy
10003d38:	f3bf 8f5f 	dmb	sy
10003d3c:	2200      	movs	r2, #0
10003d3e:	4b02      	ldr	r3, [pc, #8]	@ (10003d48 <irq_set_exclusive_handler+0x48>)
10003d40:	601a      	str	r2, [r3, #0]
10003d42:	f386 8810 	msr	PRIMASK, r6
10003d46:	bd70      	pop	{r4, r5, r6, pc}
10003d48:	d0000124 	.word	0xd0000124
10003d4c:	e000ed00 	.word	0xe000ed00
10003d50:	100001cd 	.word	0x100001cd

10003d54 <irq_add_shared_handler>:
10003d54:	b5f0      	push	{r4, r5, r6, r7, lr}
10003d56:	464e      	mov	r6, r9
10003d58:	4645      	mov	r5, r8
10003d5a:	46de      	mov	lr, fp
10003d5c:	4657      	mov	r7, sl
10003d5e:	b5e0      	push	{r5, r6, r7, lr}
10003d60:	b083      	sub	sp, #12
10003d62:	0006      	movs	r6, r0
10003d64:	9100      	str	r1, [sp, #0]
10003d66:	4690      	mov	r8, r2
10003d68:	f3ef 8b10 	mrs	fp, PRIMASK
10003d6c:	b672      	cpsid	i
10003d6e:	4a65      	ldr	r2, [pc, #404]	@ (10003f04 <irq_add_shared_handler+0x1b0>)
10003d70:	6813      	ldr	r3, [r2, #0]
10003d72:	2b00      	cmp	r3, #0
10003d74:	d0fc      	beq.n	10003d70 <irq_add_shared_handler+0x1c>
10003d76:	f3bf 8f5f 	dmb	sy
10003d7a:	2500      	movs	r5, #0
10003d7c:	4b62      	ldr	r3, [pc, #392]	@ (10003f08 <irq_add_shared_handler+0x1b4>)
10003d7e:	575d      	ldrsb	r5, [r3, r5]
10003d80:	469a      	mov	sl, r3
10003d82:	2d00      	cmp	r5, #0
10003d84:	da00      	bge.n	10003d88 <irq_add_shared_handler+0x34>
10003d86:	e079      	b.n	10003e7c <irq_add_shared_handler+0x128>
10003d88:	4652      	mov	r2, sl
10003d8a:	006b      	lsls	r3, r5, #1
10003d8c:	4c5f      	ldr	r4, [pc, #380]	@ (10003f0c <irq_add_shared_handler+0x1b8>)
10003d8e:	195f      	adds	r7, r3, r5
10003d90:	00bf      	lsls	r7, r7, #2
10003d92:	9301      	str	r3, [sp, #4]
10003d94:	19e3      	adds	r3, r4, r7
10003d96:	4699      	mov	r9, r3
10003d98:	799b      	ldrb	r3, [r3, #6]
10003d9a:	3610      	adds	r6, #16
10003d9c:	7013      	strb	r3, [r2, #0]
10003d9e:	4b5c      	ldr	r3, [pc, #368]	@ (10003f10 <irq_add_shared_handler+0x1bc>)
10003da0:	00b6      	lsls	r6, r6, #2
10003da2:	689b      	ldr	r3, [r3, #8]
10003da4:	5999      	ldr	r1, [r3, r6]
10003da6:	1b0b      	subs	r3, r1, r4
10003da8:	2b2f      	cmp	r3, #47	@ 0x2f
10003daa:	d933      	bls.n	10003e14 <irq_add_shared_handler+0xc0>
10003dac:	4b59      	ldr	r3, [pc, #356]	@ (10003f14 <irq_add_shared_handler+0x1c0>)
10003dae:	4299      	cmp	r1, r3
10003db0:	d000      	beq.n	10003db4 <irq_add_shared_handler+0x60>
10003db2:	e07c      	b.n	10003eae <irq_add_shared_handler+0x15a>
10003db4:	9b01      	ldr	r3, [sp, #4]
10003db6:	3702      	adds	r7, #2
10003db8:	469c      	mov	ip, r3
10003dba:	4b57      	ldr	r3, [pc, #348]	@ (10003f18 <irq_add_shared_handler+0x1c4>)
10003dbc:	4465      	add	r5, ip
10003dbe:	00ad      	lsls	r5, r5, #2
10003dc0:	5363      	strh	r3, [r4, r5]
10003dc2:	4b56      	ldr	r3, [pc, #344]	@ (10003f1c <irq_add_shared_handler+0x1c8>)
10003dc4:	19e7      	adds	r7, r4, r7
10003dc6:	3b04      	subs	r3, #4
10003dc8:	1bdb      	subs	r3, r3, r7
10003dca:	4a55      	ldr	r2, [pc, #340]	@ (10003f20 <irq_add_shared_handler+0x1cc>)
10003dcc:	051b      	lsls	r3, r3, #20
10003dce:	0d5b      	lsrs	r3, r3, #21
10003dd0:	1965      	adds	r5, r4, r5
10003dd2:	4313      	orrs	r3, r2
10003dd4:	806b      	strh	r3, [r5, #2]
10003dd6:	4b53      	ldr	r3, [pc, #332]	@ (10003f24 <irq_add_shared_handler+0x1d0>)
10003dd8:	2101      	movs	r1, #1
10003dda:	80ab      	strh	r3, [r5, #4]
10003ddc:	23ff      	movs	r3, #255	@ 0xff
10003dde:	71ab      	strb	r3, [r5, #6]
10003de0:	4643      	mov	r3, r8
10003de2:	71eb      	strb	r3, [r5, #7]
10003de4:	9b00      	ldr	r3, [sp, #0]
10003de6:	60ab      	str	r3, [r5, #8]
10003de8:	464b      	mov	r3, r9
10003dea:	430b      	orrs	r3, r1
10003dec:	0019      	movs	r1, r3
10003dee:	4b48      	ldr	r3, [pc, #288]	@ (10003f10 <irq_add_shared_handler+0x1bc>)
10003df0:	689b      	ldr	r3, [r3, #8]
10003df2:	5199      	str	r1, [r3, r6]
10003df4:	f3bf 8f5f 	dmb	sy
10003df8:	f3bf 8f5f 	dmb	sy
10003dfc:	2200      	movs	r2, #0
10003dfe:	4b41      	ldr	r3, [pc, #260]	@ (10003f04 <irq_add_shared_handler+0x1b0>)
10003e00:	601a      	str	r2, [r3, #0]
10003e02:	f38b 8810 	msr	PRIMASK, fp
10003e06:	b003      	add	sp, #12
10003e08:	bcf0      	pop	{r4, r5, r6, r7}
10003e0a:	46bb      	mov	fp, r7
10003e0c:	46b2      	mov	sl, r6
10003e0e:	46a9      	mov	r9, r5
10003e10:	46a0      	mov	r8, r4
10003e12:	bdf0      	pop	{r4, r5, r6, r7, pc}
10003e14:	2001      	movs	r0, #1
10003e16:	000a      	movs	r2, r1
10003e18:	4382      	bics	r2, r0
10003e1a:	79d3      	ldrb	r3, [r2, #7]
10003e1c:	4543      	cmp	r3, r8
10003e1e:	d949      	bls.n	10003eb4 <irq_add_shared_handler+0x160>
10003e20:	46bc      	mov	ip, r7
10003e22:	4647      	mov	r7, r8
10003e24:	4688      	mov	r8, r1
10003e26:	e007      	b.n	10003e38 <irq_add_shared_handler+0xe4>
10003e28:	0058      	lsls	r0, r3, #1
10003e2a:	18c0      	adds	r0, r0, r3
10003e2c:	0080      	lsls	r0, r0, #2
10003e2e:	1820      	adds	r0, r4, r0
10003e30:	79c1      	ldrb	r1, [r0, #7]
10003e32:	42b9      	cmp	r1, r7
10003e34:	d928      	bls.n	10003e88 <irq_add_shared_handler+0x134>
10003e36:	0002      	movs	r2, r0
10003e38:	2306      	movs	r3, #6
10003e3a:	56d3      	ldrsb	r3, [r2, r3]
10003e3c:	2b00      	cmp	r3, #0
10003e3e:	daf3      	bge.n	10003e28 <irq_add_shared_handler+0xd4>
10003e40:	469a      	mov	sl, r3
10003e42:	1d13      	adds	r3, r2, #4
10003e44:	469c      	mov	ip, r3
10003e46:	4641      	mov	r1, r8
10003e48:	46b8      	mov	r8, r7
10003e4a:	4f37      	ldr	r7, [pc, #220]	@ (10003f28 <irq_add_shared_handler+0x1d4>)
10003e4c:	4648      	mov	r0, r9
10003e4e:	4663      	mov	r3, ip
10003e50:	3804      	subs	r0, #4
10003e52:	1ac0      	subs	r0, r0, r3
10003e54:	0500      	lsls	r0, r0, #20
10003e56:	4b32      	ldr	r3, [pc, #200]	@ (10003f20 <irq_add_shared_handler+0x1cc>)
10003e58:	0d40      	lsrs	r0, r0, #21
10003e5a:	4318      	orrs	r0, r3
10003e5c:	9b01      	ldr	r3, [sp, #4]
10003e5e:	8090      	strh	r0, [r2, #4]
10003e60:	7195      	strb	r5, [r2, #6]
10003e62:	195a      	adds	r2, r3, r5
10003e64:	4653      	mov	r3, sl
10003e66:	0092      	lsls	r2, r2, #2
10003e68:	18a4      	adds	r4, r4, r2
10003e6a:	71a3      	strb	r3, [r4, #6]
10003e6c:	4643      	mov	r3, r8
10003e6e:	4a2f      	ldr	r2, [pc, #188]	@ (10003f2c <irq_add_shared_handler+0x1d8>)
10003e70:	71e3      	strb	r3, [r4, #7]
10003e72:	9b00      	ldr	r3, [sp, #0]
10003e74:	6022      	str	r2, [r4, #0]
10003e76:	80a7      	strh	r7, [r4, #4]
10003e78:	60a3      	str	r3, [r4, #8]
10003e7a:	e7b8      	b.n	10003dee <irq_add_shared_handler+0x9a>
10003e7c:	f001 fc46 	bl	1000570c <hard_assertion_failure>
10003e80:	2500      	movs	r5, #0
10003e82:	4653      	mov	r3, sl
10003e84:	575d      	ldrsb	r5, [r3, r5]
10003e86:	e77f      	b.n	10003d88 <irq_add_shared_handler+0x34>
10003e88:	469a      	mov	sl, r3
10003e8a:	4641      	mov	r1, r8
10003e8c:	1d13      	adds	r3, r2, #4
10003e8e:	46b8      	mov	r8, r7
10003e90:	4667      	mov	r7, ip
10003e92:	469c      	mov	ip, r3
10003e94:	8890      	ldrh	r0, [r2, #4]
10003e96:	3704      	adds	r7, #4
10003e98:	0540      	lsls	r0, r0, #21
10003e9a:	1500      	asrs	r0, r0, #20
10003e9c:	19e7      	adds	r7, r4, r7
10003e9e:	4460      	add	r0, ip
10003ea0:	1bc0      	subs	r0, r0, r7
10003ea2:	27e0      	movs	r7, #224	@ 0xe0
10003ea4:	0500      	lsls	r0, r0, #20
10003ea6:	0d40      	lsrs	r0, r0, #21
10003ea8:	023f      	lsls	r7, r7, #8
10003eaa:	4307      	orrs	r7, r0
10003eac:	e7ce      	b.n	10003e4c <irq_add_shared_handler+0xf8>
10003eae:	f001 fc2d 	bl	1000570c <hard_assertion_failure>
10003eb2:	e77f      	b.n	10003db4 <irq_add_shared_handler+0x60>
10003eb4:	0013      	movs	r3, r2
10003eb6:	491e      	ldr	r1, [pc, #120]	@ (10003f30 <irq_add_shared_handler+0x1dc>)
10003eb8:	1b1b      	subs	r3, r3, r4
10003eba:	415b      	adcs	r3, r3
10003ebc:	4359      	muls	r1, r3
10003ebe:	0d09      	lsrs	r1, r1, #20
10003ec0:	4b15      	ldr	r3, [pc, #84]	@ (10003f18 <irq_add_shared_handler+0x1c4>)
10003ec2:	1cbd      	adds	r5, r7, #2
10003ec4:	53e3      	strh	r3, [r4, r7]
10003ec6:	4b15      	ldr	r3, [pc, #84]	@ (10003f1c <irq_add_shared_handler+0x1c8>)
10003ec8:	1965      	adds	r5, r4, r5
10003eca:	3b04      	subs	r3, #4
10003ecc:	1b5b      	subs	r3, r3, r5
10003ece:	051b      	lsls	r3, r3, #20
10003ed0:	4d13      	ldr	r5, [pc, #76]	@ (10003f20 <irq_add_shared_handler+0x1cc>)
10003ed2:	0d5b      	lsrs	r3, r3, #21
10003ed4:	432b      	orrs	r3, r5
10003ed6:	46ac      	mov	ip, r5
10003ed8:	464d      	mov	r5, r9
10003eda:	806b      	strh	r3, [r5, #2]
10003edc:	4665      	mov	r5, ip
10003ede:	3704      	adds	r7, #4
10003ee0:	1f13      	subs	r3, r2, #4
10003ee2:	19e7      	adds	r7, r4, r7
10003ee4:	1bdb      	subs	r3, r3, r7
10003ee6:	051b      	lsls	r3, r3, #20
10003ee8:	0d5b      	lsrs	r3, r3, #21
10003eea:	431d      	orrs	r5, r3
10003eec:	464b      	mov	r3, r9
10003eee:	7199      	strb	r1, [r3, #6]
10003ef0:	4641      	mov	r1, r8
10003ef2:	71d9      	strb	r1, [r3, #7]
10003ef4:	9900      	ldr	r1, [sp, #0]
10003ef6:	809d      	strh	r5, [r3, #4]
10003ef8:	6099      	str	r1, [r3, #8]
10003efa:	4649      	mov	r1, r9
10003efc:	4b0b      	ldr	r3, [pc, #44]	@ (10003f2c <irq_add_shared_handler+0x1d8>)
10003efe:	4301      	orrs	r1, r0
10003f00:	6013      	str	r3, [r2, #0]
10003f02:	e774      	b.n	10003dee <irq_add_shared_handler+0x9a>
10003f04:	d0000124 	.word	0xd0000124
10003f08:	2003f3f2 	.word	0x2003f3f2
10003f0c:	20000ffc 	.word	0x20000ffc
10003f10:	e000ed00 	.word	0xe000ed00
10003f14:	100001cd 	.word	0x100001cd
10003f18:	ffffa100 	.word	0xffffa100
10003f1c:	2000102c 	.word	0x2000102c
10003f20:	ffffe000 	.word	0xffffe000
10003f24:	ffffbd01 	.word	0xffffbd01
10003f28:	0000bd01 	.word	0x0000bd01
10003f2c:	47804801 	.word	0x47804801
10003f30:	0000aaaa 	.word	0x0000aaaa

10003f34 <irq_remove_handler>:
10003f34:	b5f0      	push	{r4, r5, r6, r7, lr}
10003f36:	46de      	mov	lr, fp
10003f38:	4657      	mov	r7, sl
10003f3a:	464e      	mov	r6, r9
10003f3c:	4645      	mov	r5, r8
10003f3e:	b5e0      	push	{r5, r6, r7, lr}
10003f40:	000c      	movs	r4, r1
10003f42:	b083      	sub	sp, #12
10003f44:	f3ef 8810 	mrs	r8, PRIMASK
10003f48:	b672      	cpsid	i
10003f4a:	4a5d      	ldr	r2, [pc, #372]	@ (100040c0 <irq_remove_handler+0x18c>)
10003f4c:	6813      	ldr	r3, [r2, #0]
10003f4e:	2b00      	cmp	r3, #0
10003f50:	d0fc      	beq.n	10003f4c <irq_remove_handler+0x18>
10003f52:	f3bf 8f5f 	dmb	sy
10003f56:	4b5b      	ldr	r3, [pc, #364]	@ (100040c4 <irq_remove_handler+0x190>)
10003f58:	495b      	ldr	r1, [pc, #364]	@ (100040c8 <irq_remove_handler+0x194>)
10003f5a:	689a      	ldr	r2, [r3, #8]
10003f5c:	0003      	movs	r3, r0
10003f5e:	3310      	adds	r3, #16
10003f60:	009f      	lsls	r7, r3, #2
10003f62:	59d5      	ldr	r5, [r2, r7]
10003f64:	428d      	cmp	r5, r1
10003f66:	d039      	beq.n	10003fdc <irq_remove_handler+0xa8>
10003f68:	42a5      	cmp	r5, r4
10003f6a:	d04a      	beq.n	10004002 <irq_remove_handler+0xce>
10003f6c:	4e57      	ldr	r6, [pc, #348]	@ (100040cc <irq_remove_handler+0x198>)
10003f6e:	1baa      	subs	r2, r5, r6
10003f70:	2a2f      	cmp	r2, #47	@ 0x2f
10003f72:	d833      	bhi.n	10003fdc <irq_remove_handler+0xa8>
10003f74:	2201      	movs	r2, #1
10003f76:	4692      	mov	sl, r2
10003f78:	4082      	lsls	r2, r0
10003f7a:	4691      	mov	r9, r2
10003f7c:	4648      	mov	r0, r9
10003f7e:	4a54      	ldr	r2, [pc, #336]	@ (100040d0 <irq_remove_handler+0x19c>)
10003f80:	6812      	ldr	r2, [r2, #0]
10003f82:	4010      	ands	r0, r2
10003f84:	9001      	str	r0, [sp, #4]
10003f86:	4648      	mov	r0, r9
10003f88:	4a52      	ldr	r2, [pc, #328]	@ (100040d4 <irq_remove_handler+0x1a0>)
10003f8a:	6010      	str	r0, [r2, #0]
10003f8c:	f3bf 8f5f 	dmb	sy
10003f90:	f3ef 8205 	mrs	r2, IPSR
10003f94:	4693      	mov	fp, r2
10003f96:	2a00      	cmp	r2, #0
10003f98:	d035      	beq.n	10004006 <irq_remove_handler+0xd2>
10003f9a:	4293      	cmp	r3, r2
10003f9c:	d001      	beq.n	10003fa2 <irq_remove_handler+0x6e>
10003f9e:	f001 fbb5 	bl	1000570c <hard_assertion_failure>
10003fa2:	002a      	movs	r2, r5
10003fa4:	4653      	mov	r3, sl
10003fa6:	439a      	bics	r2, r3
10003fa8:	6890      	ldr	r0, [r2, #8]
10003faa:	4284      	cmp	r4, r0
10003fac:	d108      	bne.n	10003fc0 <irq_remove_handler+0x8c>
10003fae:	e075      	b.n	1000409c <irq_remove_handler+0x168>
10003fb0:	004b      	lsls	r3, r1, #1
10003fb2:	185b      	adds	r3, r3, r1
10003fb4:	009b      	lsls	r3, r3, #2
10003fb6:	18f3      	adds	r3, r6, r3
10003fb8:	6898      	ldr	r0, [r3, #8]
10003fba:	42a0      	cmp	r0, r4
10003fbc:	d034      	beq.n	10004028 <irq_remove_handler+0xf4>
10003fbe:	001a      	movs	r2, r3
10003fc0:	2106      	movs	r1, #6
10003fc2:	5651      	ldrsb	r1, [r2, r1]
10003fc4:	2900      	cmp	r1, #0
10003fc6:	daf3      	bge.n	10003fb0 <irq_remove_handler+0x7c>
10003fc8:	4284      	cmp	r4, r0
10003fca:	d053      	beq.n	10004074 <irq_remove_handler+0x140>
10003fcc:	9b01      	ldr	r3, [sp, #4]
10003fce:	2b00      	cmp	r3, #0
10003fd0:	d026      	beq.n	10004020 <irq_remove_handler+0xec>
10003fd2:	464a      	mov	r2, r9
10003fd4:	4b40      	ldr	r3, [pc, #256]	@ (100040d8 <irq_remove_handler+0x1a4>)
10003fd6:	601a      	str	r2, [r3, #0]
10003fd8:	4b3d      	ldr	r3, [pc, #244]	@ (100040d0 <irq_remove_handler+0x19c>)
10003fda:	601a      	str	r2, [r3, #0]
10003fdc:	4b39      	ldr	r3, [pc, #228]	@ (100040c4 <irq_remove_handler+0x190>)
10003fde:	689b      	ldr	r3, [r3, #8]
10003fe0:	51dd      	str	r5, [r3, r7]
10003fe2:	f3bf 8f5f 	dmb	sy
10003fe6:	f3bf 8f5f 	dmb	sy
10003fea:	2200      	movs	r2, #0
10003fec:	4b34      	ldr	r3, [pc, #208]	@ (100040c0 <irq_remove_handler+0x18c>)
10003fee:	601a      	str	r2, [r3, #0]
10003ff0:	f388 8810 	msr	PRIMASK, r8
10003ff4:	b003      	add	sp, #12
10003ff6:	bcf0      	pop	{r4, r5, r6, r7}
10003ff8:	46bb      	mov	fp, r7
10003ffa:	46b2      	mov	sl, r6
10003ffc:	46a9      	mov	r9, r5
10003ffe:	46a0      	mov	r8, r4
10004000:	bdf0      	pop	{r4, r5, r6, r7, pc}
10004002:	000d      	movs	r5, r1
10004004:	e7ea      	b.n	10003fdc <irq_remove_handler+0xa8>
10004006:	002a      	movs	r2, r5
10004008:	4653      	mov	r3, sl
1000400a:	439a      	bics	r2, r3
1000400c:	6890      	ldr	r0, [r2, #8]
1000400e:	4284      	cmp	r4, r0
10004010:	d1d6      	bne.n	10003fc0 <irq_remove_handler+0x8c>
10004012:	2006      	movs	r0, #6
10004014:	5610      	ldrsb	r0, [r2, r0]
10004016:	0013      	movs	r3, r2
10004018:	2800      	cmp	r0, #0
1000401a:	da09      	bge.n	10004030 <irq_remove_handler+0xfc>
1000401c:	000d      	movs	r5, r1
1000401e:	e031      	b.n	10004084 <irq_remove_handler+0x150>
10004020:	464a      	mov	r2, r9
10004022:	4b2c      	ldr	r3, [pc, #176]	@ (100040d4 <irq_remove_handler+0x1a0>)
10004024:	601a      	str	r2, [r3, #0]
10004026:	e7d9      	b.n	10003fdc <irq_remove_handler+0xa8>
10004028:	2006      	movs	r0, #6
1000402a:	5618      	ldrsb	r0, [r3, r0]
1000402c:	2800      	cmp	r0, #0
1000402e:	db22      	blt.n	10004076 <irq_remove_handler+0x142>
10004030:	0042      	lsls	r2, r0, #1
10004032:	1811      	adds	r1, r2, r0
10004034:	0089      	lsls	r1, r1, #2
10004036:	1874      	adds	r4, r6, r1
10004038:	468a      	mov	sl, r1
1000403a:	68a1      	ldr	r1, [r4, #8]
1000403c:	6099      	str	r1, [r3, #8]
1000403e:	79e1      	ldrb	r1, [r4, #7]
10004040:	71d9      	strb	r1, [r3, #7]
10004042:	2106      	movs	r1, #6
10004044:	5661      	ldrsb	r1, [r4, r1]
10004046:	7199      	strb	r1, [r3, #6]
10004048:	2900      	cmp	r1, #0
1000404a:	db25      	blt.n	10004098 <irq_remove_handler+0x164>
1000404c:	88a4      	ldrh	r4, [r4, #4]
1000404e:	1af1      	subs	r1, r6, r3
10004050:	0564      	lsls	r4, r4, #21
10004052:	1524      	asrs	r4, r4, #20
10004054:	4454      	add	r4, sl
10004056:	1909      	adds	r1, r1, r4
10004058:	24e0      	movs	r4, #224	@ 0xe0
1000405a:	0509      	lsls	r1, r1, #20
1000405c:	0d49      	lsrs	r1, r1, #21
1000405e:	0224      	lsls	r4, r4, #8
10004060:	4321      	orrs	r1, r4
10004062:	8099      	strh	r1, [r3, #4]
10004064:	1813      	adds	r3, r2, r0
10004066:	4a1d      	ldr	r2, [pc, #116]	@ (100040dc <irq_remove_handler+0x1a8>)
10004068:	009b      	lsls	r3, r3, #2
1000406a:	7811      	ldrb	r1, [r2, #0]
1000406c:	18f3      	adds	r3, r6, r3
1000406e:	7199      	strb	r1, [r3, #6]
10004070:	7010      	strb	r0, [r2, #0]
10004072:	e7ab      	b.n	10003fcc <irq_remove_handler+0x98>
10004074:	0013      	movs	r3, r2
10004076:	4659      	mov	r1, fp
10004078:	2900      	cmp	r1, #0
1000407a:	d114      	bne.n	100040a6 <irq_remove_handler+0x172>
1000407c:	31ff      	adds	r1, #255	@ 0xff
1000407e:	7191      	strb	r1, [r2, #6]
10004080:	4917      	ldr	r1, [pc, #92]	@ (100040e0 <irq_remove_handler+0x1ac>)
10004082:	8091      	strh	r1, [r2, #4]
10004084:	4915      	ldr	r1, [pc, #84]	@ (100040dc <irq_remove_handler+0x1a8>)
10004086:	780a      	ldrb	r2, [r1, #0]
10004088:	719a      	strb	r2, [r3, #6]
1000408a:	4a16      	ldr	r2, [pc, #88]	@ (100040e4 <irq_remove_handler+0x1b0>)
1000408c:	1b9b      	subs	r3, r3, r6
1000408e:	415b      	adcs	r3, r3
10004090:	435a      	muls	r2, r3
10004092:	0d12      	lsrs	r2, r2, #20
10004094:	700a      	strb	r2, [r1, #0]
10004096:	e799      	b.n	10003fcc <irq_remove_handler+0x98>
10004098:	4913      	ldr	r1, [pc, #76]	@ (100040e8 <irq_remove_handler+0x1b4>)
1000409a:	e7e2      	b.n	10004062 <irq_remove_handler+0x12e>
1000409c:	2006      	movs	r0, #6
1000409e:	5610      	ldrsb	r0, [r2, r0]
100040a0:	0013      	movs	r3, r2
100040a2:	2800      	cmp	r0, #0
100040a4:	dac4      	bge.n	10004030 <irq_remove_handler+0xfc>
100040a6:	4a11      	ldr	r2, [pc, #68]	@ (100040ec <irq_remove_handler+0x1b8>)
100040a8:	4911      	ldr	r1, [pc, #68]	@ (100040f0 <irq_remove_handler+0x1bc>)
100040aa:	1ad2      	subs	r2, r2, r3
100040ac:	3a08      	subs	r2, #8
100040ae:	0250      	lsls	r0, r2, #9
100040b0:	0d40      	lsrs	r0, r0, #21
100040b2:	4301      	orrs	r1, r0
100040b4:	8099      	strh	r1, [r3, #4]
100040b6:	490f      	ldr	r1, [pc, #60]	@ (100040f4 <irq_remove_handler+0x1c0>)
100040b8:	0852      	lsrs	r2, r2, #1
100040ba:	430a      	orrs	r2, r1
100040bc:	80da      	strh	r2, [r3, #6]
100040be:	e785      	b.n	10003fcc <irq_remove_handler+0x98>
100040c0:	d0000124 	.word	0xd0000124
100040c4:	e000ed00 	.word	0xe000ed00
100040c8:	100001cd 	.word	0x100001cd
100040cc:	20000ffc 	.word	0x20000ffc
100040d0:	e000e100 	.word	0xe000e100
100040d4:	e000e180 	.word	0xe000e180
100040d8:	e000e280 	.word	0xe000e280
100040dc:	2003f3f2 	.word	0x2003f3f2
100040e0:	ffffbd01 	.word	0xffffbd01
100040e4:	0000aaaa 	.word	0x0000aaaa
100040e8:	0000bd01 	.word	0x0000bd01
100040ec:	20001036 	.word	0x20001036
100040f0:	fffff000 	.word	0xfffff000
100040f4:	fffff800 	.word	0xfffff800

100040f8 <irq_add_tail_to_free_list>:
100040f8:	b570      	push	{r4, r5, r6, lr}
100040fa:	f3ef 8105 	mrs	r1, IPSR
100040fe:	2401      	movs	r4, #1
10004100:	4304      	orrs	r4, r0
10004102:	f3ef 8c10 	mrs	ip, PRIMASK
10004106:	b672      	cpsid	i
10004108:	4a21      	ldr	r2, [pc, #132]	@ (10004190 <irq_add_tail_to_free_list+0x98>)
1000410a:	6813      	ldr	r3, [r2, #0]
1000410c:	2b00      	cmp	r3, #0
1000410e:	d0fc      	beq.n	1000410a <irq_add_tail_to_free_list+0x12>
10004110:	f3bf 8f5f 	dmb	sy
10004114:	4b1f      	ldr	r3, [pc, #124]	@ (10004194 <irq_add_tail_to_free_list+0x9c>)
10004116:	0005      	movs	r5, r0
10004118:	4a1f      	ldr	r2, [pc, #124]	@ (10004198 <irq_add_tail_to_free_list+0xa0>)
1000411a:	1aed      	subs	r5, r5, r3
1000411c:	416d      	adcs	r5, r5
1000411e:	436a      	muls	r2, r5
10004120:	0d12      	lsrs	r2, r2, #20
10004122:	4d1e      	ldr	r5, [pc, #120]	@ (1000419c <irq_add_tail_to_free_list+0xa4>)
10004124:	0089      	lsls	r1, r1, #2
10004126:	68ae      	ldr	r6, [r5, #8]
10004128:	b252      	sxtb	r2, r2
1000412a:	5876      	ldr	r6, [r6, r1]
1000412c:	42a6      	cmp	r6, r4
1000412e:	d01c      	beq.n	1000416a <irq_add_tail_to_free_list+0x72>
10004130:	2106      	movs	r1, #6
10004132:	5659      	ldrsb	r1, [r3, r1]
10004134:	4291      	cmp	r1, r2
10004136:	d01c      	beq.n	10004172 <irq_add_tail_to_free_list+0x7a>
10004138:	2112      	movs	r1, #18
1000413a:	5659      	ldrsb	r1, [r3, r1]
1000413c:	4291      	cmp	r1, r2
1000413e:	d022      	beq.n	10004186 <irq_add_tail_to_free_list+0x8e>
10004140:	211e      	movs	r1, #30
10004142:	5659      	ldrsb	r1, [r3, r1]
10004144:	4291      	cmp	r1, r2
10004146:	d020      	beq.n	1000418a <irq_add_tail_to_free_list+0x92>
10004148:	212a      	movs	r1, #42	@ 0x2a
1000414a:	5659      	ldrsb	r1, [r3, r1]
1000414c:	2403      	movs	r4, #3
1000414e:	4291      	cmp	r1, r2
10004150:	d010      	beq.n	10004174 <irq_add_tail_to_free_list+0x7c>
10004152:	4b13      	ldr	r3, [pc, #76]	@ (100041a0 <irq_add_tail_to_free_list+0xa8>)
10004154:	7819      	ldrb	r1, [r3, #0]
10004156:	701a      	strb	r2, [r3, #0]
10004158:	7181      	strb	r1, [r0, #6]
1000415a:	f3bf 8f5f 	dmb	sy
1000415e:	2200      	movs	r2, #0
10004160:	4b0b      	ldr	r3, [pc, #44]	@ (10004190 <irq_add_tail_to_free_list+0x98>)
10004162:	601a      	str	r2, [r3, #0]
10004164:	f38c 8810 	msr	PRIMASK, ip
10004168:	bd70      	pop	{r4, r5, r6, pc}
1000416a:	68ab      	ldr	r3, [r5, #8]
1000416c:	4c0d      	ldr	r4, [pc, #52]	@ (100041a4 <irq_add_tail_to_free_list+0xac>)
1000416e:	505c      	str	r4, [r3, r1]
10004170:	e7ef      	b.n	10004152 <irq_add_tail_to_free_list+0x5a>
10004172:	2400      	movs	r4, #0
10004174:	0061      	lsls	r1, r4, #1
10004176:	1909      	adds	r1, r1, r4
10004178:	0089      	lsls	r1, r1, #2
1000417a:	185b      	adds	r3, r3, r1
1000417c:	21ff      	movs	r1, #255	@ 0xff
1000417e:	7199      	strb	r1, [r3, #6]
10004180:	4909      	ldr	r1, [pc, #36]	@ (100041a8 <irq_add_tail_to_free_list+0xb0>)
10004182:	8099      	strh	r1, [r3, #4]
10004184:	e7e5      	b.n	10004152 <irq_add_tail_to_free_list+0x5a>
10004186:	2401      	movs	r4, #1
10004188:	e7f4      	b.n	10004174 <irq_add_tail_to_free_list+0x7c>
1000418a:	2402      	movs	r4, #2
1000418c:	e7f2      	b.n	10004174 <irq_add_tail_to_free_list+0x7c>
1000418e:	46c0      	nop			@ (mov r8, r8)
10004190:	d0000124 	.word	0xd0000124
10004194:	20000ffc 	.word	0x20000ffc
10004198:	0000aaaa 	.word	0x0000aaaa
1000419c:	e000ed00 	.word	0xe000ed00
100041a0:	2003f3f2 	.word	0x2003f3f2
100041a4:	100001cd 	.word	0x100001cd
100041a8:	ffffbd01 	.word	0xffffbd01

100041ac <irq_init_priorities>:
100041ac:	4b05      	ldr	r3, [pc, #20]	@ (100041c4 <irq_init_priorities+0x18>)
100041ae:	4a06      	ldr	r2, [pc, #24]	@ (100041c8 <irq_init_priorities+0x1c>)
100041b0:	6013      	str	r3, [r2, #0]
100041b2:	4a06      	ldr	r2, [pc, #24]	@ (100041cc <irq_init_priorities+0x20>)
100041b4:	6013      	str	r3, [r2, #0]
100041b6:	6053      	str	r3, [r2, #4]
100041b8:	6093      	str	r3, [r2, #8]
100041ba:	60d3      	str	r3, [r2, #12]
100041bc:	6113      	str	r3, [r2, #16]
100041be:	6153      	str	r3, [r2, #20]
100041c0:	6193      	str	r3, [r2, #24]
100041c2:	4770      	bx	lr
100041c4:	80808080 	.word	0x80808080
100041c8:	e000e400 	.word	0xe000e400
100041cc:	e000e404 	.word	0xe000e404

100041d0 <user_irq_claim_unused>:
100041d0:	b510      	push	{r4, lr}
100041d2:	4b08      	ldr	r3, [pc, #32]	@ (100041f4 <user_irq_claim_unused+0x24>)
100041d4:	4c08      	ldr	r4, [pc, #32]	@ (100041f8 <user_irq_claim_unused+0x28>)
100041d6:	b082      	sub	sp, #8
100041d8:	0001      	movs	r1, r0
100041da:	9300      	str	r3, [sp, #0]
100041dc:	2200      	movs	r2, #0
100041de:	2305      	movs	r3, #5
100041e0:	0020      	movs	r0, r4
100041e2:	f7ff fccf 	bl	10003b84 <hw_claim_unused_from_range>
100041e6:	2800      	cmp	r0, #0
100041e8:	db01      	blt.n	100041ee <user_irq_claim_unused+0x1e>
100041ea:	231f      	movs	r3, #31
100041ec:	1a18      	subs	r0, r3, r0
100041ee:	b002      	add	sp, #8
100041f0:	bd10      	pop	{r4, pc}
100041f2:	46c0      	nop			@ (mov r8, r8)
100041f4:	1000b380 	.word	0x1000b380
100041f8:	2003f3f8 	.word	0x2003f3f8

100041fc <lock_init>:
100041fc:	4b02      	ldr	r3, [pc, #8]	@ (10004208 <lock_init+0xc>)
100041fe:	469c      	mov	ip, r3
10004200:	4461      	add	r1, ip
10004202:	0089      	lsls	r1, r1, #2
10004204:	6001      	str	r1, [r0, #0]
10004206:	4770      	bx	lr
10004208:	34000040 	.word	0x34000040

1000420c <mutex_init>:
1000420c:	b510      	push	{r4, lr}
1000420e:	0004      	movs	r4, r0
10004210:	f7ff fd14 	bl	10003c3c <next_striped_spin_lock_num>
10004214:	0001      	movs	r1, r0
10004216:	0020      	movs	r0, r4
10004218:	f7ff fff0 	bl	100041fc <lock_init>
1000421c:	23ff      	movs	r3, #255	@ 0xff
1000421e:	7123      	strb	r3, [r4, #4]
10004220:	f3bf 8f5f 	dmb	sy
10004224:	bd10      	pop	{r4, pc}
10004226:	46c0      	nop			@ (mov r8, r8)

10004228 <recursive_mutex_init>:
10004228:	b510      	push	{r4, lr}
1000422a:	0004      	movs	r4, r0
1000422c:	f7ff fd06 	bl	10003c3c <next_striped_spin_lock_num>
10004230:	0001      	movs	r1, r0
10004232:	0020      	movs	r0, r4
10004234:	f7ff ffe2 	bl	100041fc <lock_init>
10004238:	23ff      	movs	r3, #255	@ 0xff
1000423a:	80a3      	strh	r3, [r4, #4]
1000423c:	f3bf 8f5f 	dmb	sy
10004240:	bd10      	pop	{r4, pc}
10004242:	46c0      	nop			@ (mov r8, r8)

10004244 <critical_section_init>:
10004244:	b510      	push	{r4, lr}
10004246:	0004      	movs	r4, r0
10004248:	2001      	movs	r0, #1
1000424a:	f7ff fd03 	bl	10003c54 <spin_lock_claim_unused>
1000424e:	4b03      	ldr	r3, [pc, #12]	@ (1000425c <critical_section_init+0x18>)
10004250:	18c3      	adds	r3, r0, r3
10004252:	009b      	lsls	r3, r3, #2
10004254:	6023      	str	r3, [r4, #0]
10004256:	f3bf 8f5f 	dmb	sy
1000425a:	bd10      	pop	{r4, pc}
1000425c:	34000040 	.word	0x34000040

10004260 <critical_section_init_with_lock_num>:
10004260:	4b03      	ldr	r3, [pc, #12]	@ (10004270 <critical_section_init_with_lock_num+0x10>)
10004262:	469c      	mov	ip, r3
10004264:	4461      	add	r1, ip
10004266:	0089      	lsls	r1, r1, #2
10004268:	6001      	str	r1, [r0, #0]
1000426a:	f3bf 8f5f 	dmb	sy
1000426e:	4770      	bx	lr
10004270:	34000040 	.word	0x34000040

10004274 <timer_pool_entry_comparator>:
10004274:	6883      	ldr	r3, [r0, #8]
10004276:	480b      	ldr	r0, [pc, #44]	@ (100042a4 <timer_pool_entry_comparator+0x30>)
10004278:	b510      	push	{r4, lr}
1000427a:	4684      	mov	ip, r0
1000427c:	4461      	add	r1, ip
1000427e:	4462      	add	r2, ip
10004280:	0112      	lsls	r2, r2, #4
10004282:	0109      	lsls	r1, r1, #4
10004284:	1859      	adds	r1, r3, r1
10004286:	189b      	adds	r3, r3, r2
10004288:	685c      	ldr	r4, [r3, #4]
1000428a:	684a      	ldr	r2, [r1, #4]
1000428c:	2001      	movs	r0, #1
1000428e:	4294      	cmp	r4, r2
10004290:	d801      	bhi.n	10004296 <timer_pool_entry_comparator+0x22>
10004292:	d002      	beq.n	1000429a <timer_pool_entry_comparator+0x26>
10004294:	2000      	movs	r0, #0
10004296:	b2c0      	uxtb	r0, r0
10004298:	bd10      	pop	{r4, pc}
1000429a:	681a      	ldr	r2, [r3, #0]
1000429c:	680b      	ldr	r3, [r1, #0]
1000429e:	429a      	cmp	r2, r3
100042a0:	d8f9      	bhi.n	10004296 <timer_pool_entry_comparator+0x22>
100042a2:	e7f7      	b.n	10004294 <timer_pool_entry_comparator+0x20>
100042a4:	0fffffff 	.word	0x0fffffff

100042a8 <sleep_until_callback>:
100042a8:	4b0a      	ldr	r3, [pc, #40]	@ (100042d4 <sleep_until_callback+0x2c>)
100042aa:	6819      	ldr	r1, [r3, #0]
100042ac:	f3ef 8010 	mrs	r0, PRIMASK
100042b0:	b672      	cpsid	i
100042b2:	680a      	ldr	r2, [r1, #0]
100042b4:	2a00      	cmp	r2, #0
100042b6:	d0fc      	beq.n	100042b2 <sleep_until_callback+0xa>
100042b8:	f3bf 8f5f 	dmb	sy
100042bc:	681b      	ldr	r3, [r3, #0]
100042be:	f3bf 8f5f 	dmb	sy
100042c2:	2200      	movs	r2, #0
100042c4:	601a      	str	r2, [r3, #0]
100042c6:	f380 8810 	msr	PRIMASK, r0
100042ca:	bf40      	sev
100042cc:	2000      	movs	r0, #0
100042ce:	2100      	movs	r1, #0
100042d0:	4770      	bx	lr
100042d2:	46c0      	nop			@ (mov r8, r8)
100042d4:	2003f3a0 	.word	0x2003f3a0

100042d8 <add_alarm_under_lock.isra.0>:
100042d8:	b5f8      	push	{r3, r4, r5, r6, r7, lr}
100042da:	4657      	mov	r7, sl
100042dc:	4645      	mov	r5, r8
100042de:	464e      	mov	r6, r9
100042e0:	46de      	mov	lr, fp
100042e2:	b5e0      	push	{r5, r6, r7, lr}
100042e4:	4698      	mov	r8, r3
100042e6:	ab0c      	add	r3, sp, #48	@ 0x30
100042e8:	781c      	ldrb	r4, [r3, #0]
100042ea:	ab0d      	add	r3, sp, #52	@ 0x34
100042ec:	781b      	ldrb	r3, [r3, #0]
100042ee:	0007      	movs	r7, r0
100042f0:	4691      	mov	r9, r2
100042f2:	469a      	mov	sl, r3
100042f4:	6805      	ldr	r5, [r0, #0]
100042f6:	2c00      	cmp	r4, #0
100042f8:	d15a      	bne.n	100043b0 <add_alarm_under_lock.isra.0+0xd8>
100042fa:	7bac      	ldrb	r4, [r5, #14]
100042fc:	2c00      	cmp	r4, #0
100042fe:	d03b      	beq.n	10004378 <add_alarm_under_lock.isra.0+0xa0>
10004300:	0066      	lsls	r6, r4, #1
10004302:	6829      	ldr	r1, [r5, #0]
10004304:	1936      	adds	r6, r6, r4
10004306:	3e03      	subs	r6, #3
10004308:	1989      	adds	r1, r1, r6
1000430a:	784b      	ldrb	r3, [r1, #1]
1000430c:	73ab      	strb	r3, [r5, #14]
1000430e:	2b00      	cmp	r3, #0
10004310:	d100      	bne.n	10004314 <add_alarm_under_lock.isra.0+0x3c>
10004312:	73eb      	strb	r3, [r5, #15]
10004314:	2300      	movs	r3, #0
10004316:	708b      	strb	r3, [r1, #2]
10004318:	704b      	strb	r3, [r1, #1]
1000431a:	700b      	strb	r3, [r1, #0]
1000431c:	4b2b      	ldr	r3, [pc, #172]	@ (100043cc <add_alarm_under_lock.isra.0+0xf4>)
1000431e:	18e2      	adds	r2, r4, r3
10004320:	68bb      	ldr	r3, [r7, #8]
10004322:	0112      	lsls	r2, r2, #4
10004324:	189b      	adds	r3, r3, r2
10004326:	464a      	mov	r2, r9
10004328:	601a      	str	r2, [r3, #0]
1000432a:	4642      	mov	r2, r8
1000432c:	605a      	str	r2, [r3, #4]
1000432e:	9a0a      	ldr	r2, [sp, #40]	@ 0x28
10004330:	609a      	str	r2, [r3, #8]
10004332:	9a0b      	ldr	r2, [sp, #44]	@ 0x2c
10004334:	60da      	str	r2, [r3, #12]
10004336:	2300      	movs	r3, #0
10004338:	708b      	strb	r3, [r1, #2]
1000433a:	704b      	strb	r3, [r1, #1]
1000433c:	700b      	strb	r3, [r1, #0]
1000433e:	7b6b      	ldrb	r3, [r5, #13]
10004340:	469b      	mov	fp, r3
10004342:	2b00      	cmp	r3, #0
10004344:	d027      	beq.n	10004396 <add_alarm_under_lock.isra.0+0xbe>
10004346:	0022      	movs	r2, r4
10004348:	686b      	ldr	r3, [r5, #4]
1000434a:	4659      	mov	r1, fp
1000434c:	68a8      	ldr	r0, [r5, #8]
1000434e:	4798      	blx	r3
10004350:	465b      	mov	r3, fp
10004352:	005b      	lsls	r3, r3, #1
10004354:	445b      	add	r3, fp
10004356:	682a      	ldr	r2, [r5, #0]
10004358:	3b03      	subs	r3, #3
1000435a:	2800      	cmp	r0, #0
1000435c:	d012      	beq.n	10004384 <add_alarm_under_lock.isra.0+0xac>
1000435e:	4658      	mov	r0, fp
10004360:	1996      	adds	r6, r2, r6
10004362:	70b0      	strb	r0, [r6, #2]
10004364:	18d1      	adds	r1, r2, r3
10004366:	5cd3      	ldrb	r3, [r2, r3]
10004368:	2b00      	cmp	r3, #0
1000436a:	d000      	beq.n	1000436e <add_alarm_under_lock.isra.0+0x96>
1000436c:	7073      	strb	r3, [r6, #1]
1000436e:	465b      	mov	r3, fp
10004370:	700c      	strb	r4, [r1, #0]
10004372:	736b      	strb	r3, [r5, #13]
10004374:	455c      	cmp	r4, fp
10004376:	d00f      	beq.n	10004398 <add_alarm_under_lock.isra.0+0xc0>
10004378:	bcf0      	pop	{r4, r5, r6, r7}
1000437a:	46bb      	mov	fp, r7
1000437c:	46b2      	mov	sl, r6
1000437e:	46a9      	mov	r9, r5
10004380:	46a0      	mov	r8, r4
10004382:	bdf8      	pop	{r3, r4, r5, r6, r7, pc}
10004384:	18d3      	adds	r3, r2, r3
10004386:	709c      	strb	r4, [r3, #2]
10004388:	1991      	adds	r1, r2, r6
1000438a:	5d92      	ldrb	r2, [r2, r6]
1000438c:	2a00      	cmp	r2, #0
1000438e:	d000      	beq.n	10004392 <add_alarm_under_lock.isra.0+0xba>
10004390:	705a      	strb	r2, [r3, #1]
10004392:	465b      	mov	r3, fp
10004394:	700b      	strb	r3, [r1, #0]
10004396:	736c      	strb	r4, [r5, #13]
10004398:	464a      	mov	r2, r9
1000439a:	4643      	mov	r3, r8
1000439c:	7d38      	ldrb	r0, [r7, #20]
1000439e:	f000 fbd3 	bl	10004b48 <hardware_alarm_set_target>
100043a2:	1e05      	subs	r5, r0, #0
100043a4:	d10a      	bne.n	100043bc <add_alarm_under_lock.isra.0+0xe4>
100043a6:	9b0e      	ldr	r3, [sp, #56]	@ 0x38
100043a8:	2b00      	cmp	r3, #0
100043aa:	d0e5      	beq.n	10004378 <add_alarm_under_lock.isra.0+0xa0>
100043ac:	701d      	strb	r5, [r3, #0]
100043ae:	e7e3      	b.n	10004378 <add_alarm_under_lock.isra.0+0xa0>
100043b0:	0066      	lsls	r6, r4, #1
100043b2:	6829      	ldr	r1, [r5, #0]
100043b4:	1936      	adds	r6, r6, r4
100043b6:	3e03      	subs	r6, #3
100043b8:	1989      	adds	r1, r1, r6
100043ba:	e7af      	b.n	1000431c <add_alarm_under_lock.isra.0+0x44>
100043bc:	4653      	mov	r3, sl
100043be:	2b00      	cmp	r3, #0
100043c0:	d1f1      	bne.n	100043a6 <add_alarm_under_lock.isra.0+0xce>
100043c2:	0021      	movs	r1, r4
100043c4:	6838      	ldr	r0, [r7, #0]
100043c6:	f000 fdd7 	bl	10004f78 <ph_remove_and_free_node>
100043ca:	e7ec      	b.n	100043a6 <add_alarm_under_lock.isra.0+0xce>
100043cc:	0fffffff 	.word	0x0fffffff

100043d0 <alarm_pool_alarm_callback>:
100043d0:	b5f0      	push	{r4, r5, r6, r7, lr}
100043d2:	46de      	mov	lr, fp
100043d4:	4657      	mov	r7, sl
100043d6:	464e      	mov	r6, r9
100043d8:	4645      	mov	r5, r8
100043da:	2300      	movs	r3, #0
100043dc:	b5e0      	push	{r5, r6, r7, lr}
100043de:	b08b      	sub	sp, #44	@ 0x2c
100043e0:	9308      	str	r3, [sp, #32]
100043e2:	4b68      	ldr	r3, [pc, #416]	@ (10004584 <alarm_pool_alarm_callback+0x1b4>)
100043e4:	0082      	lsls	r2, r0, #2
100043e6:	58d4      	ldr	r4, [r2, r3]
100043e8:	2300      	movs	r3, #0
100043ea:	469b      	mov	fp, r3
100043ec:	9009      	str	r0, [sp, #36]	@ 0x24
100043ee:	f000 fb17 	bl	10004a20 <time_us_64>
100043f2:	0002      	movs	r2, r0
100043f4:	000b      	movs	r3, r1
100043f6:	6860      	ldr	r0, [r4, #4]
100043f8:	f3ef 8a10 	mrs	sl, PRIMASK
100043fc:	b672      	cpsid	i
100043fe:	4656      	mov	r6, sl
10004400:	6801      	ldr	r1, [r0, #0]
10004402:	2900      	cmp	r1, #0
10004404:	d0fc      	beq.n	10004400 <alarm_pool_alarm_callback+0x30>
10004406:	46b2      	mov	sl, r6
10004408:	f3bf 8f5f 	dmb	sy
1000440c:	6821      	ldr	r1, [r4, #0]
1000440e:	7b4f      	ldrb	r7, [r1, #13]
10004410:	468c      	mov	ip, r1
10004412:	2f00      	cmp	r7, #0
10004414:	d02e      	beq.n	10004474 <alarm_pool_alarm_callback+0xa4>
10004416:	68a5      	ldr	r5, [r4, #8]
10004418:	495b      	ldr	r1, [pc, #364]	@ (10004588 <alarm_pool_alarm_callback+0x1b8>)
1000441a:	46a9      	mov	r9, r5
1000441c:	1879      	adds	r1, r7, r1
1000441e:	0109      	lsls	r1, r1, #4
10004420:	4489      	add	r9, r1
10004422:	4649      	mov	r1, r9
10004424:	6808      	ldr	r0, [r1, #0]
10004426:	6849      	ldr	r1, [r1, #4]
10004428:	0005      	movs	r5, r0
1000442a:	000e      	movs	r6, r1
1000442c:	1aad      	subs	r5, r5, r2
1000442e:	419e      	sbcs	r6, r3
10004430:	2e00      	cmp	r6, #0
10004432:	dd5f      	ble.n	100044f4 <alarm_pool_alarm_callback+0x124>
10004434:	0002      	movs	r2, r0
10004436:	000b      	movs	r3, r1
10004438:	9809      	ldr	r0, [sp, #36]	@ 0x24
1000443a:	f000 fb85 	bl	10004b48 <hardware_alarm_set_target>
1000443e:	2300      	movs	r3, #0
10004440:	2200      	movs	r2, #0
10004442:	4699      	mov	r9, r3
10004444:	2300      	movs	r3, #0
10004446:	9206      	str	r2, [sp, #24]
10004448:	9307      	str	r3, [sp, #28]
1000444a:	2300      	movs	r3, #0
1000444c:	4698      	mov	r8, r3
1000444e:	6863      	ldr	r3, [r4, #4]
10004450:	f3bf 8f5f 	dmb	sy
10004454:	465a      	mov	r2, fp
10004456:	601a      	str	r2, [r3, #0]
10004458:	f38a 8810 	msr	PRIMASK, sl
1000445c:	4643      	mov	r3, r8
1000445e:	2b00      	cmp	r3, #0
10004460:	d112      	bne.n	10004488 <alarm_pool_alarm_callback+0xb8>
10004462:	2800      	cmp	r0, #0
10004464:	d1c3      	bne.n	100043ee <alarm_pool_alarm_callback+0x1e>
10004466:	b00b      	add	sp, #44	@ 0x2c
10004468:	bcf0      	pop	{r4, r5, r6, r7}
1000446a:	46bb      	mov	fp, r7
1000446c:	46b2      	mov	sl, r6
1000446e:	46a9      	mov	r9, r5
10004470:	46a0      	mov	r8, r4
10004472:	bdf0      	pop	{r4, r5, r6, r7, pc}
10004474:	2300      	movs	r3, #0
10004476:	2200      	movs	r2, #0
10004478:	4699      	mov	r9, r3
1000447a:	2300      	movs	r3, #0
1000447c:	9206      	str	r2, [sp, #24]
1000447e:	9307      	str	r3, [sp, #28]
10004480:	2300      	movs	r3, #0
10004482:	2000      	movs	r0, #0
10004484:	4698      	mov	r8, r3
10004486:	e7e2      	b.n	1000444e <alarm_pool_alarm_callback+0x7e>
10004488:	9b08      	ldr	r3, [sp, #32]
1000448a:	4649      	mov	r1, r9
1000448c:	0218      	lsls	r0, r3, #8
1000448e:	4338      	orrs	r0, r7
10004490:	47c0      	blx	r8
10004492:	6862      	ldr	r2, [r4, #4]
10004494:	0005      	movs	r5, r0
10004496:	000e      	movs	r6, r1
10004498:	f3ef 8a10 	mrs	sl, PRIMASK
1000449c:	b672      	cpsid	i
1000449e:	6813      	ldr	r3, [r2, #0]
100044a0:	2b00      	cmp	r3, #0
100044a2:	d0fc      	beq.n	1000449e <alarm_pool_alarm_callback+0xce>
100044a4:	f3bf 8f5f 	dmb	sy
100044a8:	2e00      	cmp	r6, #0
100044aa:	db41      	blt.n	10004530 <alarm_pool_alarm_callback+0x160>
100044ac:	002b      	movs	r3, r5
100044ae:	4333      	orrs	r3, r6
100044b0:	d002      	beq.n	100044b8 <alarm_pool_alarm_callback+0xe8>
100044b2:	6923      	ldr	r3, [r4, #16]
100044b4:	2b00      	cmp	r3, #0
100044b6:	d156      	bne.n	10004566 <alarm_pool_alarm_callback+0x196>
100044b8:	6823      	ldr	r3, [r4, #0]
100044ba:	7bd9      	ldrb	r1, [r3, #15]
100044bc:	2900      	cmp	r1, #0
100044be:	d005      	beq.n	100044cc <alarm_pool_alarm_callback+0xfc>
100044c0:	681a      	ldr	r2, [r3, #0]
100044c2:	0048      	lsls	r0, r1, #1
100044c4:	1841      	adds	r1, r0, r1
100044c6:	1852      	adds	r2, r2, r1
100044c8:	3a03      	subs	r2, #3
100044ca:	7057      	strb	r7, [r2, #1]
100044cc:	7b9a      	ldrb	r2, [r3, #14]
100044ce:	2a00      	cmp	r2, #0
100044d0:	d100      	bne.n	100044d4 <alarm_pool_alarm_callback+0x104>
100044d2:	739f      	strb	r7, [r3, #14]
100044d4:	73df      	strb	r7, [r3, #15]
100044d6:	68e2      	ldr	r2, [r4, #12]
100044d8:	3f01      	subs	r7, #1
100044da:	5dd3      	ldrb	r3, [r2, r7]
100044dc:	3301      	adds	r3, #1
100044de:	55d3      	strb	r3, [r2, r7]
100044e0:	465b      	mov	r3, fp
100044e2:	6123      	str	r3, [r4, #16]
100044e4:	6863      	ldr	r3, [r4, #4]
100044e6:	f3bf 8f5f 	dmb	sy
100044ea:	465a      	mov	r2, fp
100044ec:	601a      	str	r2, [r3, #0]
100044ee:	f38a 8810 	msr	PRIMASK, sl
100044f2:	e77c      	b.n	100043ee <alarm_pool_alarm_callback+0x1e>
100044f4:	2e00      	cmp	r6, #0
100044f6:	d102      	bne.n	100044fe <alarm_pool_alarm_callback+0x12e>
100044f8:	2d00      	cmp	r5, #0
100044fa:	d000      	beq.n	100044fe <alarm_pool_alarm_callback+0x12e>
100044fc:	e79a      	b.n	10004434 <alarm_pool_alarm_callback+0x64>
100044fe:	2100      	movs	r1, #0
10004500:	4660      	mov	r0, ip
10004502:	f000 fcb7 	bl	10004e74 <ph_remove_head>
10004506:	464b      	mov	r3, r9
10004508:	681a      	ldr	r2, [r3, #0]
1000450a:	685b      	ldr	r3, [r3, #4]
1000450c:	9206      	str	r2, [sp, #24]
1000450e:	9307      	str	r3, [sp, #28]
10004510:	464b      	mov	r3, r9
10004512:	689b      	ldr	r3, [r3, #8]
10004514:	4698      	mov	r8, r3
10004516:	464b      	mov	r3, r9
10004518:	68db      	ldr	r3, [r3, #12]
1000451a:	4699      	mov	r9, r3
1000451c:	68e3      	ldr	r3, [r4, #12]
1000451e:	19db      	adds	r3, r3, r7
10004520:	3b01      	subs	r3, #1
10004522:	781b      	ldrb	r3, [r3, #0]
10004524:	9308      	str	r3, [sp, #32]
10004526:	021b      	lsls	r3, r3, #8
10004528:	4303      	orrs	r3, r0
1000452a:	6123      	str	r3, [r4, #16]
1000452c:	2000      	movs	r0, #0
1000452e:	e78e      	b.n	1000444e <alarm_pool_alarm_callback+0x7e>
10004530:	6923      	ldr	r3, [r4, #16]
10004532:	2b00      	cmp	r3, #0
10004534:	d0c0      	beq.n	100044b8 <alarm_pool_alarm_callback+0xe8>
10004536:	9a06      	ldr	r2, [sp, #24]
10004538:	9b07      	ldr	r3, [sp, #28]
1000453a:	2180      	movs	r1, #128	@ 0x80
1000453c:	1b52      	subs	r2, r2, r5
1000453e:	41b3      	sbcs	r3, r6
10004540:	0609      	lsls	r1, r1, #24
10004542:	428b      	cmp	r3, r1
10004544:	d302      	bcc.n	1000454c <alarm_pool_alarm_callback+0x17c>
10004546:	2201      	movs	r2, #1
10004548:	4b10      	ldr	r3, [pc, #64]	@ (1000458c <alarm_pool_alarm_callback+0x1bc>)
1000454a:	4252      	negs	r2, r2
1000454c:	2100      	movs	r1, #0
1000454e:	9104      	str	r1, [sp, #16]
10004550:	3101      	adds	r1, #1
10004552:	9103      	str	r1, [sp, #12]
10004554:	4649      	mov	r1, r9
10004556:	9101      	str	r1, [sp, #4]
10004558:	4641      	mov	r1, r8
1000455a:	0020      	movs	r0, r4
1000455c:	9702      	str	r7, [sp, #8]
1000455e:	9100      	str	r1, [sp, #0]
10004560:	f7ff feba 	bl	100042d8 <add_alarm_under_lock.isra.0>
10004564:	e7bc      	b.n	100044e0 <alarm_pool_alarm_callback+0x110>
10004566:	f000 fa5b 	bl	10004a20 <time_us_64>
1000456a:	002a      	movs	r2, r5
1000456c:	0033      	movs	r3, r6
1000456e:	1812      	adds	r2, r2, r0
10004570:	414b      	adcs	r3, r1
10004572:	2180      	movs	r1, #128	@ 0x80
10004574:	0609      	lsls	r1, r1, #24
10004576:	428b      	cmp	r3, r1
10004578:	d3e8      	bcc.n	1000454c <alarm_pool_alarm_callback+0x17c>
1000457a:	2201      	movs	r2, #1
1000457c:	4b03      	ldr	r3, [pc, #12]	@ (1000458c <alarm_pool_alarm_callback+0x1bc>)
1000457e:	4252      	negs	r2, r2
10004580:	e7e4      	b.n	1000454c <alarm_pool_alarm_callback+0x17c>
10004582:	46c0      	nop			@ (mov r8, r8)
10004584:	2003f284 	.word	0x2003f284
10004588:	0fffffff 	.word	0x0fffffff
1000458c:	7fffffff 	.word	0x7fffffff

10004590 <alarm_pool_init_default>:
10004590:	b510      	push	{r4, lr}
10004592:	4c14      	ldr	r4, [pc, #80]	@ (100045e4 <alarm_pool_init_default+0x54>)
10004594:	6863      	ldr	r3, [r4, #4]
10004596:	2b00      	cmp	r3, #0
10004598:	d004      	beq.n	100045a4 <alarm_pool_init_default+0x14>
1000459a:	210a      	movs	r1, #10
1000459c:	4812      	ldr	r0, [pc, #72]	@ (100045e8 <alarm_pool_init_default+0x58>)
1000459e:	f7ff fe2d 	bl	100041fc <lock_init>
100045a2:	bd10      	pop	{r4, pc}
100045a4:	0023      	movs	r3, r4
100045a6:	4a11      	ldr	r2, [pc, #68]	@ (100045ec <alarm_pool_init_default+0x5c>)
100045a8:	2110      	movs	r1, #16
100045aa:	6820      	ldr	r0, [r4, #0]
100045ac:	f000 fb7e 	bl	10004cac <ph_post_alloc_init>
100045b0:	2003      	movs	r0, #3
100045b2:	f000 fa29 	bl	10004a08 <hardware_alarm_claim>
100045b6:	2003      	movs	r0, #3
100045b8:	f000 fb2e 	bl	10004c18 <hardware_alarm_cancel>
100045bc:	2003      	movs	r0, #3
100045be:	490c      	ldr	r1, [pc, #48]	@ (100045f0 <alarm_pool_init_default+0x60>)
100045c0:	f000 fa7c 	bl	10004abc <hardware_alarm_set_callback>
100045c4:	f7ff fb3a 	bl	10003c3c <next_striped_spin_lock_num>
100045c8:	4b0a      	ldr	r3, [pc, #40]	@ (100045f4 <alarm_pool_init_default+0x64>)
100045ca:	469c      	mov	ip, r3
100045cc:	2303      	movs	r3, #3
100045ce:	7523      	strb	r3, [r4, #20]
100045d0:	23d0      	movs	r3, #208	@ 0xd0
100045d2:	061b      	lsls	r3, r3, #24
100045d4:	681b      	ldr	r3, [r3, #0]
100045d6:	4460      	add	r0, ip
100045d8:	7563      	strb	r3, [r4, #21]
100045da:	4b07      	ldr	r3, [pc, #28]	@ (100045f8 <alarm_pool_init_default+0x68>)
100045dc:	0080      	lsls	r0, r0, #2
100045de:	6060      	str	r0, [r4, #4]
100045e0:	60dc      	str	r4, [r3, #12]
100045e2:	e7da      	b.n	1000459a <alarm_pool_init_default+0xa>
100045e4:	20001044 	.word	0x20001044
100045e8:	2003f3a0 	.word	0x2003f3a0
100045ec:	10004275 	.word	0x10004275
100045f0:	100043d1 	.word	0x100043d1
100045f4:	34000040 	.word	0x34000040
100045f8:	2003f284 	.word	0x2003f284

100045fc <alarm_pool_get_default>:
100045fc:	4800      	ldr	r0, [pc, #0]	@ (10004600 <alarm_pool_get_default+0x4>)
100045fe:	4770      	bx	lr
10004600:	20001044 	.word	0x20001044

10004604 <alarm_pool_add_alarm_at>:
10004604:	b5f0      	push	{r4, r5, r6, r7, lr}
10004606:	4657      	mov	r7, sl
10004608:	464e      	mov	r6, r9
1000460a:	4645      	mov	r5, r8
1000460c:	46de      	mov	lr, fp
1000460e:	b5e0      	push	{r5, r6, r7, lr}
10004610:	b085      	sub	sp, #20
10004612:	9301      	str	r3, [sp, #4]
10004614:	ab10      	add	r3, sp, #64	@ 0x40
10004616:	781b      	ldrb	r3, [r3, #0]
10004618:	0006      	movs	r6, r0
1000461a:	9303      	str	r3, [sp, #12]
1000461c:	2300      	movs	r3, #0
1000461e:	469a      	mov	sl, r3
10004620:	4698      	mov	r8, r3
10004622:	9200      	str	r2, [sp, #0]
10004624:	6872      	ldr	r2, [r6, #4]
10004626:	f3ef 8b10 	mrs	fp, PRIMASK
1000462a:	b672      	cpsid	i
1000462c:	6813      	ldr	r3, [r2, #0]
1000462e:	2b00      	cmp	r3, #0
10004630:	d0fc      	beq.n	1000462c <alarm_pool_add_alarm_at+0x28>
10004632:	f3bf 8f5f 	dmb	sy
10004636:	6835      	ldr	r5, [r6, #0]
10004638:	7bac      	ldrb	r4, [r5, #14]
1000463a:	2c00      	cmp	r4, #0
1000463c:	d100      	bne.n	10004640 <alarm_pool_add_alarm_at+0x3c>
1000463e:	e06e      	b.n	1000471e <alarm_pool_add_alarm_at+0x11a>
10004640:	0067      	lsls	r7, r4, #1
10004642:	682b      	ldr	r3, [r5, #0]
10004644:	193f      	adds	r7, r7, r4
10004646:	3f03      	subs	r7, #3
10004648:	19db      	adds	r3, r3, r7
1000464a:	785a      	ldrb	r2, [r3, #1]
1000464c:	73aa      	strb	r2, [r5, #14]
1000464e:	2a00      	cmp	r2, #0
10004650:	d100      	bne.n	10004654 <alarm_pool_add_alarm_at+0x50>
10004652:	73ea      	strb	r2, [r5, #15]
10004654:	4a48      	ldr	r2, [pc, #288]	@ (10004778 <alarm_pool_add_alarm_at+0x174>)
10004656:	18a1      	adds	r1, r4, r2
10004658:	68b2      	ldr	r2, [r6, #8]
1000465a:	0109      	lsls	r1, r1, #4
1000465c:	1852      	adds	r2, r2, r1
1000465e:	9800      	ldr	r0, [sp, #0]
10004660:	9901      	ldr	r1, [sp, #4]
10004662:	6010      	str	r0, [r2, #0]
10004664:	6051      	str	r1, [r2, #4]
10004666:	990e      	ldr	r1, [sp, #56]	@ 0x38
10004668:	6091      	str	r1, [r2, #8]
1000466a:	990f      	ldr	r1, [sp, #60]	@ 0x3c
1000466c:	60d1      	str	r1, [r2, #12]
1000466e:	4642      	mov	r2, r8
10004670:	709a      	strb	r2, [r3, #2]
10004672:	705a      	strb	r2, [r3, #1]
10004674:	701a      	strb	r2, [r3, #0]
10004676:	7b6b      	ldrb	r3, [r5, #13]
10004678:	4699      	mov	r9, r3
1000467a:	2b00      	cmp	r3, #0
1000467c:	d100      	bne.n	10004680 <alarm_pool_add_alarm_at+0x7c>
1000467e:	e06b      	b.n	10004758 <alarm_pool_add_alarm_at+0x154>
10004680:	0022      	movs	r2, r4
10004682:	686b      	ldr	r3, [r5, #4]
10004684:	4649      	mov	r1, r9
10004686:	68a8      	ldr	r0, [r5, #8]
10004688:	4798      	blx	r3
1000468a:	464b      	mov	r3, r9
1000468c:	005b      	lsls	r3, r3, #1
1000468e:	444b      	add	r3, r9
10004690:	682a      	ldr	r2, [r5, #0]
10004692:	3b03      	subs	r3, #3
10004694:	2800      	cmp	r0, #0
10004696:	d056      	beq.n	10004746 <alarm_pool_add_alarm_at+0x142>
10004698:	4648      	mov	r0, r9
1000469a:	19d7      	adds	r7, r2, r7
1000469c:	70b8      	strb	r0, [r7, #2]
1000469e:	18d1      	adds	r1, r2, r3
100046a0:	5cd3      	ldrb	r3, [r2, r3]
100046a2:	2b00      	cmp	r3, #0
100046a4:	d000      	beq.n	100046a8 <alarm_pool_add_alarm_at+0xa4>
100046a6:	707b      	strb	r3, [r7, #1]
100046a8:	464b      	mov	r3, r9
100046aa:	700c      	strb	r4, [r1, #0]
100046ac:	736b      	strb	r3, [r5, #13]
100046ae:	454c      	cmp	r4, r9
100046b0:	d053      	beq.n	1000475a <alarm_pool_add_alarm_at+0x156>
100046b2:	68f3      	ldr	r3, [r6, #12]
100046b4:	191b      	adds	r3, r3, r4
100046b6:	3b01      	subs	r3, #1
100046b8:	7818      	ldrb	r0, [r3, #0]
100046ba:	6873      	ldr	r3, [r6, #4]
100046bc:	f3bf 8f5f 	dmb	sy
100046c0:	4642      	mov	r2, r8
100046c2:	601a      	str	r2, [r3, #0]
100046c4:	f38b 8810 	msr	PRIMASK, fp
100046c8:	4653      	mov	r3, sl
100046ca:	2b00      	cmp	r3, #0
100046cc:	d108      	bne.n	100046e0 <alarm_pool_add_alarm_at+0xdc>
100046ce:	0200      	lsls	r0, r0, #8
100046d0:	4320      	orrs	r0, r4
100046d2:	b005      	add	sp, #20
100046d4:	bcf0      	pop	{r4, r5, r6, r7}
100046d6:	46bb      	mov	fp, r7
100046d8:	46b2      	mov	sl, r6
100046da:	46a9      	mov	r9, r5
100046dc:	46a0      	mov	r8, r4
100046de:	bdf0      	pop	{r4, r5, r6, r7, pc}
100046e0:	9b03      	ldr	r3, [sp, #12]
100046e2:	2b00      	cmp	r3, #0
100046e4:	d046      	beq.n	10004774 <alarm_pool_add_alarm_at+0x170>
100046e6:	9b0e      	ldr	r3, [sp, #56]	@ 0x38
100046e8:	2000      	movs	r0, #0
100046ea:	990f      	ldr	r1, [sp, #60]	@ 0x3c
100046ec:	4798      	blx	r3
100046ee:	0003      	movs	r3, r0
100046f0:	430b      	orrs	r3, r1
100046f2:	d03f      	beq.n	10004774 <alarm_pool_add_alarm_at+0x170>
100046f4:	0004      	movs	r4, r0
100046f6:	1e0d      	subs	r5, r1, #0
100046f8:	da1a      	bge.n	10004730 <alarm_pool_add_alarm_at+0x12c>
100046fa:	9a00      	ldr	r2, [sp, #0]
100046fc:	9b01      	ldr	r3, [sp, #4]
100046fe:	1b12      	subs	r2, r2, r4
10004700:	41ab      	sbcs	r3, r5
10004702:	9200      	str	r2, [sp, #0]
10004704:	9301      	str	r3, [sp, #4]
10004706:	2280      	movs	r2, #128	@ 0x80
10004708:	0612      	lsls	r2, r2, #24
1000470a:	4293      	cmp	r3, r2
1000470c:	d304      	bcc.n	10004718 <alarm_pool_add_alarm_at+0x114>
1000470e:	2301      	movs	r3, #1
10004710:	4c1a      	ldr	r4, [pc, #104]	@ (1000477c <alarm_pool_add_alarm_at+0x178>)
10004712:	425b      	negs	r3, r3
10004714:	9300      	str	r3, [sp, #0]
10004716:	9401      	str	r4, [sp, #4]
10004718:	9b03      	ldr	r3, [sp, #12]
1000471a:	469a      	mov	sl, r3
1000471c:	e782      	b.n	10004624 <alarm_pool_add_alarm_at+0x20>
1000471e:	6873      	ldr	r3, [r6, #4]
10004720:	f3bf 8f5f 	dmb	sy
10004724:	601c      	str	r4, [r3, #0]
10004726:	f38b 8810 	msr	PRIMASK, fp
1000472a:	2001      	movs	r0, #1
1000472c:	4240      	negs	r0, r0
1000472e:	e7d0      	b.n	100046d2 <alarm_pool_add_alarm_at+0xce>
10004730:	f000 f976 	bl	10004a20 <time_us_64>
10004734:	2280      	movs	r2, #128	@ 0x80
10004736:	1900      	adds	r0, r0, r4
10004738:	4169      	adcs	r1, r5
1000473a:	0612      	lsls	r2, r2, #24
1000473c:	9000      	str	r0, [sp, #0]
1000473e:	9101      	str	r1, [sp, #4]
10004740:	4291      	cmp	r1, r2
10004742:	d3e9      	bcc.n	10004718 <alarm_pool_add_alarm_at+0x114>
10004744:	e7e3      	b.n	1000470e <alarm_pool_add_alarm_at+0x10a>
10004746:	18d3      	adds	r3, r2, r3
10004748:	709c      	strb	r4, [r3, #2]
1000474a:	19d1      	adds	r1, r2, r7
1000474c:	5dd2      	ldrb	r2, [r2, r7]
1000474e:	2a00      	cmp	r2, #0
10004750:	d000      	beq.n	10004754 <alarm_pool_add_alarm_at+0x150>
10004752:	705a      	strb	r2, [r3, #1]
10004754:	464b      	mov	r3, r9
10004756:	700b      	strb	r3, [r1, #0]
10004758:	736c      	strb	r4, [r5, #13]
1000475a:	7d30      	ldrb	r0, [r6, #20]
1000475c:	9a00      	ldr	r2, [sp, #0]
1000475e:	9b01      	ldr	r3, [sp, #4]
10004760:	f000 f9f2 	bl	10004b48 <hardware_alarm_set_target>
10004764:	4682      	mov	sl, r0
10004766:	2800      	cmp	r0, #0
10004768:	d0a3      	beq.n	100046b2 <alarm_pool_add_alarm_at+0xae>
1000476a:	0021      	movs	r1, r4
1000476c:	6830      	ldr	r0, [r6, #0]
1000476e:	f000 fc03 	bl	10004f78 <ph_remove_and_free_node>
10004772:	e79e      	b.n	100046b2 <alarm_pool_add_alarm_at+0xae>
10004774:	2000      	movs	r0, #0
10004776:	e7ac      	b.n	100046d2 <alarm_pool_add_alarm_at+0xce>
10004778:	0fffffff 	.word	0x0fffffff
1000477c:	7fffffff 	.word	0x7fffffff

10004780 <alarm_pool_core_num>:
10004780:	7d40      	ldrb	r0, [r0, #21]
10004782:	4770      	bx	lr

10004784 <sleep_until>:
10004784:	b5f0      	push	{r4, r5, r6, r7, lr}
10004786:	0004      	movs	r4, r0
10004788:	000d      	movs	r5, r1
1000478a:	2606      	movs	r6, #6
1000478c:	4276      	negs	r6, r6
1000478e:	17f7      	asrs	r7, r6, #31
10004790:	46c6      	mov	lr, r8
10004792:	1936      	adds	r6, r6, r4
10004794:	416f      	adcs	r7, r5
10004796:	b500      	push	{lr}
10004798:	b084      	sub	sp, #16
1000479a:	428f      	cmp	r7, r1
1000479c:	d814      	bhi.n	100047c8 <sleep_until+0x44>
1000479e:	d011      	beq.n	100047c4 <sleep_until+0x40>
100047a0:	f000 f93e 	bl	10004a20 <time_us_64>
100047a4:	0032      	movs	r2, r6
100047a6:	003b      	movs	r3, r7
100047a8:	1a12      	subs	r2, r2, r0
100047aa:	418b      	sbcs	r3, r1
100047ac:	2b00      	cmp	r3, #0
100047ae:	dc15      	bgt.n	100047dc <sleep_until+0x58>
100047b0:	2b00      	cmp	r3, #0
100047b2:	d03e      	beq.n	10004832 <sleep_until+0xae>
100047b4:	0020      	movs	r0, r4
100047b6:	0029      	movs	r1, r5
100047b8:	f000 f970 	bl	10004a9c <busy_wait_until>
100047bc:	b004      	add	sp, #16
100047be:	bc80      	pop	{r7}
100047c0:	46b8      	mov	r8, r7
100047c2:	bdf0      	pop	{r4, r5, r6, r7, pc}
100047c4:	4286      	cmp	r6, r0
100047c6:	d9eb      	bls.n	100047a0 <sleep_until+0x1c>
100047c8:	2600      	movs	r6, #0
100047ca:	2700      	movs	r7, #0
100047cc:	f000 f928 	bl	10004a20 <time_us_64>
100047d0:	0032      	movs	r2, r6
100047d2:	003b      	movs	r3, r7
100047d4:	1a12      	subs	r2, r2, r0
100047d6:	418b      	sbcs	r3, r1
100047d8:	2b00      	cmp	r3, #0
100047da:	dde9      	ble.n	100047b0 <sleep_until+0x2c>
100047dc:	2300      	movs	r3, #0
100047de:	9302      	str	r3, [sp, #8]
100047e0:	9301      	str	r3, [sp, #4]
100047e2:	4b15      	ldr	r3, [pc, #84]	@ (10004838 <sleep_until+0xb4>)
100047e4:	0032      	movs	r2, r6
100047e6:	9300      	str	r3, [sp, #0]
100047e8:	4814      	ldr	r0, [pc, #80]	@ (1000483c <sleep_until+0xb8>)
100047ea:	003b      	movs	r3, r7
100047ec:	f7ff ff0a 	bl	10004604 <alarm_pool_add_alarm_at>
100047f0:	2800      	cmp	r0, #0
100047f2:	dbdf      	blt.n	100047b4 <sleep_until+0x30>
100047f4:	2300      	movs	r3, #0
100047f6:	4698      	mov	r8, r3
100047f8:	46bc      	mov	ip, r7
100047fa:	4a11      	ldr	r2, [pc, #68]	@ (10004840 <sleep_until+0xbc>)
100047fc:	4f11      	ldr	r7, [pc, #68]	@ (10004844 <sleep_until+0xc0>)
100047fe:	6a7b      	ldr	r3, [r7, #36]	@ 0x24
10004800:	459c      	cmp	ip, r3
10004802:	d804      	bhi.n	1000480e <sleep_until+0x8a>
10004804:	6ab9      	ldr	r1, [r7, #40]	@ 0x28
10004806:	42b1      	cmp	r1, r6
10004808:	d2d4      	bcs.n	100047b4 <sleep_until+0x30>
1000480a:	459c      	cmp	ip, r3
1000480c:	d1d2      	bne.n	100047b4 <sleep_until+0x30>
1000480e:	6811      	ldr	r1, [r2, #0]
10004810:	f3ef 8010 	mrs	r0, PRIMASK
10004814:	b672      	cpsid	i
10004816:	680b      	ldr	r3, [r1, #0]
10004818:	2b00      	cmp	r3, #0
1000481a:	d0fc      	beq.n	10004816 <sleep_until+0x92>
1000481c:	f3bf 8f5f 	dmb	sy
10004820:	6813      	ldr	r3, [r2, #0]
10004822:	f3bf 8f5f 	dmb	sy
10004826:	4641      	mov	r1, r8
10004828:	6019      	str	r1, [r3, #0]
1000482a:	f380 8810 	msr	PRIMASK, r0
1000482e:	bf20      	wfe
10004830:	e7e5      	b.n	100047fe <sleep_until+0x7a>
10004832:	2a00      	cmp	r2, #0
10004834:	d0be      	beq.n	100047b4 <sleep_until+0x30>
10004836:	e7d1      	b.n	100047dc <sleep_until+0x58>
10004838:	100042a9 	.word	0x100042a9
1000483c:	20001044 	.word	0x20001044
10004840:	2003f3a0 	.word	0x2003f3a0
10004844:	40054000 	.word	0x40054000

10004848 <sleep_ms>:
10004848:	b570      	push	{r4, r5, r6, lr}
1000484a:	0006      	movs	r6, r0
1000484c:	f000 f8e8 	bl	10004a20 <time_us_64>
10004850:	22fa      	movs	r2, #250	@ 0xfa
10004852:	0004      	movs	r4, r0
10004854:	000d      	movs	r5, r1
10004856:	2300      	movs	r3, #0
10004858:	0030      	movs	r0, r6
1000485a:	2100      	movs	r1, #0
1000485c:	0092      	lsls	r2, r2, #2
1000485e:	f003 fa5d 	bl	10007d1c <__wrap___aeabi_lmul>
10004862:	2380      	movs	r3, #128	@ 0x80
10004864:	1900      	adds	r0, r0, r4
10004866:	4169      	adcs	r1, r5
10004868:	061b      	lsls	r3, r3, #24
1000486a:	4299      	cmp	r1, r3
1000486c:	d302      	bcc.n	10004874 <sleep_ms+0x2c>
1000486e:	2001      	movs	r0, #1
10004870:	4902      	ldr	r1, [pc, #8]	@ (1000487c <sleep_ms+0x34>)
10004872:	4240      	negs	r0, r0
10004874:	f7ff ff86 	bl	10004784 <sleep_until>
10004878:	bd70      	pop	{r4, r5, r6, pc}
1000487a:	46c0      	nop			@ (mov r8, r8)
1000487c:	7fffffff 	.word	0x7fffffff

10004880 <best_effort_wfe_or_timeout>:
10004880:	b5f0      	push	{r4, r5, r6, r7, lr}
10004882:	f3ef 8305 	mrs	r3, IPSR
10004886:	46ce      	mov	lr, r9
10004888:	4647      	mov	r7, r8
1000488a:	b580      	push	{r7, lr}
1000488c:	0005      	movs	r5, r0
1000488e:	000c      	movs	r4, r1
10004890:	b085      	sub	sp, #20
10004892:	2b00      	cmp	r3, #0
10004894:	d012      	beq.n	100048bc <best_effort_wfe_or_timeout+0x3c>
10004896:	4a2a      	ldr	r2, [pc, #168]	@ (10004940 <best_effort_wfe_or_timeout+0xc0>)
10004898:	2000      	movs	r0, #0
1000489a:	6a53      	ldr	r3, [r2, #36]	@ 0x24
1000489c:	42a3      	cmp	r3, r4
1000489e:	d303      	bcc.n	100048a8 <best_effort_wfe_or_timeout+0x28>
100048a0:	6a92      	ldr	r2, [r2, #40]	@ 0x28
100048a2:	3001      	adds	r0, #1
100048a4:	42aa      	cmp	r2, r5
100048a6:	d304      	bcc.n	100048b2 <best_effort_wfe_or_timeout+0x32>
100048a8:	b005      	add	sp, #20
100048aa:	bcc0      	pop	{r6, r7}
100048ac:	46b9      	mov	r9, r7
100048ae:	46b0      	mov	r8, r6
100048b0:	bdf0      	pop	{r4, r5, r6, r7, pc}
100048b2:	1b1b      	subs	r3, r3, r4
100048b4:	1e5a      	subs	r2, r3, #1
100048b6:	4193      	sbcs	r3, r2
100048b8:	b2d8      	uxtb	r0, r3
100048ba:	e7f5      	b.n	100048a8 <best_effort_wfe_or_timeout+0x28>
100048bc:	4e21      	ldr	r6, [pc, #132]	@ (10004944 <best_effort_wfe_or_timeout+0xc4>)
100048be:	9302      	str	r3, [sp, #8]
100048c0:	9301      	str	r3, [sp, #4]
100048c2:	4b21      	ldr	r3, [pc, #132]	@ (10004948 <best_effort_wfe_or_timeout+0xc8>)
100048c4:	0002      	movs	r2, r0
100048c6:	9300      	str	r3, [sp, #0]
100048c8:	0030      	movs	r0, r6
100048ca:	000b      	movs	r3, r1
100048cc:	f7ff fe9a 	bl	10004604 <alarm_pool_add_alarm_at>
100048d0:	1e03      	subs	r3, r0, #0
100048d2:	dde0      	ble.n	10004896 <best_effort_wfe_or_timeout+0x16>
100048d4:	bf20      	wfe
100048d6:	6871      	ldr	r1, [r6, #4]
100048d8:	f3ef 8710 	mrs	r7, PRIMASK
100048dc:	b672      	cpsid	i
100048de:	680a      	ldr	r2, [r1, #0]
100048e0:	2a00      	cmp	r2, #0
100048e2:	d0fc      	beq.n	100048de <best_effort_wfe_or_timeout+0x5e>
100048e4:	f3bf 8f5f 	dmb	sy
100048e8:	b2da      	uxtb	r2, r3
100048ea:	4694      	mov	ip, r2
100048ec:	22ff      	movs	r2, #255	@ 0xff
100048ee:	6830      	ldr	r0, [r6, #0]
100048f0:	401a      	ands	r2, r3
100048f2:	7b41      	ldrb	r1, [r0, #13]
100048f4:	4561      	cmp	r1, ip
100048f6:	d00f      	beq.n	10004918 <best_effort_wfe_or_timeout+0x98>
100048f8:	6801      	ldr	r1, [r0, #0]
100048fa:	4689      	mov	r9, r1
100048fc:	0051      	lsls	r1, r2, #1
100048fe:	4688      	mov	r8, r1
10004900:	4649      	mov	r1, r9
10004902:	4490      	add	r8, r2
10004904:	4441      	add	r1, r8
10004906:	3903      	subs	r1, #3
10004908:	7889      	ldrb	r1, [r1, #2]
1000490a:	2900      	cmp	r1, #0
1000490c:	d104      	bne.n	10004918 <best_effort_wfe_or_timeout+0x98>
1000490e:	6932      	ldr	r2, [r6, #16]
10004910:	4293      	cmp	r3, r2
10004912:	d109      	bne.n	10004928 <best_effort_wfe_or_timeout+0xa8>
10004914:	6131      	str	r1, [r6, #16]
10004916:	e007      	b.n	10004928 <best_effort_wfe_or_timeout+0xa8>
10004918:	68f1      	ldr	r1, [r6, #12]
1000491a:	0a1b      	lsrs	r3, r3, #8
1000491c:	188a      	adds	r2, r1, r2
1000491e:	3a01      	subs	r2, #1
10004920:	7812      	ldrb	r2, [r2, #0]
10004922:	b2db      	uxtb	r3, r3
10004924:	429a      	cmp	r2, r3
10004926:	d007      	beq.n	10004938 <best_effort_wfe_or_timeout+0xb8>
10004928:	6873      	ldr	r3, [r6, #4]
1000492a:	f3bf 8f5f 	dmb	sy
1000492e:	2200      	movs	r2, #0
10004930:	601a      	str	r2, [r3, #0]
10004932:	f387 8810 	msr	PRIMASK, r7
10004936:	e7ae      	b.n	10004896 <best_effort_wfe_or_timeout+0x16>
10004938:	4661      	mov	r1, ip
1000493a:	f000 fb1d 	bl	10004f78 <ph_remove_and_free_node>
1000493e:	e7f3      	b.n	10004928 <best_effort_wfe_or_timeout+0xa8>
10004940:	40054000 	.word	0x40054000
10004944:	20001044 	.word	0x20001044
10004948:	100042a9 	.word	0x100042a9

1000494c <hardware_alarm_irq_handler>:
1000494c:	b5f0      	push	{r4, r5, r6, r7, lr}
1000494e:	f3ef 8205 	mrs	r2, IPSR
10004952:	46d6      	mov	lr, sl
10004954:	464f      	mov	r7, r9
10004956:	4646      	mov	r6, r8
10004958:	0010      	movs	r0, r2
1000495a:	b5c0      	push	{r6, r7, lr}
1000495c:	3810      	subs	r0, #16
1000495e:	f3ef 8810 	mrs	r8, PRIMASK
10004962:	b672      	cpsid	i
10004964:	4c21      	ldr	r4, [pc, #132]	@ (100049ec <hardware_alarm_irq_handler+0xa0>)
10004966:	6823      	ldr	r3, [r4, #0]
10004968:	2b00      	cmp	r3, #0
1000496a:	d0fc      	beq.n	10004966 <hardware_alarm_irq_handler+0x1a>
1000496c:	f3bf 8f5f 	dmb	sy
10004970:	2301      	movs	r3, #1
10004972:	0019      	movs	r1, r3
10004974:	4081      	lsls	r1, r0
10004976:	4d1e      	ldr	r5, [pc, #120]	@ (100049f0 <hardware_alarm_irq_handler+0xa4>)
10004978:	001f      	movs	r7, r3
1000497a:	6369      	str	r1, [r5, #52]	@ 0x34
1000497c:	46aa      	mov	sl, r5
1000497e:	4d1d      	ldr	r5, [pc, #116]	@ (100049f4 <hardware_alarm_irq_handler+0xa8>)
10004980:	6029      	str	r1, [r5, #0]
10004982:	4d1d      	ldr	r5, [pc, #116]	@ (100049f8 <hardware_alarm_irq_handler+0xac>)
10004984:	782e      	ldrb	r6, [r5, #0]
10004986:	46ac      	mov	ip, r5
10004988:	0035      	movs	r5, r6
1000498a:	40c5      	lsrs	r5, r0
1000498c:	402f      	ands	r7, r5
1000498e:	422b      	tst	r3, r5
10004990:	d015      	beq.n	100049be <hardware_alarm_irq_handler+0x72>
10004992:	4653      	mov	r3, sl
10004994:	6a5f      	ldr	r7, [r3, #36]	@ 0x24
10004996:	4b19      	ldr	r3, [pc, #100]	@ (100049fc <hardware_alarm_irq_handler+0xb0>)
10004998:	0085      	lsls	r5, r0, #2
1000499a:	58eb      	ldr	r3, [r5, r3]
1000499c:	429f      	cmp	r7, r3
1000499e:	d318      	bcc.n	100049d2 <hardware_alarm_irq_handler+0x86>
100049a0:	4662      	mov	r2, ip
100049a2:	4b17      	ldr	r3, [pc, #92]	@ (10004a00 <hardware_alarm_irq_handler+0xb4>)
100049a4:	438e      	bics	r6, r1
100049a6:	58eb      	ldr	r3, [r5, r3]
100049a8:	7016      	strb	r6, [r2, #0]
100049aa:	f3bf 8f5f 	dmb	sy
100049ae:	2200      	movs	r2, #0
100049b0:	6022      	str	r2, [r4, #0]
100049b2:	f388 8810 	msr	PRIMASK, r8
100049b6:	2b00      	cmp	r3, #0
100049b8:	d006      	beq.n	100049c8 <hardware_alarm_irq_handler+0x7c>
100049ba:	4798      	blx	r3
100049bc:	e004      	b.n	100049c8 <hardware_alarm_irq_handler+0x7c>
100049be:	f3bf 8f5f 	dmb	sy
100049c2:	6027      	str	r7, [r4, #0]
100049c4:	f388 8810 	msr	PRIMASK, r8
100049c8:	bce0      	pop	{r5, r6, r7}
100049ca:	46ba      	mov	sl, r7
100049cc:	46b1      	mov	r9, r6
100049ce:	46a8      	mov	r8, r5
100049d0:	bdf0      	pop	{r4, r5, r6, r7, pc}
100049d2:	4b0c      	ldr	r3, [pc, #48]	@ (10004a04 <hardware_alarm_irq_handler+0xb8>)
100049d4:	0092      	lsls	r2, r2, #2
100049d6:	469c      	mov	ip, r3
100049d8:	4462      	add	r2, ip
100049da:	6813      	ldr	r3, [r2, #0]
100049dc:	6013      	str	r3, [r2, #0]
100049de:	f3bf 8f5f 	dmb	sy
100049e2:	2300      	movs	r3, #0
100049e4:	6023      	str	r3, [r4, #0]
100049e6:	f388 8810 	msr	PRIMASK, r8
100049ea:	e7ed      	b.n	100049c8 <hardware_alarm_irq_handler+0x7c>
100049ec:	d0000128 	.word	0xd0000128
100049f0:	40054000 	.word	0x40054000
100049f4:	4005703c 	.word	0x4005703c
100049f8:	2003f3f6 	.word	0x2003f3f6
100049fc:	2003f3b8 	.word	0x2003f3b8
10004a00:	20001ce0 	.word	0x20001ce0
10004a04:	40053fd0 	.word	0x40053fd0

10004a08 <hardware_alarm_claim>:
10004a08:	b510      	push	{r4, lr}
10004a0a:	4b03      	ldr	r3, [pc, #12]	@ (10004a18 <hardware_alarm_claim+0x10>)
10004a0c:	0001      	movs	r1, r0
10004a0e:	0018      	movs	r0, r3
10004a10:	4a02      	ldr	r2, [pc, #8]	@ (10004a1c <hardware_alarm_claim+0x14>)
10004a12:	f7ff f895 	bl	10003b40 <hw_claim_or_assert>
10004a16:	bd10      	pop	{r4, pc}
10004a18:	2003f3f1 	.word	0x2003f3f1
10004a1c:	1000b3a8 	.word	0x1000b3a8

10004a20 <time_us_64>:
10004a20:	4b03      	ldr	r3, [pc, #12]	@ (10004a30 <time_us_64+0x10>)
10004a22:	6a59      	ldr	r1, [r3, #36]	@ 0x24
10004a24:	000a      	movs	r2, r1
10004a26:	6a98      	ldr	r0, [r3, #40]	@ 0x28
10004a28:	6a59      	ldr	r1, [r3, #36]	@ 0x24
10004a2a:	428a      	cmp	r2, r1
10004a2c:	d1fa      	bne.n	10004a24 <time_us_64+0x4>
10004a2e:	4770      	bx	lr
10004a30:	40054000 	.word	0x40054000

10004a34 <busy_wait_us>:
10004a34:	b570      	push	{r4, r5, r6, lr}
10004a36:	0004      	movs	r4, r0
10004a38:	000d      	movs	r5, r1
10004a3a:	4a17      	ldr	r2, [pc, #92]	@ (10004a98 <busy_wait_us+0x64>)
10004a3c:	6a53      	ldr	r3, [r2, #36]	@ 0x24
10004a3e:	0019      	movs	r1, r3
10004a40:	6a96      	ldr	r6, [r2, #40]	@ 0x28
10004a42:	6a53      	ldr	r3, [r2, #36]	@ 0x24
10004a44:	428b      	cmp	r3, r1
10004a46:	d1fa      	bne.n	10004a3e <busy_wait_us+0xa>
10004a48:	0030      	movs	r0, r6
10004a4a:	0019      	movs	r1, r3
10004a4c:	1824      	adds	r4, r4, r0
10004a4e:	414d      	adcs	r5, r1
10004a50:	42ab      	cmp	r3, r5
10004a52:	d816      	bhi.n	10004a82 <busy_wait_us+0x4e>
10004a54:	d013      	beq.n	10004a7e <busy_wait_us+0x4a>
10004a56:	4b10      	ldr	r3, [pc, #64]	@ (10004a98 <busy_wait_us+0x64>)
10004a58:	002a      	movs	r2, r5
10004a5a:	6a5b      	ldr	r3, [r3, #36]	@ 0x24
10004a5c:	429d      	cmp	r5, r3
10004a5e:	d903      	bls.n	10004a68 <busy_wait_us+0x34>
10004a60:	490d      	ldr	r1, [pc, #52]	@ (10004a98 <busy_wait_us+0x64>)
10004a62:	6a4b      	ldr	r3, [r1, #36]	@ 0x24
10004a64:	4293      	cmp	r3, r2
10004a66:	d3fc      	bcc.n	10004a62 <busy_wait_us+0x2e>
10004a68:	4293      	cmp	r3, r2
10004a6a:	d107      	bne.n	10004a7c <busy_wait_us+0x48>
10004a6c:	4a0a      	ldr	r2, [pc, #40]	@ (10004a98 <busy_wait_us+0x64>)
10004a6e:	e002      	b.n	10004a76 <busy_wait_us+0x42>
10004a70:	6a51      	ldr	r1, [r2, #36]	@ 0x24
10004a72:	4299      	cmp	r1, r3
10004a74:	d102      	bne.n	10004a7c <busy_wait_us+0x48>
10004a76:	6a91      	ldr	r1, [r2, #40]	@ 0x28
10004a78:	42a1      	cmp	r1, r4
10004a7a:	d3f9      	bcc.n	10004a70 <busy_wait_us+0x3c>
10004a7c:	bd70      	pop	{r4, r5, r6, pc}
10004a7e:	42a6      	cmp	r6, r4
10004a80:	d9e9      	bls.n	10004a56 <busy_wait_us+0x22>
10004a82:	4b05      	ldr	r3, [pc, #20]	@ (10004a98 <busy_wait_us+0x64>)
10004a84:	6a5b      	ldr	r3, [r3, #36]	@ 0x24
10004a86:	001c      	movs	r4, r3
10004a88:	1c5a      	adds	r2, r3, #1
10004a8a:	d0ef      	beq.n	10004a6c <busy_wait_us+0x38>
10004a8c:	2201      	movs	r2, #1
10004a8e:	2401      	movs	r4, #1
10004a90:	4264      	negs	r4, r4
10004a92:	17e5      	asrs	r5, r4, #31
10004a94:	4252      	negs	r2, r2
10004a96:	e7e3      	b.n	10004a60 <busy_wait_us+0x2c>
10004a98:	40054000 	.word	0x40054000

10004a9c <busy_wait_until>:
10004a9c:	4a06      	ldr	r2, [pc, #24]	@ (10004ab8 <busy_wait_until+0x1c>)
10004a9e:	6a53      	ldr	r3, [r2, #36]	@ 0x24
10004aa0:	4299      	cmp	r1, r3
10004aa2:	d8fc      	bhi.n	10004a9e <busy_wait_until+0x2>
10004aa4:	d107      	bne.n	10004ab6 <busy_wait_until+0x1a>
10004aa6:	4b04      	ldr	r3, [pc, #16]	@ (10004ab8 <busy_wait_until+0x1c>)
10004aa8:	e002      	b.n	10004ab0 <busy_wait_until+0x14>
10004aaa:	6a5a      	ldr	r2, [r3, #36]	@ 0x24
10004aac:	4291      	cmp	r1, r2
10004aae:	d102      	bne.n	10004ab6 <busy_wait_until+0x1a>
10004ab0:	6a9a      	ldr	r2, [r3, #40]	@ 0x28
10004ab2:	4282      	cmp	r2, r0
10004ab4:	d3f9      	bcc.n	10004aaa <busy_wait_until+0xe>
10004ab6:	4770      	bx	lr
10004ab8:	40054000 	.word	0x40054000

10004abc <hardware_alarm_set_callback>:
10004abc:	b570      	push	{r4, r5, r6, lr}
10004abe:	0004      	movs	r4, r0
10004ac0:	000d      	movs	r5, r1
10004ac2:	f3ef 8610 	mrs	r6, PRIMASK
10004ac6:	b672      	cpsid	i
10004ac8:	4a1a      	ldr	r2, [pc, #104]	@ (10004b34 <hardware_alarm_set_callback+0x78>)
10004aca:	6813      	ldr	r3, [r2, #0]
10004acc:	2b00      	cmp	r3, #0
10004ace:	d0fc      	beq.n	10004aca <hardware_alarm_set_callback+0xe>
10004ad0:	f3bf 8f5f 	dmb	sy
10004ad4:	2d00      	cmp	r5, #0
10004ad6:	d01b      	beq.n	10004b10 <hardware_alarm_set_callback+0x54>
10004ad8:	0020      	movs	r0, r4
10004ada:	f7ff f909 	bl	10003cf0 <irq_get_vtable_handler>
10004ade:	4916      	ldr	r1, [pc, #88]	@ (10004b38 <hardware_alarm_set_callback+0x7c>)
10004ae0:	4281      	cmp	r1, r0
10004ae2:	d00a      	beq.n	10004afa <hardware_alarm_set_callback+0x3e>
10004ae4:	0020      	movs	r0, r4
10004ae6:	f7ff f90b 	bl	10003d00 <irq_set_exclusive_handler>
10004aea:	2101      	movs	r1, #1
10004aec:	0020      	movs	r0, r4
10004aee:	f7ff f8c3 	bl	10003c78 <irq_set_enabled>
10004af2:	2301      	movs	r3, #1
10004af4:	40a3      	lsls	r3, r4
10004af6:	4a11      	ldr	r2, [pc, #68]	@ (10004b3c <hardware_alarm_set_callback+0x80>)
10004af8:	6013      	str	r3, [r2, #0]
10004afa:	4b11      	ldr	r3, [pc, #68]	@ (10004b40 <hardware_alarm_set_callback+0x84>)
10004afc:	00a4      	lsls	r4, r4, #2
10004afe:	50e5      	str	r5, [r4, r3]
10004b00:	f3bf 8f5f 	dmb	sy
10004b04:	2200      	movs	r2, #0
10004b06:	4b0b      	ldr	r3, [pc, #44]	@ (10004b34 <hardware_alarm_set_callback+0x78>)
10004b08:	601a      	str	r2, [r3, #0]
10004b0a:	f386 8810 	msr	PRIMASK, r6
10004b0e:	bd70      	pop	{r4, r5, r6, pc}
10004b10:	2101      	movs	r1, #1
10004b12:	40a1      	lsls	r1, r4
10004b14:	4b0a      	ldr	r3, [pc, #40]	@ (10004b40 <hardware_alarm_set_callback+0x84>)
10004b16:	00a2      	lsls	r2, r4, #2
10004b18:	50d5      	str	r5, [r2, r3]
10004b1a:	4b0a      	ldr	r3, [pc, #40]	@ (10004b44 <hardware_alarm_set_callback+0x88>)
10004b1c:	0020      	movs	r0, r4
10004b1e:	781a      	ldrb	r2, [r3, #0]
10004b20:	438a      	bics	r2, r1
10004b22:	4905      	ldr	r1, [pc, #20]	@ (10004b38 <hardware_alarm_set_callback+0x7c>)
10004b24:	701a      	strb	r2, [r3, #0]
10004b26:	f7ff fa05 	bl	10003f34 <irq_remove_handler>
10004b2a:	2100      	movs	r1, #0
10004b2c:	0020      	movs	r0, r4
10004b2e:	f7ff f8a3 	bl	10003c78 <irq_set_enabled>
10004b32:	e7e5      	b.n	10004b00 <hardware_alarm_set_callback+0x44>
10004b34:	d0000128 	.word	0xd0000128
10004b38:	1000494d 	.word	0x1000494d
10004b3c:	40056038 	.word	0x40056038
10004b40:	20001ce0 	.word	0x20001ce0
10004b44:	2003f3f6 	.word	0x2003f3f6

10004b48 <hardware_alarm_set_target>:
10004b48:	b5f0      	push	{r4, r5, r6, r7, lr}
10004b4a:	464f      	mov	r7, r9
10004b4c:	46d6      	mov	lr, sl
10004b4e:	4646      	mov	r6, r8
10004b50:	b5c0      	push	{r6, r7, lr}
10004b52:	0007      	movs	r7, r0
10004b54:	4c2b      	ldr	r4, [pc, #172]	@ (10004c04 <hardware_alarm_set_target+0xbc>)
10004b56:	6a61      	ldr	r1, [r4, #36]	@ 0x24
10004b58:	000d      	movs	r5, r1
10004b5a:	6aa6      	ldr	r6, [r4, #40]	@ 0x28
10004b5c:	6a61      	ldr	r1, [r4, #36]	@ 0x24
10004b5e:	42a9      	cmp	r1, r5
10004b60:	d1fa      	bne.n	10004b58 <hardware_alarm_set_target+0x10>
10004b62:	428b      	cmp	r3, r1
10004b64:	d808      	bhi.n	10004b78 <hardware_alarm_set_target+0x30>
10004b66:	d005      	beq.n	10004b74 <hardware_alarm_set_target+0x2c>
10004b68:	2001      	movs	r0, #1
10004b6a:	bce0      	pop	{r5, r6, r7}
10004b6c:	46ba      	mov	sl, r7
10004b6e:	46b1      	mov	r9, r6
10004b70:	46a8      	mov	r8, r5
10004b72:	bdf0      	pop	{r4, r5, r6, r7, pc}
10004b74:	42b2      	cmp	r2, r6
10004b76:	d9f7      	bls.n	10004b68 <hardware_alarm_set_target+0x20>
10004b78:	f3ef 8a10 	mrs	sl, PRIMASK
10004b7c:	b672      	cpsid	i
10004b7e:	4822      	ldr	r0, [pc, #136]	@ (10004c08 <hardware_alarm_set_target+0xc0>)
10004b80:	6801      	ldr	r1, [r0, #0]
10004b82:	2900      	cmp	r1, #0
10004b84:	d0fc      	beq.n	10004b80 <hardware_alarm_set_target+0x38>
10004b86:	f3bf 8f5f 	dmb	sy
10004b8a:	2501      	movs	r5, #1
10004b8c:	40bd      	lsls	r5, r7
10004b8e:	491f      	ldr	r1, [pc, #124]	@ (10004c0c <hardware_alarm_set_target+0xc4>)
10004b90:	4c1c      	ldr	r4, [pc, #112]	@ (10004c04 <hardware_alarm_set_target+0xbc>)
10004b92:	4688      	mov	r8, r1
10004b94:	7809      	ldrb	r1, [r1, #0]
10004b96:	4689      	mov	r9, r1
10004b98:	4329      	orrs	r1, r5
10004b9a:	b2c9      	uxtb	r1, r1
10004b9c:	468c      	mov	ip, r1
10004b9e:	4641      	mov	r1, r8
10004ba0:	4660      	mov	r0, ip
10004ba2:	7008      	strb	r0, [r1, #0]
10004ba4:	1d39      	adds	r1, r7, #4
10004ba6:	0089      	lsls	r1, r1, #2
10004ba8:	6365      	str	r5, [r4, #52]	@ 0x34
10004baa:	510a      	str	r2, [r1, r4]
10004bac:	4918      	ldr	r1, [pc, #96]	@ (10004c10 <hardware_alarm_set_target+0xc8>)
10004bae:	00b8      	lsls	r0, r7, #2
10004bb0:	5043      	str	r3, [r0, r1]
10004bb2:	6a21      	ldr	r1, [r4, #32]
10004bb4:	2000      	movs	r0, #0
10004bb6:	4229      	tst	r1, r5
10004bb8:	d019      	beq.n	10004bee <hardware_alarm_set_target+0xa6>
10004bba:	6a61      	ldr	r1, [r4, #36]	@ 0x24
10004bbc:	0008      	movs	r0, r1
10004bbe:	6aa6      	ldr	r6, [r4, #40]	@ 0x28
10004bc0:	6a61      	ldr	r1, [r4, #36]	@ 0x24
10004bc2:	4281      	cmp	r1, r0
10004bc4:	d1fa      	bne.n	10004bbc <hardware_alarm_set_target+0x74>
10004bc6:	428b      	cmp	r3, r1
10004bc8:	d819      	bhi.n	10004bfe <hardware_alarm_set_target+0xb6>
10004bca:	d101      	bne.n	10004bd0 <hardware_alarm_set_target+0x88>
10004bcc:	42b2      	cmp	r2, r6
10004bce:	d816      	bhi.n	10004bfe <hardware_alarm_set_target+0xb6>
10004bd0:	45cc      	cmp	ip, r9
10004bd2:	d00b      	beq.n	10004bec <hardware_alarm_set_target+0xa4>
10004bd4:	4b0b      	ldr	r3, [pc, #44]	@ (10004c04 <hardware_alarm_set_target+0xbc>)
10004bd6:	221f      	movs	r2, #31
10004bd8:	621d      	str	r5, [r3, #32]
10004bda:	635d      	str	r5, [r3, #52]	@ 0x34
10004bdc:	2301      	movs	r3, #1
10004bde:	403a      	ands	r2, r7
10004be0:	4093      	lsls	r3, r2
10004be2:	4a0c      	ldr	r2, [pc, #48]	@ (10004c14 <hardware_alarm_set_target+0xcc>)
10004be4:	6013      	str	r3, [r2, #0]
10004be6:	4643      	mov	r3, r8
10004be8:	464a      	mov	r2, r9
10004bea:	701a      	strb	r2, [r3, #0]
10004bec:	2001      	movs	r0, #1
10004bee:	f3bf 8f5f 	dmb	sy
10004bf2:	2200      	movs	r2, #0
10004bf4:	4b04      	ldr	r3, [pc, #16]	@ (10004c08 <hardware_alarm_set_target+0xc0>)
10004bf6:	601a      	str	r2, [r3, #0]
10004bf8:	f38a 8810 	msr	PRIMASK, sl
10004bfc:	e7b5      	b.n	10004b6a <hardware_alarm_set_target+0x22>
10004bfe:	2000      	movs	r0, #0
10004c00:	e7f5      	b.n	10004bee <hardware_alarm_set_target+0xa6>
10004c02:	46c0      	nop			@ (mov r8, r8)
10004c04:	40054000 	.word	0x40054000
10004c08:	d0000128 	.word	0xd0000128
10004c0c:	2003f3f6 	.word	0x2003f3f6
10004c10:	2003f3b8 	.word	0x2003f3b8
10004c14:	e000e280 	.word	0xe000e280

10004c18 <hardware_alarm_cancel>:
10004c18:	f3ef 8c10 	mrs	ip, PRIMASK
10004c1c:	b672      	cpsid	i
10004c1e:	490a      	ldr	r1, [pc, #40]	@ (10004c48 <hardware_alarm_cancel+0x30>)
10004c20:	680b      	ldr	r3, [r1, #0]
10004c22:	2b00      	cmp	r3, #0
10004c24:	d0fc      	beq.n	10004c20 <hardware_alarm_cancel+0x8>
10004c26:	f3bf 8f5f 	dmb	sy
10004c2a:	2301      	movs	r3, #1
10004c2c:	4083      	lsls	r3, r0
10004c2e:	4a07      	ldr	r2, [pc, #28]	@ (10004c4c <hardware_alarm_cancel+0x34>)
10004c30:	4807      	ldr	r0, [pc, #28]	@ (10004c50 <hardware_alarm_cancel+0x38>)
10004c32:	6213      	str	r3, [r2, #32]
10004c34:	7802      	ldrb	r2, [r0, #0]
10004c36:	439a      	bics	r2, r3
10004c38:	7002      	strb	r2, [r0, #0]
10004c3a:	f3bf 8f5f 	dmb	sy
10004c3e:	2300      	movs	r3, #0
10004c40:	600b      	str	r3, [r1, #0]
10004c42:	f38c 8810 	msr	PRIMASK, ip
10004c46:	4770      	bx	lr
10004c48:	d0000128 	.word	0xd0000128
10004c4c:	40054000 	.word	0x40054000
10004c50:	2003f3f6 	.word	0x2003f3f6

10004c54 <ph_merge_nodes>:
10004c54:	b570      	push	{r4, r5, r6, lr}
10004c56:	0006      	movs	r6, r0
10004c58:	000d      	movs	r5, r1
10004c5a:	0014      	movs	r4, r2
10004c5c:	2900      	cmp	r1, #0
10004c5e:	d01d      	beq.n	10004c9c <ph_merge_nodes+0x48>
10004c60:	2a00      	cmp	r2, #0
10004c62:	d012      	beq.n	10004c8a <ph_merge_nodes+0x36>
10004c64:	6873      	ldr	r3, [r6, #4]
10004c66:	6880      	ldr	r0, [r0, #8]
10004c68:	4798      	blx	r3
10004c6a:	0062      	lsls	r2, r4, #1
10004c6c:	006b      	lsls	r3, r5, #1
10004c6e:	1912      	adds	r2, r2, r4
10004c70:	195b      	adds	r3, r3, r5
10004c72:	6831      	ldr	r1, [r6, #0]
10004c74:	3a03      	subs	r2, #3
10004c76:	3b03      	subs	r3, #3
10004c78:	2800      	cmp	r0, #0
10004c7a:	d008      	beq.n	10004c8e <ph_merge_nodes+0x3a>
10004c7c:	188a      	adds	r2, r1, r2
10004c7e:	7095      	strb	r5, [r2, #2]
10004c80:	18c8      	adds	r0, r1, r3
10004c82:	5ccb      	ldrb	r3, [r1, r3]
10004c84:	2b00      	cmp	r3, #0
10004c86:	d10b      	bne.n	10004ca0 <ph_merge_nodes+0x4c>
10004c88:	7004      	strb	r4, [r0, #0]
10004c8a:	0028      	movs	r0, r5
10004c8c:	bd70      	pop	{r4, r5, r6, pc}
10004c8e:	18cb      	adds	r3, r1, r3
10004c90:	709c      	strb	r4, [r3, #2]
10004c92:	1888      	adds	r0, r1, r2
10004c94:	5c8a      	ldrb	r2, [r1, r2]
10004c96:	2a00      	cmp	r2, #0
10004c98:	d105      	bne.n	10004ca6 <ph_merge_nodes+0x52>
10004c9a:	7005      	strb	r5, [r0, #0]
10004c9c:	0020      	movs	r0, r4
10004c9e:	e7f5      	b.n	10004c8c <ph_merge_nodes+0x38>
10004ca0:	7053      	strb	r3, [r2, #1]
10004ca2:	7004      	strb	r4, [r0, #0]
10004ca4:	e7f1      	b.n	10004c8a <ph_merge_nodes+0x36>
10004ca6:	705a      	strb	r2, [r3, #1]
10004ca8:	7005      	strb	r5, [r0, #0]
10004caa:	e7f7      	b.n	10004c9c <ph_merge_nodes+0x48>

10004cac <ph_post_alloc_init>:
10004cac:	b510      	push	{r4, lr}
10004cae:	6083      	str	r3, [r0, #8]
10004cb0:	2300      	movs	r3, #0
10004cb2:	b2cc      	uxtb	r4, r1
10004cb4:	7343      	strb	r3, [r0, #13]
10004cb6:	3301      	adds	r3, #1
10004cb8:	6042      	str	r2, [r0, #4]
10004cba:	7304      	strb	r4, [r0, #12]
10004cbc:	7383      	strb	r3, [r0, #14]
10004cbe:	73c4      	strb	r4, [r0, #15]
10004cc0:	6800      	ldr	r0, [r0, #0]
10004cc2:	1c42      	adds	r2, r0, #1
10004cc4:	2c01      	cmp	r4, #1
10004cc6:	d905      	bls.n	10004cd4 <ph_post_alloc_init+0x28>
10004cc8:	3301      	adds	r3, #1
10004cca:	b2db      	uxtb	r3, r3
10004ccc:	7013      	strb	r3, [r2, #0]
10004cce:	3203      	adds	r2, #3
10004cd0:	429c      	cmp	r4, r3
10004cd2:	d1f9      	bne.n	10004cc8 <ph_post_alloc_init+0x1c>
10004cd4:	23ff      	movs	r3, #255	@ 0xff
10004cd6:	400b      	ands	r3, r1
10004cd8:	005a      	lsls	r2, r3, #1
10004cda:	18d3      	adds	r3, r2, r3
10004cdc:	18c0      	adds	r0, r0, r3
10004cde:	2300      	movs	r3, #0
10004ce0:	3803      	subs	r0, #3
10004ce2:	7043      	strb	r3, [r0, #1]
10004ce4:	bd10      	pop	{r4, pc}
10004ce6:	46c0      	nop			@ (mov r8, r8)

10004ce8 <ph_merge_two_pass>:
10004ce8:	b570      	push	{r4, r5, r6, lr}
10004cea:	0005      	movs	r5, r0
10004cec:	1e0c      	subs	r4, r1, #0
10004cee:	d007      	beq.n	10004d00 <ph_merge_two_pass+0x18>
10004cf0:	0063      	lsls	r3, r4, #1
10004cf2:	6801      	ldr	r1, [r0, #0]
10004cf4:	191b      	adds	r3, r3, r4
10004cf6:	3b03      	subs	r3, #3
10004cf8:	18cb      	adds	r3, r1, r3
10004cfa:	785a      	ldrb	r2, [r3, #1]
10004cfc:	2a00      	cmp	r2, #0
10004cfe:	d101      	bne.n	10004d04 <ph_merge_two_pass+0x1c>
10004d00:	0020      	movs	r0, r4
10004d02:	bd70      	pop	{r4, r5, r6, pc}
10004d04:	0050      	lsls	r0, r2, #1
10004d06:	1880      	adds	r0, r0, r2
10004d08:	3803      	subs	r0, #3
10004d0a:	1809      	adds	r1, r1, r0
10004d0c:	2000      	movs	r0, #0
10004d0e:	784e      	ldrb	r6, [r1, #1]
10004d10:	7048      	strb	r0, [r1, #1]
10004d12:	0021      	movs	r1, r4
10004d14:	7058      	strb	r0, [r3, #1]
10004d16:	0028      	movs	r0, r5
10004d18:	f7ff ff9c 	bl	10004c54 <ph_merge_nodes>
10004d1c:	0031      	movs	r1, r6
10004d1e:	0004      	movs	r4, r0
10004d20:	0028      	movs	r0, r5
10004d22:	f7ff ffe1 	bl	10004ce8 <ph_merge_two_pass>
10004d26:	0006      	movs	r6, r0
10004d28:	2c00      	cmp	r4, #0
10004d2a:	d020      	beq.n	10004d6e <ph_merge_two_pass+0x86>
10004d2c:	2800      	cmp	r0, #0
10004d2e:	d0e7      	beq.n	10004d00 <ph_merge_two_pass+0x18>
10004d30:	0032      	movs	r2, r6
10004d32:	0021      	movs	r1, r4
10004d34:	686b      	ldr	r3, [r5, #4]
10004d36:	68a8      	ldr	r0, [r5, #8]
10004d38:	4798      	blx	r3
10004d3a:	0072      	lsls	r2, r6, #1
10004d3c:	0063      	lsls	r3, r4, #1
10004d3e:	1992      	adds	r2, r2, r6
10004d40:	191b      	adds	r3, r3, r4
10004d42:	6829      	ldr	r1, [r5, #0]
10004d44:	3a03      	subs	r2, #3
10004d46:	3b03      	subs	r3, #3
10004d48:	2800      	cmp	r0, #0
10004d4a:	d008      	beq.n	10004d5e <ph_merge_two_pass+0x76>
10004d4c:	188a      	adds	r2, r1, r2
10004d4e:	7094      	strb	r4, [r2, #2]
10004d50:	18c8      	adds	r0, r1, r3
10004d52:	5ccb      	ldrb	r3, [r1, r3]
10004d54:	2b00      	cmp	r3, #0
10004d56:	d000      	beq.n	10004d5a <ph_merge_two_pass+0x72>
10004d58:	7053      	strb	r3, [r2, #1]
10004d5a:	7006      	strb	r6, [r0, #0]
10004d5c:	e7d0      	b.n	10004d00 <ph_merge_two_pass+0x18>
10004d5e:	18cb      	adds	r3, r1, r3
10004d60:	709e      	strb	r6, [r3, #2]
10004d62:	1888      	adds	r0, r1, r2
10004d64:	5c8a      	ldrb	r2, [r1, r2]
10004d66:	2a00      	cmp	r2, #0
10004d68:	d000      	beq.n	10004d6c <ph_merge_two_pass+0x84>
10004d6a:	705a      	strb	r2, [r3, #1]
10004d6c:	7004      	strb	r4, [r0, #0]
10004d6e:	0034      	movs	r4, r6
10004d70:	e7c6      	b.n	10004d00 <ph_merge_two_pass+0x18>
10004d72:	46c0      	nop			@ (mov r8, r8)

10004d74 <ph_remove_any_head>:
10004d74:	b5f0      	push	{r4, r5, r6, r7, lr}
10004d76:	4657      	mov	r7, sl
10004d78:	4645      	mov	r5, r8
10004d7a:	46de      	mov	lr, fp
10004d7c:	464e      	mov	r6, r9
10004d7e:	b5e0      	push	{r5, r6, r7, lr}
10004d80:	000d      	movs	r5, r1
10004d82:	006f      	lsls	r7, r5, #1
10004d84:	6801      	ldr	r1, [r0, #0]
10004d86:	197f      	adds	r7, r7, r5
10004d88:	3f03      	subs	r7, #3
10004d8a:	0004      	movs	r4, r0
10004d8c:	5dc8      	ldrb	r0, [r1, r7]
10004d8e:	b083      	sub	sp, #12
10004d90:	9201      	str	r2, [sp, #4]
10004d92:	19ca      	adds	r2, r1, r7
10004d94:	2800      	cmp	r0, #0
10004d96:	d050      	beq.n	10004e3a <ph_remove_any_head+0xc6>
10004d98:	0043      	lsls	r3, r0, #1
10004d9a:	181b      	adds	r3, r3, r0
10004d9c:	3b03      	subs	r3, #3
10004d9e:	18cb      	adds	r3, r1, r3
10004da0:	785e      	ldrb	r6, [r3, #1]
10004da2:	46b4      	mov	ip, r6
10004da4:	2e00      	cmp	r6, #0
10004da6:	d11a      	bne.n	10004dde <ph_remove_any_head+0x6a>
10004da8:	9e01      	ldr	r6, [sp, #4]
10004daa:	2e00      	cmp	r6, #0
10004dac:	d042      	beq.n	10004e34 <ph_remove_any_head+0xc0>
10004dae:	7be6      	ldrb	r6, [r4, #15]
10004db0:	2e00      	cmp	r6, #0
10004db2:	d004      	beq.n	10004dbe <ph_remove_any_head+0x4a>
10004db4:	0073      	lsls	r3, r6, #1
10004db6:	199b      	adds	r3, r3, r6
10004db8:	18cb      	adds	r3, r1, r3
10004dba:	3b03      	subs	r3, #3
10004dbc:	705d      	strb	r5, [r3, #1]
10004dbe:	7ba3      	ldrb	r3, [r4, #14]
10004dc0:	2b00      	cmp	r3, #0
10004dc2:	d100      	bne.n	10004dc6 <ph_remove_any_head+0x52>
10004dc4:	73a5      	strb	r5, [r4, #14]
10004dc6:	73e5      	strb	r5, [r4, #15]
10004dc8:	2800      	cmp	r0, #0
10004dca:	d12f      	bne.n	10004e2c <ph_remove_any_head+0xb8>
10004dcc:	2300      	movs	r3, #0
10004dce:	7053      	strb	r3, [r2, #1]
10004dd0:	b003      	add	sp, #12
10004dd2:	bcf0      	pop	{r4, r5, r6, r7}
10004dd4:	46bb      	mov	fp, r7
10004dd6:	46b2      	mov	sl, r6
10004dd8:	46a9      	mov	r9, r5
10004dda:	46a0      	mov	r8, r4
10004ddc:	bdf0      	pop	{r4, r5, r6, r7, pc}
10004dde:	0072      	lsls	r2, r6, #1
10004de0:	4462      	add	r2, ip
10004de2:	3a03      	subs	r2, #3
10004de4:	188a      	adds	r2, r1, r2
10004de6:	7851      	ldrb	r1, [r2, #1]
10004de8:	4688      	mov	r8, r1
10004dea:	2100      	movs	r1, #0
10004dec:	7051      	strb	r1, [r2, #1]
10004dee:	4689      	mov	r9, r1
10004df0:	7059      	strb	r1, [r3, #1]
10004df2:	0032      	movs	r2, r6
10004df4:	0001      	movs	r1, r0
10004df6:	0020      	movs	r0, r4
10004df8:	f7ff ff2c 	bl	10004c54 <ph_merge_nodes>
10004dfc:	4643      	mov	r3, r8
10004dfe:	4682      	mov	sl, r0
10004e00:	2b00      	cmp	r3, #0
10004e02:	d007      	beq.n	10004e14 <ph_remove_any_head+0xa0>
10004e04:	005b      	lsls	r3, r3, #1
10004e06:	6821      	ldr	r1, [r4, #0]
10004e08:	4443      	add	r3, r8
10004e0a:	3b03      	subs	r3, #3
10004e0c:	18cb      	adds	r3, r1, r3
10004e0e:	785a      	ldrb	r2, [r3, #1]
10004e10:	2a00      	cmp	r2, #0
10004e12:	d116      	bne.n	10004e42 <ph_remove_any_head+0xce>
10004e14:	4642      	mov	r2, r8
10004e16:	4651      	mov	r1, sl
10004e18:	0020      	movs	r0, r4
10004e1a:	f7ff ff1b 	bl	10004c54 <ph_merge_nodes>
10004e1e:	6821      	ldr	r1, [r4, #0]
10004e20:	9b01      	ldr	r3, [sp, #4]
10004e22:	19ca      	adds	r2, r1, r7
10004e24:	2b00      	cmp	r3, #0
10004e26:	d1c2      	bne.n	10004dae <ph_remove_any_head+0x3a>
10004e28:	2800      	cmp	r0, #0
10004e2a:	d0cf      	beq.n	10004dcc <ph_remove_any_head+0x58>
10004e2c:	0043      	lsls	r3, r0, #1
10004e2e:	181b      	adds	r3, r3, r0
10004e30:	3b03      	subs	r3, #3
10004e32:	18cb      	adds	r3, r1, r3
10004e34:	2100      	movs	r1, #0
10004e36:	7099      	strb	r1, [r3, #2]
10004e38:	e7c8      	b.n	10004dcc <ph_remove_any_head+0x58>
10004e3a:	9b01      	ldr	r3, [sp, #4]
10004e3c:	2b00      	cmp	r3, #0
10004e3e:	d1b6      	bne.n	10004dae <ph_remove_any_head+0x3a>
10004e40:	e7c4      	b.n	10004dcc <ph_remove_any_head+0x58>
10004e42:	0050      	lsls	r0, r2, #1
10004e44:	1880      	adds	r0, r0, r2
10004e46:	3803      	subs	r0, #3
10004e48:	1809      	adds	r1, r1, r0
10004e4a:	7848      	ldrb	r0, [r1, #1]
10004e4c:	4683      	mov	fp, r0
10004e4e:	4648      	mov	r0, r9
10004e50:	7048      	strb	r0, [r1, #1]
10004e52:	7058      	strb	r0, [r3, #1]
10004e54:	4641      	mov	r1, r8
10004e56:	0020      	movs	r0, r4
10004e58:	f7ff fefc 	bl	10004c54 <ph_merge_nodes>
10004e5c:	4659      	mov	r1, fp
10004e5e:	4680      	mov	r8, r0
10004e60:	0020      	movs	r0, r4
10004e62:	f7ff ff41 	bl	10004ce8 <ph_merge_two_pass>
10004e66:	4641      	mov	r1, r8
10004e68:	0002      	movs	r2, r0
10004e6a:	0020      	movs	r0, r4
10004e6c:	f7ff fef2 	bl	10004c54 <ph_merge_nodes>
10004e70:	4680      	mov	r8, r0
10004e72:	e7cf      	b.n	10004e14 <ph_remove_any_head+0xa0>

10004e74 <ph_remove_head>:
10004e74:	b5f0      	push	{r4, r5, r6, r7, lr}
10004e76:	4657      	mov	r7, sl
10004e78:	4645      	mov	r5, r8
10004e7a:	46de      	mov	lr, fp
10004e7c:	464e      	mov	r6, r9
10004e7e:	b5e0      	push	{r5, r6, r7, lr}
10004e80:	b083      	sub	sp, #12
10004e82:	9101      	str	r1, [sp, #4]
10004e84:	7b45      	ldrb	r5, [r0, #13]
10004e86:	0004      	movs	r4, r0
10004e88:	006f      	lsls	r7, r5, #1
10004e8a:	6800      	ldr	r0, [r0, #0]
10004e8c:	197f      	adds	r7, r7, r5
10004e8e:	3f03      	subs	r7, #3
10004e90:	5dc1      	ldrb	r1, [r0, r7]
10004e92:	19c2      	adds	r2, r0, r7
10004e94:	2900      	cmp	r1, #0
10004e96:	d052      	beq.n	10004f3e <ph_remove_head+0xca>
10004e98:	004b      	lsls	r3, r1, #1
10004e9a:	185b      	adds	r3, r3, r1
10004e9c:	3b03      	subs	r3, #3
10004e9e:	18c3      	adds	r3, r0, r3
10004ea0:	785e      	ldrb	r6, [r3, #1]
10004ea2:	46b4      	mov	ip, r6
10004ea4:	2e00      	cmp	r6, #0
10004ea6:	d11c      	bne.n	10004ee2 <ph_remove_head+0x6e>
10004ea8:	9e01      	ldr	r6, [sp, #4]
10004eaa:	2e00      	cmp	r6, #0
10004eac:	d044      	beq.n	10004f38 <ph_remove_head+0xc4>
10004eae:	7be6      	ldrb	r6, [r4, #15]
10004eb0:	2e00      	cmp	r6, #0
10004eb2:	d004      	beq.n	10004ebe <ph_remove_head+0x4a>
10004eb4:	0073      	lsls	r3, r6, #1
10004eb6:	199b      	adds	r3, r3, r6
10004eb8:	18c3      	adds	r3, r0, r3
10004eba:	3b03      	subs	r3, #3
10004ebc:	705d      	strb	r5, [r3, #1]
10004ebe:	7ba3      	ldrb	r3, [r4, #14]
10004ec0:	2b00      	cmp	r3, #0
10004ec2:	d100      	bne.n	10004ec6 <ph_remove_head+0x52>
10004ec4:	73a5      	strb	r5, [r4, #14]
10004ec6:	73e5      	strb	r5, [r4, #15]
10004ec8:	2900      	cmp	r1, #0
10004eca:	d131      	bne.n	10004f30 <ph_remove_head+0xbc>
10004ecc:	2300      	movs	r3, #0
10004ece:	0028      	movs	r0, r5
10004ed0:	7053      	strb	r3, [r2, #1]
10004ed2:	7361      	strb	r1, [r4, #13]
10004ed4:	b003      	add	sp, #12
10004ed6:	bcf0      	pop	{r4, r5, r6, r7}
10004ed8:	46bb      	mov	fp, r7
10004eda:	46b2      	mov	sl, r6
10004edc:	46a9      	mov	r9, r5
10004ede:	46a0      	mov	r8, r4
10004ee0:	bdf0      	pop	{r4, r5, r6, r7, pc}
10004ee2:	0072      	lsls	r2, r6, #1
10004ee4:	4462      	add	r2, ip
10004ee6:	3a03      	subs	r2, #3
10004ee8:	1882      	adds	r2, r0, r2
10004eea:	7850      	ldrb	r0, [r2, #1]
10004eec:	4680      	mov	r8, r0
10004eee:	2000      	movs	r0, #0
10004ef0:	7050      	strb	r0, [r2, #1]
10004ef2:	4681      	mov	r9, r0
10004ef4:	7058      	strb	r0, [r3, #1]
10004ef6:	0032      	movs	r2, r6
10004ef8:	0020      	movs	r0, r4
10004efa:	f7ff feab 	bl	10004c54 <ph_merge_nodes>
10004efe:	4643      	mov	r3, r8
10004f00:	4682      	mov	sl, r0
10004f02:	2b00      	cmp	r3, #0
10004f04:	d007      	beq.n	10004f16 <ph_remove_head+0xa2>
10004f06:	005b      	lsls	r3, r3, #1
10004f08:	6821      	ldr	r1, [r4, #0]
10004f0a:	4443      	add	r3, r8
10004f0c:	3b03      	subs	r3, #3
10004f0e:	18cb      	adds	r3, r1, r3
10004f10:	785a      	ldrb	r2, [r3, #1]
10004f12:	2a00      	cmp	r2, #0
10004f14:	d117      	bne.n	10004f46 <ph_remove_head+0xd2>
10004f16:	4642      	mov	r2, r8
10004f18:	4651      	mov	r1, sl
10004f1a:	0020      	movs	r0, r4
10004f1c:	f7ff fe9a 	bl	10004c54 <ph_merge_nodes>
10004f20:	9b01      	ldr	r3, [sp, #4]
10004f22:	0001      	movs	r1, r0
10004f24:	6820      	ldr	r0, [r4, #0]
10004f26:	19c2      	adds	r2, r0, r7
10004f28:	2b00      	cmp	r3, #0
10004f2a:	d1c0      	bne.n	10004eae <ph_remove_head+0x3a>
10004f2c:	2900      	cmp	r1, #0
10004f2e:	d0cd      	beq.n	10004ecc <ph_remove_head+0x58>
10004f30:	004b      	lsls	r3, r1, #1
10004f32:	185b      	adds	r3, r3, r1
10004f34:	3b03      	subs	r3, #3
10004f36:	18c3      	adds	r3, r0, r3
10004f38:	2000      	movs	r0, #0
10004f3a:	7098      	strb	r0, [r3, #2]
10004f3c:	e7c6      	b.n	10004ecc <ph_remove_head+0x58>
10004f3e:	9b01      	ldr	r3, [sp, #4]
10004f40:	2b00      	cmp	r3, #0
10004f42:	d1b4      	bne.n	10004eae <ph_remove_head+0x3a>
10004f44:	e7c2      	b.n	10004ecc <ph_remove_head+0x58>
10004f46:	0050      	lsls	r0, r2, #1
10004f48:	1880      	adds	r0, r0, r2
10004f4a:	3803      	subs	r0, #3
10004f4c:	1809      	adds	r1, r1, r0
10004f4e:	7848      	ldrb	r0, [r1, #1]
10004f50:	4683      	mov	fp, r0
10004f52:	4648      	mov	r0, r9
10004f54:	7048      	strb	r0, [r1, #1]
10004f56:	7058      	strb	r0, [r3, #1]
10004f58:	4641      	mov	r1, r8
10004f5a:	0020      	movs	r0, r4
10004f5c:	f7ff fe7a 	bl	10004c54 <ph_merge_nodes>
10004f60:	4659      	mov	r1, fp
10004f62:	4680      	mov	r8, r0
10004f64:	0020      	movs	r0, r4
10004f66:	f7ff febf 	bl	10004ce8 <ph_merge_two_pass>
10004f6a:	4641      	mov	r1, r8
10004f6c:	0002      	movs	r2, r0
10004f6e:	0020      	movs	r0, r4
10004f70:	f7ff fe70 	bl	10004c54 <ph_merge_nodes>
10004f74:	4680      	mov	r8, r0
10004f76:	e7ce      	b.n	10004f16 <ph_remove_head+0xa2>

10004f78 <ph_remove_and_free_node>:
10004f78:	b570      	push	{r4, r5, r6, lr}
10004f7a:	0005      	movs	r5, r0
10004f7c:	2900      	cmp	r1, #0
10004f7e:	d02c      	beq.n	10004fda <ph_remove_and_free_node+0x62>
10004f80:	7b43      	ldrb	r3, [r0, #13]
10004f82:	428b      	cmp	r3, r1
10004f84:	d02e      	beq.n	10004fe4 <ph_remove_and_free_node+0x6c>
10004f86:	004c      	lsls	r4, r1, #1
10004f88:	6800      	ldr	r0, [r0, #0]
10004f8a:	1864      	adds	r4, r4, r1
10004f8c:	3c03      	subs	r4, #3
10004f8e:	1904      	adds	r4, r0, r4
10004f90:	78a2      	ldrb	r2, [r4, #2]
10004f92:	2a00      	cmp	r2, #0
10004f94:	d021      	beq.n	10004fda <ph_remove_and_free_node+0x62>
10004f96:	0053      	lsls	r3, r2, #1
10004f98:	189b      	adds	r3, r3, r2
10004f9a:	3b03      	subs	r3, #3
10004f9c:	5cc2      	ldrb	r2, [r0, r3]
10004f9e:	18c6      	adds	r6, r0, r3
10004fa0:	428a      	cmp	r2, r1
10004fa2:	d102      	bne.n	10004faa <ph_remove_and_free_node+0x32>
10004fa4:	e01b      	b.n	10004fde <ph_remove_and_free_node+0x66>
10004fa6:	2a00      	cmp	r2, #0
10004fa8:	d008      	beq.n	10004fbc <ph_remove_and_free_node+0x44>
10004faa:	0053      	lsls	r3, r2, #1
10004fac:	189b      	adds	r3, r3, r2
10004fae:	3b03      	subs	r3, #3
10004fb0:	18c3      	adds	r3, r0, r3
10004fb2:	785a      	ldrb	r2, [r3, #1]
10004fb4:	428a      	cmp	r2, r1
10004fb6:	d1f6      	bne.n	10004fa6 <ph_remove_and_free_node+0x2e>
10004fb8:	7862      	ldrb	r2, [r4, #1]
10004fba:	705a      	strb	r2, [r3, #1]
10004fbc:	2300      	movs	r3, #0
10004fbe:	2201      	movs	r2, #1
10004fc0:	0028      	movs	r0, r5
10004fc2:	70a3      	strb	r3, [r4, #2]
10004fc4:	7063      	strb	r3, [r4, #1]
10004fc6:	f7ff fed5 	bl	10004d74 <ph_remove_any_head>
10004fca:	7b69      	ldrb	r1, [r5, #13]
10004fcc:	0002      	movs	r2, r0
10004fce:	0028      	movs	r0, r5
10004fd0:	f7ff fe40 	bl	10004c54 <ph_merge_nodes>
10004fd4:	7368      	strb	r0, [r5, #13]
10004fd6:	2001      	movs	r0, #1
10004fd8:	e000      	b.n	10004fdc <ph_remove_and_free_node+0x64>
10004fda:	2000      	movs	r0, #0
10004fdc:	bd70      	pop	{r4, r5, r6, pc}
10004fde:	7863      	ldrb	r3, [r4, #1]
10004fe0:	7033      	strb	r3, [r6, #0]
10004fe2:	e7eb      	b.n	10004fbc <ph_remove_and_free_node+0x44>
10004fe4:	2201      	movs	r2, #1
10004fe6:	0019      	movs	r1, r3
10004fe8:	f7ff fec4 	bl	10004d74 <ph_remove_any_head>
10004fec:	e7f2      	b.n	10004fd4 <ph_remove_and_free_node+0x5c>
10004fee:	46c0      	nop			@ (mov r8, r8)

10004ff0 <clock_configure>:
10004ff0:	b5f0      	push	{r4, r5, r6, r7, lr}
10004ff2:	4645      	mov	r5, r8
10004ff4:	464e      	mov	r6, r9
10004ff6:	46de      	mov	lr, fp
10004ff8:	4657      	mov	r7, sl
10004ffa:	b5e0      	push	{r5, r6, r7, lr}
10004ffc:	b083      	sub	sp, #12
10004ffe:	0016      	movs	r6, r2
10005000:	9a0c      	ldr	r2, [sp, #48]	@ 0x30
10005002:	0005      	movs	r5, r0
10005004:	4688      	mov	r8, r1
10005006:	429a      	cmp	r2, r3
10005008:	d900      	bls.n	1000500c <clock_configure+0x1c>
1000500a:	e073      	b.n	100050f4 <clock_configure+0x104>
1000500c:	0e1a      	lsrs	r2, r3, #24
1000500e:	4693      	mov	fp, r2
10005010:	021b      	lsls	r3, r3, #8
10005012:	0018      	movs	r0, r3
10005014:	9301      	str	r3, [sp, #4]
10005016:	4659      	mov	r1, fp
10005018:	2300      	movs	r3, #0
1000501a:	9a0c      	ldr	r2, [sp, #48]	@ 0x30
1000501c:	f001 ffc8 	bl	10006fb0 <__wrap___aeabi_uldivmod>
10005020:	4b35      	ldr	r3, [pc, #212]	@ (100050f8 <clock_configure+0x108>)
10005022:	006c      	lsls	r4, r5, #1
10005024:	469c      	mov	ip, r3
10005026:	1964      	adds	r4, r4, r5
10005028:	00a4      	lsls	r4, r4, #2
1000502a:	4464      	add	r4, ip
1000502c:	6863      	ldr	r3, [r4, #4]
1000502e:	0007      	movs	r7, r0
10005030:	4283      	cmp	r3, r0
10005032:	d200      	bcs.n	10005036 <clock_configure+0x46>
10005034:	6060      	str	r0, [r4, #4]
10005036:	1f2b      	subs	r3, r5, #4
10005038:	b2db      	uxtb	r3, r3
1000503a:	4699      	mov	r9, r3
1000503c:	23c0      	movs	r3, #192	@ 0xc0
1000503e:	464a      	mov	r2, r9
10005040:	019b      	lsls	r3, r3, #6
10005042:	4323      	orrs	r3, r4
10005044:	2a01      	cmp	r2, #1
10005046:	d933      	bls.n	100050b0 <clock_configure+0xc0>
10005048:	2280      	movs	r2, #128	@ 0x80
1000504a:	0112      	lsls	r2, r2, #4
1000504c:	601a      	str	r2, [r3, #0]
1000504e:	4b2b      	ldr	r3, [pc, #172]	@ (100050fc <clock_configure+0x10c>)
10005050:	00ad      	lsls	r5, r5, #2
10005052:	5959      	ldr	r1, [r3, r5]
10005054:	469a      	mov	sl, r3
10005056:	2900      	cmp	r1, #0
10005058:	d007      	beq.n	1000506a <clock_configure+0x7a>
1000505a:	6958      	ldr	r0, [r3, #20]
1000505c:	f001 ff6a 	bl	10006f34 <__wrap___aeabi_uidiv>
10005060:	3001      	adds	r0, #1
10005062:	0043      	lsls	r3, r0, #1
10005064:	181b      	adds	r3, r3, r0
10005066:	3b03      	subs	r3, #3
10005068:	d2fd      	bcs.n	10005066 <clock_configure+0x76>
1000506a:	6822      	ldr	r2, [r4, #0]
1000506c:	0173      	lsls	r3, r6, #5
1000506e:	4053      	eors	r3, r2
10005070:	22e0      	movs	r2, #224	@ 0xe0
10005072:	401a      	ands	r2, r3
10005074:	2380      	movs	r3, #128	@ 0x80
10005076:	015b      	lsls	r3, r3, #5
10005078:	4323      	orrs	r3, r4
1000507a:	601a      	str	r2, [r3, #0]
1000507c:	464a      	mov	r2, r9
1000507e:	2a01      	cmp	r2, #1
10005080:	d92b      	bls.n	100050da <clock_configure+0xea>
10005082:	2380      	movs	r3, #128	@ 0x80
10005084:	2280      	movs	r2, #128	@ 0x80
10005086:	019b      	lsls	r3, r3, #6
10005088:	4323      	orrs	r3, r4
1000508a:	0112      	lsls	r2, r2, #4
1000508c:	601a      	str	r2, [r3, #0]
1000508e:	4659      	mov	r1, fp
10005090:	2300      	movs	r3, #0
10005092:	003a      	movs	r2, r7
10005094:	9801      	ldr	r0, [sp, #4]
10005096:	6067      	str	r7, [r4, #4]
10005098:	f001 ff8a 	bl	10006fb0 <__wrap___aeabi_uldivmod>
1000509c:	4653      	mov	r3, sl
1000509e:	5158      	str	r0, [r3, r5]
100050a0:	2001      	movs	r0, #1
100050a2:	b003      	add	sp, #12
100050a4:	bcf0      	pop	{r4, r5, r6, r7}
100050a6:	46bb      	mov	fp, r7
100050a8:	46b2      	mov	sl, r6
100050aa:	46a9      	mov	r9, r5
100050ac:	46a0      	mov	r8, r4
100050ae:	bdf0      	pop	{r4, r5, r6, r7, pc}
100050b0:	4642      	mov	r2, r8
100050b2:	2a01      	cmp	r2, #1
100050b4:	d1c8      	bne.n	10005048 <clock_configure+0x58>
100050b6:	3202      	adds	r2, #2
100050b8:	601a      	str	r2, [r3, #0]
100050ba:	3a02      	subs	r2, #2
100050bc:	68a3      	ldr	r3, [r4, #8]
100050be:	421a      	tst	r2, r3
100050c0:	d0fc      	beq.n	100050bc <clock_configure+0xcc>
100050c2:	6822      	ldr	r2, [r4, #0]
100050c4:	0173      	lsls	r3, r6, #5
100050c6:	4053      	eors	r3, r2
100050c8:	22e0      	movs	r2, #224	@ 0xe0
100050ca:	401a      	ands	r2, r3
100050cc:	2380      	movs	r3, #128	@ 0x80
100050ce:	015b      	lsls	r3, r3, #5
100050d0:	4323      	orrs	r3, r4
100050d2:	601a      	str	r2, [r3, #0]
100050d4:	4a09      	ldr	r2, [pc, #36]	@ (100050fc <clock_configure+0x10c>)
100050d6:	00ad      	lsls	r5, r5, #2
100050d8:	4692      	mov	sl, r2
100050da:	4642      	mov	r2, r8
100050dc:	6821      	ldr	r1, [r4, #0]
100050de:	4051      	eors	r1, r2
100050e0:	2203      	movs	r2, #3
100050e2:	400a      	ands	r2, r1
100050e4:	601a      	str	r2, [r3, #0]
100050e6:	2201      	movs	r2, #1
100050e8:	4643      	mov	r3, r8
100050ea:	409a      	lsls	r2, r3
100050ec:	68a3      	ldr	r3, [r4, #8]
100050ee:	421a      	tst	r2, r3
100050f0:	d0fc      	beq.n	100050ec <clock_configure+0xfc>
100050f2:	e7c6      	b.n	10005082 <clock_configure+0x92>
100050f4:	2000      	movs	r0, #0
100050f6:	e7d4      	b.n	100050a2 <clock_configure+0xb2>
100050f8:	40008000 	.word	0x40008000
100050fc:	20001540 	.word	0x20001540

10005100 <clocks_init>:
10005100:	b510      	push	{r4, lr}
10005102:	200c      	movs	r0, #12
10005104:	b082      	sub	sp, #8
10005106:	f000 fa03 	bl	10005510 <watchdog_start_tick>
1000510a:	f7fe fcfb 	bl	10003b04 <running_on_fpga>
1000510e:	2800      	cmp	r0, #0
10005110:	d010      	beq.n	10005134 <clocks_init+0x34>
10005112:	4b8b      	ldr	r3, [pc, #556]	@ (10005340 <clocks_init+0x240>)
10005114:	488b      	ldr	r0, [pc, #556]	@ (10005344 <clocks_init+0x244>)
10005116:	498b      	ldr	r1, [pc, #556]	@ (10005344 <clocks_init+0x244>)
10005118:	4a8b      	ldr	r2, [pc, #556]	@ (10005348 <clocks_init+0x248>)
1000511a:	6018      	str	r0, [r3, #0]
1000511c:	6059      	str	r1, [r3, #4]
1000511e:	6098      	str	r0, [r3, #8]
10005120:	60d9      	str	r1, [r3, #12]
10005122:	6118      	str	r0, [r3, #16]
10005124:	6159      	str	r1, [r3, #20]
10005126:	6198      	str	r0, [r3, #24]
10005128:	61d9      	str	r1, [r3, #28]
1000512a:	6218      	str	r0, [r3, #32]
1000512c:	6259      	str	r1, [r3, #36]	@ 0x24
1000512e:	625a      	str	r2, [r3, #36]	@ 0x24
10005130:	b002      	add	sp, #8
10005132:	bd10      	pop	{r4, pc}
10005134:	4c85      	ldr	r4, [pc, #532]	@ (1000534c <clocks_init+0x24c>)
10005136:	67a0      	str	r0, [r4, #120]	@ 0x78
10005138:	f000 fa40 	bl	100055bc <xosc_init>
1000513c:	2201      	movs	r2, #1
1000513e:	4b84      	ldr	r3, [pc, #528]	@ (10005350 <clocks_init+0x250>)
10005140:	601a      	str	r2, [r3, #0]
10005142:	6c63      	ldr	r3, [r4, #68]	@ 0x44
10005144:	2b01      	cmp	r3, #1
10005146:	d1fc      	bne.n	10005142 <clocks_init+0x42>
10005148:	2203      	movs	r2, #3
1000514a:	4b82      	ldr	r3, [pc, #520]	@ (10005354 <clocks_init+0x254>)
1000514c:	601a      	str	r2, [r3, #0]
1000514e:	4a7f      	ldr	r2, [pc, #508]	@ (1000534c <clocks_init+0x24c>)
10005150:	6b93      	ldr	r3, [r2, #56]	@ 0x38
10005152:	2b01      	cmp	r3, #1
10005154:	d1fc      	bne.n	10005150 <clocks_init+0x50>
10005156:	3301      	adds	r3, #1
10005158:	2101      	movs	r1, #1
1000515a:	4a7f      	ldr	r2, [pc, #508]	@ (10005358 <clocks_init+0x258>)
1000515c:	487f      	ldr	r0, [pc, #508]	@ (1000535c <clocks_init+0x25c>)
1000515e:	9300      	str	r3, [sp, #0]
10005160:	3304      	adds	r3, #4
10005162:	f000 f985 	bl	10005470 <pll_init>
10005166:	2305      	movs	r3, #5
10005168:	4a7d      	ldr	r2, [pc, #500]	@ (10005360 <clocks_init+0x260>)
1000516a:	9300      	str	r3, [sp, #0]
1000516c:	2101      	movs	r1, #1
1000516e:	487d      	ldr	r0, [pc, #500]	@ (10005364 <clocks_init+0x264>)
10005170:	f000 f97e 	bl	10005470 <pll_init>
10005174:	4b7c      	ldr	r3, [pc, #496]	@ (10005368 <clocks_init+0x268>)
10005176:	685a      	ldr	r2, [r3, #4]
10005178:	2aff      	cmp	r2, #255	@ 0xff
1000517a:	d802      	bhi.n	10005182 <clocks_init+0x82>
1000517c:	2280      	movs	r2, #128	@ 0x80
1000517e:	0052      	lsls	r2, r2, #1
10005180:	605a      	str	r2, [r3, #4]
10005182:	2280      	movs	r2, #128	@ 0x80
10005184:	4b73      	ldr	r3, [pc, #460]	@ (10005354 <clocks_init+0x254>)
10005186:	4c6e      	ldr	r4, [pc, #440]	@ (10005340 <clocks_init+0x240>)
10005188:	0112      	lsls	r2, r2, #4
1000518a:	601a      	str	r2, [r3, #0]
1000518c:	6921      	ldr	r1, [r4, #16]
1000518e:	2900      	cmp	r1, #0
10005190:	d007      	beq.n	100051a2 <clocks_init+0xa2>
10005192:	6960      	ldr	r0, [r4, #20]
10005194:	f001 fece 	bl	10006f34 <__wrap___aeabi_uidiv>
10005198:	3001      	adds	r0, #1
1000519a:	0043      	lsls	r3, r0, #1
1000519c:	181b      	adds	r3, r3, r0
1000519e:	3b03      	subs	r3, #3
100051a0:	d2fd      	bcs.n	1000519e <clocks_init+0x9e>
100051a2:	22e0      	movs	r2, #224	@ 0xe0
100051a4:	4b70      	ldr	r3, [pc, #448]	@ (10005368 <clocks_init+0x268>)
100051a6:	4871      	ldr	r0, [pc, #452]	@ (1000536c <clocks_init+0x26c>)
100051a8:	6819      	ldr	r1, [r3, #0]
100051aa:	400a      	ands	r2, r1
100051ac:	6002      	str	r2, [r0, #0]
100051ae:	2202      	movs	r2, #2
100051b0:	6819      	ldr	r1, [r3, #0]
100051b2:	4051      	eors	r1, r2
100051b4:	3201      	adds	r2, #1
100051b6:	400a      	ands	r2, r1
100051b8:	2104      	movs	r1, #4
100051ba:	6002      	str	r2, [r0, #0]
100051bc:	689a      	ldr	r2, [r3, #8]
100051be:	4211      	tst	r1, r2
100051c0:	d0fc      	beq.n	100051bc <clocks_init+0xbc>
100051c2:	2180      	movs	r1, #128	@ 0x80
100051c4:	4a6a      	ldr	r2, [pc, #424]	@ (10005370 <clocks_init+0x270>)
100051c6:	0109      	lsls	r1, r1, #4
100051c8:	6011      	str	r1, [r2, #0]
100051ca:	2280      	movs	r2, #128	@ 0x80
100051cc:	0052      	lsls	r2, r2, #1
100051ce:	605a      	str	r2, [r3, #4]
100051d0:	4b68      	ldr	r3, [pc, #416]	@ (10005374 <clocks_init+0x274>)
100051d2:	6123      	str	r3, [r4, #16]
100051d4:	4b68      	ldr	r3, [pc, #416]	@ (10005378 <clocks_init+0x278>)
100051d6:	6859      	ldr	r1, [r3, #4]
100051d8:	29ff      	cmp	r1, #255	@ 0xff
100051da:	d800      	bhi.n	100051de <clocks_init+0xde>
100051dc:	605a      	str	r2, [r3, #4]
100051de:	2203      	movs	r2, #3
100051e0:	2101      	movs	r1, #1
100051e2:	4b5b      	ldr	r3, [pc, #364]	@ (10005350 <clocks_init+0x250>)
100051e4:	601a      	str	r2, [r3, #0]
100051e6:	4a64      	ldr	r2, [pc, #400]	@ (10005378 <clocks_init+0x278>)
100051e8:	6893      	ldr	r3, [r2, #8]
100051ea:	4219      	tst	r1, r3
100051ec:	d0fc      	beq.n	100051e8 <clocks_init+0xe8>
100051ee:	23e0      	movs	r3, #224	@ 0xe0
100051f0:	6810      	ldr	r0, [r2, #0]
100051f2:	4003      	ands	r3, r0
100051f4:	4861      	ldr	r0, [pc, #388]	@ (1000537c <clocks_init+0x27c>)
100051f6:	6003      	str	r3, [r0, #0]
100051f8:	6812      	ldr	r2, [r2, #0]
100051fa:	2303      	movs	r3, #3
100051fc:	404a      	eors	r2, r1
100051fe:	2102      	movs	r1, #2
10005200:	4013      	ands	r3, r2
10005202:	4a5d      	ldr	r2, [pc, #372]	@ (10005378 <clocks_init+0x278>)
10005204:	6003      	str	r3, [r0, #0]
10005206:	6893      	ldr	r3, [r2, #8]
10005208:	4219      	tst	r1, r3
1000520a:	d0fc      	beq.n	10005206 <clocks_init+0x106>
1000520c:	2180      	movs	r1, #128	@ 0x80
1000520e:	4b5c      	ldr	r3, [pc, #368]	@ (10005380 <clocks_init+0x280>)
10005210:	0109      	lsls	r1, r1, #4
10005212:	6019      	str	r1, [r3, #0]
10005214:	2180      	movs	r1, #128	@ 0x80
10005216:	4b5b      	ldr	r3, [pc, #364]	@ (10005384 <clocks_init+0x284>)
10005218:	0049      	lsls	r1, r1, #1
1000521a:	6051      	str	r1, [r2, #4]
1000521c:	6163      	str	r3, [r4, #20]
1000521e:	4b5a      	ldr	r3, [pc, #360]	@ (10005388 <clocks_init+0x288>)
10005220:	685a      	ldr	r2, [r3, #4]
10005222:	2aff      	cmp	r2, #255	@ 0xff
10005224:	d800      	bhi.n	10005228 <clocks_init+0x128>
10005226:	6059      	str	r1, [r3, #4]
10005228:	2280      	movs	r2, #128	@ 0x80
1000522a:	4b58      	ldr	r3, [pc, #352]	@ (1000538c <clocks_init+0x28c>)
1000522c:	0112      	lsls	r2, r2, #4
1000522e:	601a      	str	r2, [r3, #0]
10005230:	69e1      	ldr	r1, [r4, #28]
10005232:	2900      	cmp	r1, #0
10005234:	d007      	beq.n	10005246 <clocks_init+0x146>
10005236:	6960      	ldr	r0, [r4, #20]
10005238:	f001 fe7c 	bl	10006f34 <__wrap___aeabi_uidiv>
1000523c:	3001      	adds	r0, #1
1000523e:	0043      	lsls	r3, r0, #1
10005240:	181b      	adds	r3, r3, r0
10005242:	3b03      	subs	r3, #3
10005244:	d2fd      	bcs.n	10005242 <clocks_init+0x142>
10005246:	23e0      	movs	r3, #224	@ 0xe0
10005248:	4a4f      	ldr	r2, [pc, #316]	@ (10005388 <clocks_init+0x288>)
1000524a:	6811      	ldr	r1, [r2, #0]
1000524c:	400b      	ands	r3, r1
1000524e:	4950      	ldr	r1, [pc, #320]	@ (10005390 <clocks_init+0x290>)
10005250:	600b      	str	r3, [r1, #0]
10005252:	2180      	movs	r1, #128	@ 0x80
10005254:	4b4f      	ldr	r3, [pc, #316]	@ (10005394 <clocks_init+0x294>)
10005256:	0109      	lsls	r1, r1, #4
10005258:	6019      	str	r1, [r3, #0]
1000525a:	2180      	movs	r1, #128	@ 0x80
1000525c:	4b39      	ldr	r3, [pc, #228]	@ (10005344 <clocks_init+0x244>)
1000525e:	0049      	lsls	r1, r1, #1
10005260:	6051      	str	r1, [r2, #4]
10005262:	61e3      	str	r3, [r4, #28]
10005264:	4b4c      	ldr	r3, [pc, #304]	@ (10005398 <clocks_init+0x298>)
10005266:	685a      	ldr	r2, [r3, #4]
10005268:	2aff      	cmp	r2, #255	@ 0xff
1000526a:	d800      	bhi.n	1000526e <clocks_init+0x16e>
1000526c:	6059      	str	r1, [r3, #4]
1000526e:	2280      	movs	r2, #128	@ 0x80
10005270:	4b4a      	ldr	r3, [pc, #296]	@ (1000539c <clocks_init+0x29c>)
10005272:	0112      	lsls	r2, r2, #4
10005274:	601a      	str	r2, [r3, #0]
10005276:	6a21      	ldr	r1, [r4, #32]
10005278:	2900      	cmp	r1, #0
1000527a:	d007      	beq.n	1000528c <clocks_init+0x18c>
1000527c:	6960      	ldr	r0, [r4, #20]
1000527e:	f001 fe59 	bl	10006f34 <__wrap___aeabi_uidiv>
10005282:	3001      	adds	r0, #1
10005284:	0043      	lsls	r3, r0, #1
10005286:	181b      	adds	r3, r3, r0
10005288:	3b03      	subs	r3, #3
1000528a:	d2fd      	bcs.n	10005288 <clocks_init+0x188>
1000528c:	23e0      	movs	r3, #224	@ 0xe0
1000528e:	4a42      	ldr	r2, [pc, #264]	@ (10005398 <clocks_init+0x298>)
10005290:	6811      	ldr	r1, [r2, #0]
10005292:	400b      	ands	r3, r1
10005294:	4942      	ldr	r1, [pc, #264]	@ (100053a0 <clocks_init+0x2a0>)
10005296:	600b      	str	r3, [r1, #0]
10005298:	2180      	movs	r1, #128	@ 0x80
1000529a:	4b42      	ldr	r3, [pc, #264]	@ (100053a4 <clocks_init+0x2a4>)
1000529c:	0109      	lsls	r1, r1, #4
1000529e:	6019      	str	r1, [r3, #0]
100052a0:	2380      	movs	r3, #128	@ 0x80
100052a2:	005b      	lsls	r3, r3, #1
100052a4:	6053      	str	r3, [r2, #4]
100052a6:	2280      	movs	r2, #128	@ 0x80
100052a8:	4b26      	ldr	r3, [pc, #152]	@ (10005344 <clocks_init+0x244>)
100052aa:	02d2      	lsls	r2, r2, #11
100052ac:	6223      	str	r3, [r4, #32]
100052ae:	4b3e      	ldr	r3, [pc, #248]	@ (100053a8 <clocks_init+0x2a8>)
100052b0:	6859      	ldr	r1, [r3, #4]
100052b2:	4291      	cmp	r1, r2
100052b4:	d200      	bcs.n	100052b8 <clocks_init+0x1b8>
100052b6:	605a      	str	r2, [r3, #4]
100052b8:	2280      	movs	r2, #128	@ 0x80
100052ba:	4b3c      	ldr	r3, [pc, #240]	@ (100053ac <clocks_init+0x2ac>)
100052bc:	0112      	lsls	r2, r2, #4
100052be:	601a      	str	r2, [r3, #0]
100052c0:	6a61      	ldr	r1, [r4, #36]	@ 0x24
100052c2:	2900      	cmp	r1, #0
100052c4:	d007      	beq.n	100052d6 <clocks_init+0x1d6>
100052c6:	6960      	ldr	r0, [r4, #20]
100052c8:	f001 fe34 	bl	10006f34 <__wrap___aeabi_uidiv>
100052cc:	3001      	adds	r0, #1
100052ce:	0043      	lsls	r3, r0, #1
100052d0:	181b      	adds	r3, r3, r0
100052d2:	3b03      	subs	r3, #3
100052d4:	d2fd      	bcs.n	100052d2 <clocks_init+0x1d2>
100052d6:	23e0      	movs	r3, #224	@ 0xe0
100052d8:	4a33      	ldr	r2, [pc, #204]	@ (100053a8 <clocks_init+0x2a8>)
100052da:	6811      	ldr	r1, [r2, #0]
100052dc:	400b      	ands	r3, r1
100052de:	4934      	ldr	r1, [pc, #208]	@ (100053b0 <clocks_init+0x2b0>)
100052e0:	600b      	str	r3, [r1, #0]
100052e2:	2180      	movs	r1, #128	@ 0x80
100052e4:	4b33      	ldr	r3, [pc, #204]	@ (100053b4 <clocks_init+0x2b4>)
100052e6:	0109      	lsls	r1, r1, #4
100052e8:	6019      	str	r1, [r3, #0]
100052ea:	2380      	movs	r3, #128	@ 0x80
100052ec:	02db      	lsls	r3, r3, #11
100052ee:	6053      	str	r3, [r2, #4]
100052f0:	4b15      	ldr	r3, [pc, #84]	@ (10005348 <clocks_init+0x248>)
100052f2:	6263      	str	r3, [r4, #36]	@ 0x24
100052f4:	4b30      	ldr	r3, [pc, #192]	@ (100053b8 <clocks_init+0x2b8>)
100052f6:	685a      	ldr	r2, [r3, #4]
100052f8:	2aff      	cmp	r2, #255	@ 0xff
100052fa:	d802      	bhi.n	10005302 <clocks_init+0x202>
100052fc:	2280      	movs	r2, #128	@ 0x80
100052fe:	0052      	lsls	r2, r2, #1
10005300:	605a      	str	r2, [r3, #4]
10005302:	2280      	movs	r2, #128	@ 0x80
10005304:	4b2d      	ldr	r3, [pc, #180]	@ (100053bc <clocks_init+0x2bc>)
10005306:	0112      	lsls	r2, r2, #4
10005308:	601a      	str	r2, [r3, #0]
1000530a:	69a1      	ldr	r1, [r4, #24]
1000530c:	2900      	cmp	r1, #0
1000530e:	d007      	beq.n	10005320 <clocks_init+0x220>
10005310:	6960      	ldr	r0, [r4, #20]
10005312:	f001 fe0f 	bl	10006f34 <__wrap___aeabi_uidiv>
10005316:	3001      	adds	r0, #1
10005318:	0043      	lsls	r3, r0, #1
1000531a:	181b      	adds	r3, r3, r0
1000531c:	3b03      	subs	r3, #3
1000531e:	d2fd      	bcs.n	1000531c <clocks_init+0x21c>
10005320:	23e0      	movs	r3, #224	@ 0xe0
10005322:	4a25      	ldr	r2, [pc, #148]	@ (100053b8 <clocks_init+0x2b8>)
10005324:	6811      	ldr	r1, [r2, #0]
10005326:	400b      	ands	r3, r1
10005328:	4925      	ldr	r1, [pc, #148]	@ (100053c0 <clocks_init+0x2c0>)
1000532a:	600b      	str	r3, [r1, #0]
1000532c:	2180      	movs	r1, #128	@ 0x80
1000532e:	4b25      	ldr	r3, [pc, #148]	@ (100053c4 <clocks_init+0x2c4>)
10005330:	0109      	lsls	r1, r1, #4
10005332:	6019      	str	r1, [r3, #0]
10005334:	2380      	movs	r3, #128	@ 0x80
10005336:	005b      	lsls	r3, r3, #1
10005338:	6053      	str	r3, [r2, #4]
1000533a:	4b12      	ldr	r3, [pc, #72]	@ (10005384 <clocks_init+0x284>)
1000533c:	61a3      	str	r3, [r4, #24]
1000533e:	e6f7      	b.n	10005130 <clocks_init+0x30>
10005340:	20001540 	.word	0x20001540
10005344:	02dc6c00 	.word	0x02dc6c00
10005348:	0000b71b 	.word	0x0000b71b
1000534c:	40008000 	.word	0x40008000
10005350:	4000b03c 	.word	0x4000b03c
10005354:	4000b030 	.word	0x4000b030
10005358:	59682f00 	.word	0x59682f00
1000535c:	40028000 	.word	0x40028000
10005360:	47868c00 	.word	0x47868c00
10005364:	4002c000 	.word	0x4002c000
10005368:	40008030 	.word	0x40008030
1000536c:	40009030 	.word	0x40009030
10005370:	4000a030 	.word	0x4000a030
10005374:	00b71b00 	.word	0x00b71b00
10005378:	4000803c 	.word	0x4000803c
1000537c:	4000903c 	.word	0x4000903c
10005380:	4000a03c 	.word	0x4000a03c
10005384:	07735940 	.word	0x07735940
10005388:	40008054 	.word	0x40008054
1000538c:	4000b054 	.word	0x4000b054
10005390:	40009054 	.word	0x40009054
10005394:	4000a054 	.word	0x4000a054
10005398:	40008060 	.word	0x40008060
1000539c:	4000b060 	.word	0x4000b060
100053a0:	40009060 	.word	0x40009060
100053a4:	4000a060 	.word	0x4000a060
100053a8:	4000806c 	.word	0x4000806c
100053ac:	4000b06c 	.word	0x4000b06c
100053b0:	4000906c 	.word	0x4000906c
100053b4:	4000a06c 	.word	0x4000a06c
100053b8:	40008048 	.word	0x40008048
100053bc:	4000b048 	.word	0x4000b048
100053c0:	40009048 	.word	0x40009048
100053c4:	4000a048 	.word	0x4000a048

100053c8 <clock_get_hz>:
100053c8:	4b01      	ldr	r3, [pc, #4]	@ (100053d0 <clock_get_hz+0x8>)
100053ca:	0080      	lsls	r0, r0, #2
100053cc:	58c0      	ldr	r0, [r0, r3]
100053ce:	4770      	bx	lr
100053d0:	20001540 	.word	0x20001540

100053d4 <frequency_count_khz>:
100053d4:	2280      	movs	r2, #128	@ 0x80
100053d6:	b570      	push	{r4, r5, r6, lr}
100053d8:	0006      	movs	r6, r0
100053da:	4c0e      	ldr	r4, [pc, #56]	@ (10005414 <frequency_count_khz+0x40>)
100053dc:	0052      	lsls	r2, r2, #1
100053de:	69a3      	ldr	r3, [r4, #24]
100053e0:	001d      	movs	r5, r3
100053e2:	4015      	ands	r5, r2
100053e4:	4213      	tst	r3, r2
100053e6:	d1fa      	bne.n	100053de <frequency_count_khz+0xa>
100053e8:	21fa      	movs	r1, #250	@ 0xfa
100053ea:	4b0b      	ldr	r3, [pc, #44]	@ (10005418 <frequency_count_khz+0x44>)
100053ec:	0089      	lsls	r1, r1, #2
100053ee:	6918      	ldr	r0, [r3, #16]
100053f0:	f001 fda0 	bl	10006f34 <__wrap___aeabi_uidiv>
100053f4:	230a      	movs	r3, #10
100053f6:	2110      	movs	r1, #16
100053f8:	6020      	str	r0, [r4, #0]
100053fa:	4a06      	ldr	r2, [pc, #24]	@ (10005414 <frequency_count_khz+0x40>)
100053fc:	6123      	str	r3, [r4, #16]
100053fe:	3b0b      	subs	r3, #11
10005400:	6065      	str	r5, [r4, #4]
10005402:	60a3      	str	r3, [r4, #8]
10005404:	6166      	str	r6, [r4, #20]
10005406:	6993      	ldr	r3, [r2, #24]
10005408:	4219      	tst	r1, r3
1000540a:	d0fc      	beq.n	10005406 <frequency_count_khz+0x32>
1000540c:	69d0      	ldr	r0, [r2, #28]
1000540e:	0940      	lsrs	r0, r0, #5
10005410:	bd70      	pop	{r4, r5, r6, pc}
10005412:	46c0      	nop			@ (mov r8, r8)
10005414:	40008080 	.word	0x40008080
10005418:	20001540 	.word	0x20001540

1000541c <clock_gpio_init_int_frac>:
1000541c:	b570      	push	{r4, r5, r6, lr}
1000541e:	2815      	cmp	r0, #21
10005420:	d01f      	beq.n	10005462 <clock_gpio_init_int_frac+0x46>
10005422:	2817      	cmp	r0, #23
10005424:	d01b      	beq.n	1000545e <clock_gpio_init_int_frac+0x42>
10005426:	2818      	cmp	r0, #24
10005428:	d01d      	beq.n	10005466 <clock_gpio_init_int_frac+0x4a>
1000542a:	0005      	movs	r5, r0
1000542c:	3d19      	subs	r5, #25
1000542e:	1e6c      	subs	r4, r5, #1
10005430:	41a5      	sbcs	r5, r4
10005432:	2402      	movs	r4, #2
10005434:	426d      	negs	r5, r5
10005436:	43a5      	bics	r5, r4
10005438:	3503      	adds	r5, #3
1000543a:	014c      	lsls	r4, r1, #5
1000543c:	2180      	movs	r1, #128	@ 0x80
1000543e:	0109      	lsls	r1, r1, #4
10005440:	4321      	orrs	r1, r4
10005442:	006c      	lsls	r4, r5, #1
10005444:	1964      	adds	r4, r4, r5
10005446:	4d09      	ldr	r5, [pc, #36]	@ (1000546c <clock_gpio_init_int_frac+0x50>)
10005448:	00a4      	lsls	r4, r4, #2
1000544a:	46ac      	mov	ip, r5
1000544c:	0212      	lsls	r2, r2, #8
1000544e:	4464      	add	r4, ip
10005450:	431a      	orrs	r2, r3
10005452:	6021      	str	r1, [r4, #0]
10005454:	2108      	movs	r1, #8
10005456:	6062      	str	r2, [r4, #4]
10005458:	f7fe fb1e 	bl	10003a98 <gpio_set_function>
1000545c:	bd70      	pop	{r4, r5, r6, pc}
1000545e:	2501      	movs	r5, #1
10005460:	e7eb      	b.n	1000543a <clock_gpio_init_int_frac+0x1e>
10005462:	2500      	movs	r5, #0
10005464:	e7e9      	b.n	1000543a <clock_gpio_init_int_frac+0x1e>
10005466:	2502      	movs	r5, #2
10005468:	e7e7      	b.n	1000543a <clock_gpio_init_int_frac+0x1e>
1000546a:	46c0      	nop			@ (mov r8, r8)
1000546c:	40008000 	.word	0x40008000

10005470 <pll_init>:
10005470:	b5f8      	push	{r3, r4, r5, r6, r7, lr}
10005472:	0004      	movs	r4, r0
10005474:	4821      	ldr	r0, [pc, #132]	@ (100054fc <pll_init+0x8c>)
10005476:	001d      	movs	r5, r3
10005478:	0017      	movs	r7, r2
1000547a:	000e      	movs	r6, r1
1000547c:	f001 fd5a 	bl	10006f34 <__wrap___aeabi_uidiv>
10005480:	0001      	movs	r1, r0
10005482:	0038      	movs	r0, r7
10005484:	f001 fd56 	bl	10006f34 <__wrap___aeabi_uidiv>
10005488:	9b06      	ldr	r3, [sp, #24]
1000548a:	0429      	lsls	r1, r5, #16
1000548c:	031b      	lsls	r3, r3, #12
1000548e:	4319      	orrs	r1, r3
10005490:	6823      	ldr	r3, [r4, #0]
10005492:	2b00      	cmp	r3, #0
10005494:	db20      	blt.n	100054d8 <pll_init+0x68>
10005496:	4b1a      	ldr	r3, [pc, #104]	@ (10005500 <pll_init+0x90>)
10005498:	4d1a      	ldr	r5, [pc, #104]	@ (10005504 <pll_init+0x94>)
1000549a:	18e2      	adds	r2, r4, r3
1000549c:	4253      	negs	r3, r2
1000549e:	415a      	adcs	r2, r3
100054a0:	2380      	movs	r3, #128	@ 0x80
100054a2:	015b      	lsls	r3, r3, #5
100054a4:	469c      	mov	ip, r3
100054a6:	0312      	lsls	r2, r2, #12
100054a8:	4b17      	ldr	r3, [pc, #92]	@ (10005508 <pll_init+0x98>)
100054aa:	4462      	add	r2, ip
100054ac:	601a      	str	r2, [r3, #0]
100054ae:	4b17      	ldr	r3, [pc, #92]	@ (1000550c <pll_init+0x9c>)
100054b0:	601a      	str	r2, [r3, #0]
100054b2:	0017      	movs	r7, r2
100054b4:	68ab      	ldr	r3, [r5, #8]
100054b6:	439f      	bics	r7, r3
100054b8:	d1fb      	bne.n	100054b2 <pll_init+0x42>
100054ba:	22c0      	movs	r2, #192	@ 0xc0
100054bc:	1d23      	adds	r3, r4, #4
100054be:	0192      	lsls	r2, r2, #6
100054c0:	431a      	orrs	r2, r3
100054c2:	2321      	movs	r3, #33	@ 0x21
100054c4:	6026      	str	r6, [r4, #0]
100054c6:	60a0      	str	r0, [r4, #8]
100054c8:	6013      	str	r3, [r2, #0]
100054ca:	6823      	ldr	r3, [r4, #0]
100054cc:	2b00      	cmp	r3, #0
100054ce:	dafc      	bge.n	100054ca <pll_init+0x5a>
100054d0:	2308      	movs	r3, #8
100054d2:	60e1      	str	r1, [r4, #12]
100054d4:	6013      	str	r3, [r2, #0]
100054d6:	bdf8      	pop	{r3, r4, r5, r6, r7, pc}
100054d8:	233f      	movs	r3, #63	@ 0x3f
100054da:	6822      	ldr	r2, [r4, #0]
100054dc:	4013      	ands	r3, r2
100054de:	42b3      	cmp	r3, r6
100054e0:	d1d9      	bne.n	10005496 <pll_init+0x26>
100054e2:	68a3      	ldr	r3, [r4, #8]
100054e4:	051b      	lsls	r3, r3, #20
100054e6:	0d1b      	lsrs	r3, r3, #20
100054e8:	4283      	cmp	r3, r0
100054ea:	d1d4      	bne.n	10005496 <pll_init+0x26>
100054ec:	22ee      	movs	r2, #238	@ 0xee
100054ee:	68e3      	ldr	r3, [r4, #12]
100054f0:	02d2      	lsls	r2, r2, #11
100054f2:	4013      	ands	r3, r2
100054f4:	428b      	cmp	r3, r1
100054f6:	d1ce      	bne.n	10005496 <pll_init+0x26>
100054f8:	e7ed      	b.n	100054d6 <pll_init+0x66>
100054fa:	46c0      	nop			@ (mov r8, r8)
100054fc:	00b71b00 	.word	0x00b71b00
10005500:	bffd4000 	.word	0xbffd4000
10005504:	4000c000 	.word	0x4000c000
10005508:	4000e000 	.word	0x4000e000
1000550c:	4000f000 	.word	0x4000f000

10005510 <watchdog_start_tick>:
10005510:	2380      	movs	r3, #128	@ 0x80
10005512:	4a02      	ldr	r2, [pc, #8]	@ (1000551c <watchdog_start_tick+0xc>)
10005514:	009b      	lsls	r3, r3, #2
10005516:	4303      	orrs	r3, r0
10005518:	62d3      	str	r3, [r2, #44]	@ 0x2c
1000551a:	4770      	bx	lr
1000551c:	40058000 	.word	0x40058000

10005520 <watchdog_reboot>:
10005520:	b510      	push	{r4, lr}
10005522:	2480      	movs	r4, #128	@ 0x80
10005524:	4b1c      	ldr	r3, [pc, #112]	@ (10005598 <watchdog_reboot+0x78>)
10005526:	05e4      	lsls	r4, r4, #23
10005528:	601c      	str	r4, [r3, #0]
1000552a:	2800      	cmp	r0, #0
1000552c:	d01a      	beq.n	10005564 <watchdog_reboot+0x44>
1000552e:	2301      	movs	r3, #1
10005530:	4c1a      	ldr	r4, [pc, #104]	@ (1000559c <watchdog_reboot+0x7c>)
10005532:	4318      	orrs	r0, r3
10005534:	4b1a      	ldr	r3, [pc, #104]	@ (100055a0 <watchdog_reboot+0x80>)
10005536:	61dc      	str	r4, [r3, #28]
10005538:	4c1a      	ldr	r4, [pc, #104]	@ (100055a4 <watchdog_reboot+0x84>)
1000553a:	4044      	eors	r4, r0
1000553c:	621c      	str	r4, [r3, #32]
1000553e:	6259      	str	r1, [r3, #36]	@ 0x24
10005540:	6298      	str	r0, [r3, #40]	@ 0x28
10005542:	2180      	movs	r1, #128	@ 0x80
10005544:	4b14      	ldr	r3, [pc, #80]	@ (10005598 <watchdog_reboot+0x78>)
10005546:	05c9      	lsls	r1, r1, #23
10005548:	6019      	str	r1, [r3, #0]
1000554a:	4817      	ldr	r0, [pc, #92]	@ (100055a8 <watchdog_reboot+0x88>)
1000554c:	4917      	ldr	r1, [pc, #92]	@ (100055ac <watchdog_reboot+0x8c>)
1000554e:	6008      	str	r0, [r1, #0]
10005550:	21e0      	movs	r1, #224	@ 0xe0
10005552:	04c9      	lsls	r1, r1, #19
10005554:	6019      	str	r1, [r3, #0]
10005556:	2a00      	cmp	r2, #0
10005558:	d107      	bne.n	1000556a <watchdog_reboot+0x4a>
1000555a:	2280      	movs	r2, #128	@ 0x80
1000555c:	4b14      	ldr	r3, [pc, #80]	@ (100055b0 <watchdog_reboot+0x90>)
1000555e:	0612      	lsls	r2, r2, #24
10005560:	601a      	str	r2, [r3, #0]
10005562:	bd10      	pop	{r4, pc}
10005564:	4b0e      	ldr	r3, [pc, #56]	@ (100055a0 <watchdog_reboot+0x80>)
10005566:	61d8      	str	r0, [r3, #28]
10005568:	e7eb      	b.n	10005542 <watchdog_reboot+0x22>
1000556a:	0153      	lsls	r3, r2, #5
1000556c:	1a9b      	subs	r3, r3, r2
1000556e:	009b      	lsls	r3, r3, #2
10005570:	189a      	adds	r2, r3, r2
10005572:	2380      	movs	r3, #128	@ 0x80
10005574:	0112      	lsls	r2, r2, #4
10005576:	045b      	lsls	r3, r3, #17
10005578:	429a      	cmp	r2, r3
1000557a:	d209      	bcs.n	10005590 <watchdog_reboot+0x70>
1000557c:	0013      	movs	r3, r2
1000557e:	490d      	ldr	r1, [pc, #52]	@ (100055b4 <watchdog_reboot+0x94>)
10005580:	600b      	str	r3, [r1, #0]
10005582:	4b07      	ldr	r3, [pc, #28]	@ (100055a0 <watchdog_reboot+0x80>)
10005584:	605a      	str	r2, [r3, #4]
10005586:	2280      	movs	r2, #128	@ 0x80
10005588:	4b09      	ldr	r3, [pc, #36]	@ (100055b0 <watchdog_reboot+0x90>)
1000558a:	05d2      	lsls	r2, r2, #23
1000558c:	601a      	str	r2, [r3, #0]
1000558e:	e7e8      	b.n	10005562 <watchdog_reboot+0x42>
10005590:	4b09      	ldr	r3, [pc, #36]	@ (100055b8 <watchdog_reboot+0x98>)
10005592:	001a      	movs	r2, r3
10005594:	e7f3      	b.n	1000557e <watchdog_reboot+0x5e>
10005596:	46c0      	nop			@ (mov r8, r8)
10005598:	4005b000 	.word	0x4005b000
1000559c:	b007c0d3 	.word	0xb007c0d3
100055a0:	40058000 	.word	0x40058000
100055a4:	4ff83f2d 	.word	0x4ff83f2d
100055a8:	0001fffc 	.word	0x0001fffc
100055ac:	40012008 	.word	0x40012008
100055b0:	4005a000 	.word	0x4005a000
100055b4:	2003f274 	.word	0x2003f274
100055b8:	00ffffff 	.word	0x00ffffff

100055bc <xosc_init>:
100055bc:	23aa      	movs	r3, #170	@ 0xaa
100055be:	4a06      	ldr	r2, [pc, #24]	@ (100055d8 <xosc_init+0x1c>)
100055c0:	011b      	lsls	r3, r3, #4
100055c2:	6013      	str	r3, [r2, #0]
100055c4:	232f      	movs	r3, #47	@ 0x2f
100055c6:	4905      	ldr	r1, [pc, #20]	@ (100055dc <xosc_init+0x20>)
100055c8:	60d3      	str	r3, [r2, #12]
100055ca:	4b05      	ldr	r3, [pc, #20]	@ (100055e0 <xosc_init+0x24>)
100055cc:	6019      	str	r1, [r3, #0]
100055ce:	6853      	ldr	r3, [r2, #4]
100055d0:	2b00      	cmp	r3, #0
100055d2:	dafc      	bge.n	100055ce <xosc_init+0x12>
100055d4:	4770      	bx	lr
100055d6:	46c0      	nop			@ (mov r8, r8)
100055d8:	40024000 	.word	0x40024000
100055dc:	00fab000 	.word	0x00fab000
100055e0:	40026000 	.word	0x40026000

100055e4 <runtime_init>:
100055e4:	4b2b      	ldr	r3, [pc, #172]	@ (10005694 <runtime_init+0xb0>)
100055e6:	4a2c      	ldr	r2, [pc, #176]	@ (10005698 <runtime_init+0xb4>)
100055e8:	b570      	push	{r4, r5, r6, lr}
100055ea:	601a      	str	r2, [r3, #0]
100055ec:	4a2b      	ldr	r2, [pc, #172]	@ (1000569c <runtime_init+0xb8>)
100055ee:	4b2c      	ldr	r3, [pc, #176]	@ (100056a0 <runtime_init+0xbc>)
100055f0:	492c      	ldr	r1, [pc, #176]	@ (100056a4 <runtime_init+0xc0>)
100055f2:	601a      	str	r2, [r3, #0]
100055f4:	0014      	movs	r4, r2
100055f6:	688b      	ldr	r3, [r1, #8]
100055f8:	439c      	bics	r4, r3
100055fa:	d1fb      	bne.n	100055f4 <runtime_init+0x10>
100055fc:	4d2a      	ldr	r5, [pc, #168]	@ (100056a8 <runtime_init+0xc4>)
100055fe:	4e2b      	ldr	r6, [pc, #172]	@ (100056ac <runtime_init+0xc8>)
10005600:	42b5      	cmp	r5, r6
10005602:	d208      	bcs.n	10005616 <runtime_init+0x32>
10005604:	3e01      	subs	r6, #1
10005606:	1b76      	subs	r6, r6, r5
10005608:	08b6      	lsrs	r6, r6, #2
1000560a:	cd08      	ldmia	r5!, {r3}
1000560c:	4798      	blx	r3
1000560e:	0023      	movs	r3, r4
10005610:	3401      	adds	r4, #1
10005612:	42b3      	cmp	r3, r6
10005614:	d1f9      	bne.n	1000560a <runtime_init+0x26>
10005616:	f7ff fd73 	bl	10005100 <clocks_init>
1000561a:	4a25      	ldr	r2, [pc, #148]	@ (100056b0 <runtime_init+0xcc>)
1000561c:	4b20      	ldr	r3, [pc, #128]	@ (100056a0 <runtime_init+0xbc>)
1000561e:	601a      	str	r2, [r3, #0]
10005620:	4a20      	ldr	r2, [pc, #128]	@ (100056a4 <runtime_init+0xc0>)
10005622:	6893      	ldr	r3, [r2, #8]
10005624:	43db      	mvns	r3, r3
10005626:	01db      	lsls	r3, r3, #7
10005628:	09dd      	lsrs	r5, r3, #7
1000562a:	2b00      	cmp	r3, #0
1000562c:	d1f9      	bne.n	10005622 <runtime_init+0x3e>
1000562e:	2240      	movs	r2, #64	@ 0x40
10005630:	4b20      	ldr	r3, [pc, #128]	@ (100056b4 <runtime_init+0xd0>)
10005632:	4e21      	ldr	r6, [pc, #132]	@ (100056b8 <runtime_init+0xd4>)
10005634:	4c21      	ldr	r4, [pc, #132]	@ (100056bc <runtime_init+0xd8>)
10005636:	679a      	str	r2, [r3, #120]	@ 0x78
10005638:	675a      	str	r2, [r3, #116]	@ 0x74
1000563a:	671a      	str	r2, [r3, #112]	@ 0x70
1000563c:	66da      	str	r2, [r3, #108]	@ 0x6c
1000563e:	42b4      	cmp	r4, r6
10005640:	d208      	bcs.n	10005654 <runtime_init+0x70>
10005642:	6823      	ldr	r3, [r4, #0]
10005644:	0020      	movs	r0, r4
10005646:	3408      	adds	r4, #8
10005648:	2b00      	cmp	r3, #0
1000564a:	d01f      	beq.n	1000568c <runtime_init+0xa8>
1000564c:	f7fe fdec 	bl	10004228 <recursive_mutex_init>
10005650:	42b4      	cmp	r4, r6
10005652:	d3f6      	bcc.n	10005642 <runtime_init+0x5e>
10005654:	4c1a      	ldr	r4, [pc, #104]	@ (100056c0 <runtime_init+0xdc>)
10005656:	4e1b      	ldr	r6, [pc, #108]	@ (100056c4 <runtime_init+0xe0>)
10005658:	22c0      	movs	r2, #192	@ 0xc0
1000565a:	68b1      	ldr	r1, [r6, #8]
1000565c:	0020      	movs	r0, r4
1000565e:	f002 fc53 	bl	10007f08 <__wrap___aeabi_memcpy>
10005662:	60b4      	str	r4, [r6, #8]
10005664:	f7fe fadc 	bl	10003c20 <spin_locks_reset>
10005668:	f7fe fda0 	bl	100041ac <irq_init_priorities>
1000566c:	f7fe ff90 	bl	10004590 <alarm_pool_init_default>
10005670:	4c15      	ldr	r4, [pc, #84]	@ (100056c8 <runtime_init+0xe4>)
10005672:	4e16      	ldr	r6, [pc, #88]	@ (100056cc <runtime_init+0xe8>)
10005674:	42b4      	cmp	r4, r6
10005676:	d208      	bcs.n	1000568a <runtime_init+0xa6>
10005678:	3e01      	subs	r6, #1
1000567a:	1b36      	subs	r6, r6, r4
1000567c:	08b6      	lsrs	r6, r6, #2
1000567e:	cc08      	ldmia	r4!, {r3}
10005680:	4798      	blx	r3
10005682:	002b      	movs	r3, r5
10005684:	3501      	adds	r5, #1
10005686:	429e      	cmp	r6, r3
10005688:	d1f9      	bne.n	1000567e <runtime_init+0x9a>
1000568a:	bd70      	pop	{r4, r5, r6, pc}
1000568c:	f7fe fdbe 	bl	1000420c <mutex_init>
10005690:	e7d5      	b.n	1000563e <runtime_init+0x5a>
10005692:	46c0      	nop			@ (mov r8, r8)
10005694:	4000e000 	.word	0x4000e000
10005698:	fefbcdbf 	.word	0xfefbcdbf
1000569c:	003c7ffe 	.word	0x003c7ffe
100056a0:	4000f000 	.word	0x4000f000
100056a4:	4000c000 	.word	0x4000c000
100056a8:	2000150c 	.word	0x2000150c
100056ac:	2000151c 	.word	0x2000151c
100056b0:	01ffffff 	.word	0x01ffffff
100056b4:	4001f000 	.word	0x4001f000
100056b8:	2000150c 	.word	0x2000150c
100056bc:	200014fc 	.word	0x200014fc
100056c0:	20000000 	.word	0x20000000
100056c4:	e000ed00 	.word	0xe000ed00
100056c8:	2000151c 	.word	0x2000151c
100056cc:	20001528 	.word	0x20001528

100056d0 <_exit>:
100056d0:	be00      	bkpt	0x0000
100056d2:	e7fd      	b.n	100056d0 <_exit>

100056d4 <exit>:
100056d4:	b510      	push	{r4, lr}
100056d6:	f7ff fffb 	bl	100056d0 <_exit>
100056da:	46c0      	nop			@ (mov r8, r8)

100056dc <panic>:
100056dc:	b40f      	push	{r0, r1, r2, r3}
100056de:	b500      	push	{lr}
100056e0:	4808      	ldr	r0, [pc, #32]	@ (10005704 <panic+0x28>)
100056e2:	b083      	sub	sp, #12
100056e4:	f002 fcde 	bl	100080a4 <__wrap_puts>
100056e8:	9b04      	ldr	r3, [sp, #16]
100056ea:	2b00      	cmp	r3, #0
100056ec:	d007      	beq.n	100056fe <panic+0x22>
100056ee:	a905      	add	r1, sp, #20
100056f0:	0018      	movs	r0, r3
100056f2:	9101      	str	r1, [sp, #4]
100056f4:	f001 fb9e 	bl	10006e34 <weak_raw_vprintf>
100056f8:	4803      	ldr	r0, [pc, #12]	@ (10005708 <panic+0x2c>)
100056fa:	f002 fcd3 	bl	100080a4 <__wrap_puts>
100056fe:	2001      	movs	r0, #1
10005700:	f7ff ffe6 	bl	100056d0 <_exit>
10005704:	1000b3cc 	.word	0x1000b3cc
10005708:	1000b0d4 	.word	0x1000b0d4

1000570c <hard_assertion_failure>:
1000570c:	b510      	push	{r4, lr}
1000570e:	4801      	ldr	r0, [pc, #4]	@ (10005714 <hard_assertion_failure+0x8>)
10005710:	f7ff ffe4 	bl	100056dc <panic>
10005714:	1000b3dc 	.word	0x1000b3dc

10005718 <_out_null>:
10005718:	4770      	bx	lr
1000571a:	46c0      	nop			@ (mov r8, r8)

1000571c <_out_rev>:
1000571c:	b5f8      	push	{r3, r4, r5, r6, r7, lr}
1000571e:	4657      	mov	r7, sl
10005720:	4645      	mov	r5, r8
10005722:	46de      	mov	lr, fp
10005724:	464e      	mov	r6, r9
10005726:	b5e0      	push	{r5, r6, r7, lr}
10005728:	4698      	mov	r8, r3
1000572a:	9b0a      	ldr	r3, [sp, #40]	@ 0x28
1000572c:	0006      	movs	r6, r0
1000572e:	469a      	mov	sl, r3
10005730:	9b0d      	ldr	r3, [sp, #52]	@ 0x34
10005732:	000f      	movs	r7, r1
10005734:	4693      	mov	fp, r2
10005736:	0015      	movs	r5, r2
10005738:	079b      	lsls	r3, r3, #30
1000573a:	d110      	bne.n	1000575e <_out_rev+0x42>
1000573c:	9b0b      	ldr	r3, [sp, #44]	@ 0x2c
1000573e:	9a0c      	ldr	r2, [sp, #48]	@ 0x30
10005740:	4293      	cmp	r3, r2
10005742:	d20c      	bcs.n	1000575e <_out_rev+0x42>
10005744:	0013      	movs	r3, r2
10005746:	465c      	mov	r4, fp
10005748:	9a0b      	ldr	r2, [sp, #44]	@ 0x2c
1000574a:	1a9d      	subs	r5, r3, r2
1000574c:	445d      	add	r5, fp
1000574e:	0022      	movs	r2, r4
10005750:	4643      	mov	r3, r8
10005752:	3401      	adds	r4, #1
10005754:	0039      	movs	r1, r7
10005756:	2020      	movs	r0, #32
10005758:	47b0      	blx	r6
1000575a:	42a5      	cmp	r5, r4
1000575c:	d1f7      	bne.n	1000574e <_out_rev+0x32>
1000575e:	9c0b      	ldr	r4, [sp, #44]	@ 0x2c
10005760:	1963      	adds	r3, r4, r5
10005762:	2c00      	cmp	r4, #0
10005764:	d009      	beq.n	1000577a <_out_rev+0x5e>
10005766:	001d      	movs	r5, r3
10005768:	4653      	mov	r3, sl
1000576a:	1b2a      	subs	r2, r5, r4
1000576c:	3c01      	subs	r4, #1
1000576e:	5d18      	ldrb	r0, [r3, r4]
10005770:	0039      	movs	r1, r7
10005772:	4643      	mov	r3, r8
10005774:	47b0      	blx	r6
10005776:	2c00      	cmp	r4, #0
10005778:	d1f6      	bne.n	10005768 <_out_rev+0x4c>
1000577a:	9b0d      	ldr	r3, [sp, #52]	@ 0x34
1000577c:	079b      	lsls	r3, r3, #30
1000577e:	d50e      	bpl.n	1000579e <_out_rev+0x82>
10005780:	465b      	mov	r3, fp
10005782:	1aec      	subs	r4, r5, r3
10005784:	9b0c      	ldr	r3, [sp, #48]	@ 0x30
10005786:	42a3      	cmp	r3, r4
10005788:	d909      	bls.n	1000579e <_out_rev+0x82>
1000578a:	4699      	mov	r9, r3
1000578c:	002a      	movs	r2, r5
1000578e:	4643      	mov	r3, r8
10005790:	0039      	movs	r1, r7
10005792:	2020      	movs	r0, #32
10005794:	3401      	adds	r4, #1
10005796:	47b0      	blx	r6
10005798:	3501      	adds	r5, #1
1000579a:	45a1      	cmp	r9, r4
1000579c:	d8f6      	bhi.n	1000578c <_out_rev+0x70>
1000579e:	0028      	movs	r0, r5
100057a0:	bcf0      	pop	{r4, r5, r6, r7}
100057a2:	46bb      	mov	fp, r7
100057a4:	46b2      	mov	sl, r6
100057a6:	46a9      	mov	r9, r5
100057a8:	46a0      	mov	r8, r4
100057aa:	bdf8      	pop	{r3, r4, r5, r6, r7, pc}

100057ac <_ntoa_format>:
100057ac:	b5f0      	push	{r4, r5, r6, r7, lr}
100057ae:	464f      	mov	r7, r9
100057b0:	4646      	mov	r6, r8
100057b2:	46d6      	mov	lr, sl
100057b4:	b5c0      	push	{r6, r7, lr}
100057b6:	b084      	sub	sp, #16
100057b8:	4698      	mov	r8, r3
100057ba:	ab0e      	add	r3, sp, #56	@ 0x38
100057bc:	781b      	ldrb	r3, [r3, #0]
100057be:	4694      	mov	ip, r2
100057c0:	4699      	mov	r9, r3
100057c2:	9b12      	ldr	r3, [sp, #72]	@ 0x48
100057c4:	9c0d      	ldr	r4, [sp, #52]	@ 0x34
100057c6:	9f10      	ldr	r7, [sp, #64]	@ 0x40
100057c8:	9e11      	ldr	r6, [sp, #68]	@ 0x44
100057ca:	079a      	lsls	r2, r3, #30
100057cc:	d424      	bmi.n	10005818 <_ntoa_format+0x6c>
100057ce:	2e00      	cmp	r6, #0
100057d0:	d16a      	bne.n	100058a8 <_ntoa_format+0xfc>
100057d2:	42bc      	cmp	r4, r7
100057d4:	d220      	bcs.n	10005818 <_ntoa_format+0x6c>
100057d6:	2201      	movs	r2, #1
100057d8:	401a      	ands	r2, r3
100057da:	4692      	mov	sl, r2
100057dc:	2c20      	cmp	r4, #32
100057de:	d100      	bne.n	100057e2 <_ntoa_format+0x36>
100057e0:	e0d2      	b.n	10005988 <_ntoa_format+0x1dc>
100057e2:	9a0c      	ldr	r2, [sp, #48]	@ 0x30
100057e4:	1e55      	subs	r5, r2, #1
100057e6:	2230      	movs	r2, #48	@ 0x30
100057e8:	e001      	b.n	100057ee <_ntoa_format+0x42>
100057ea:	2c20      	cmp	r4, #32
100057ec:	d030      	beq.n	10005850 <_ntoa_format+0xa4>
100057ee:	3401      	adds	r4, #1
100057f0:	552a      	strb	r2, [r5, r4]
100057f2:	42a7      	cmp	r7, r4
100057f4:	d8f9      	bhi.n	100057ea <_ntoa_format+0x3e>
100057f6:	4652      	mov	r2, sl
100057f8:	2a00      	cmp	r2, #0
100057fa:	d00d      	beq.n	10005818 <_ntoa_format+0x6c>
100057fc:	42b4      	cmp	r4, r6
100057fe:	d20b      	bcs.n	10005818 <_ntoa_format+0x6c>
10005800:	9a0c      	ldr	r2, [sp, #48]	@ 0x30
10005802:	1e55      	subs	r5, r2, #1
10005804:	2230      	movs	r2, #48	@ 0x30
10005806:	2c20      	cmp	r4, #32
10005808:	d102      	bne.n	10005810 <_ntoa_format+0x64>
1000580a:	e026      	b.n	1000585a <_ntoa_format+0xae>
1000580c:	2c20      	cmp	r4, #32
1000580e:	d063      	beq.n	100058d8 <_ntoa_format+0x12c>
10005810:	3401      	adds	r4, #1
10005812:	552a      	strb	r2, [r5, r4]
10005814:	42b4      	cmp	r4, r6
10005816:	d1f9      	bne.n	1000580c <_ntoa_format+0x60>
10005818:	06da      	lsls	r2, r3, #27
1000581a:	d534      	bpl.n	10005886 <_ntoa_format+0xda>
1000581c:	055a      	lsls	r2, r3, #21
1000581e:	d464      	bmi.n	100058ea <_ntoa_format+0x13e>
10005820:	2c00      	cmp	r4, #0
10005822:	d15e      	bne.n	100058e2 <_ntoa_format+0x136>
10005824:	9a0f      	ldr	r2, [sp, #60]	@ 0x3c
10005826:	2a10      	cmp	r2, #16
10005828:	d100      	bne.n	1000582c <_ntoa_format+0x80>
1000582a:	e097      	b.n	1000595c <_ntoa_format+0x1b0>
1000582c:	2a02      	cmp	r2, #2
1000582e:	d100      	bne.n	10005832 <_ntoa_format+0x86>
10005830:	e0a8      	b.n	10005984 <_ntoa_format+0x1d8>
10005832:	2230      	movs	r2, #48	@ 0x30
10005834:	9c0c      	ldr	r4, [sp, #48]	@ 0x30
10005836:	7022      	strb	r2, [r4, #0]
10005838:	2401      	movs	r4, #1
1000583a:	464a      	mov	r2, r9
1000583c:	2a00      	cmp	r2, #0
1000583e:	d15e      	bne.n	100058fe <_ntoa_format+0x152>
10005840:	075a      	lsls	r2, r3, #29
10005842:	d400      	bmi.n	10005846 <_ntoa_format+0x9a>
10005844:	e083      	b.n	1000594e <_ntoa_format+0x1a2>
10005846:	222b      	movs	r2, #43	@ 0x2b
10005848:	9d0c      	ldr	r5, [sp, #48]	@ 0x30
1000584a:	552a      	strb	r2, [r5, r4]
1000584c:	3401      	adds	r4, #1
1000584e:	e01c      	b.n	1000588a <_ntoa_format+0xde>
10005850:	4652      	mov	r2, sl
10005852:	2a00      	cmp	r2, #0
10005854:	d002      	beq.n	1000585c <_ntoa_format+0xb0>
10005856:	2e20      	cmp	r6, #32
10005858:	d93e      	bls.n	100058d8 <_ntoa_format+0x12c>
1000585a:	2420      	movs	r4, #32
1000585c:	06da      	lsls	r2, r3, #27
1000585e:	d514      	bpl.n	1000588a <_ntoa_format+0xde>
10005860:	055a      	lsls	r2, r3, #21
10005862:	d412      	bmi.n	1000588a <_ntoa_format+0xde>
10005864:	2f20      	cmp	r7, #32
10005866:	d100      	bne.n	1000586a <_ntoa_format+0xbe>
10005868:	e0a1      	b.n	100059ae <_ntoa_format+0x202>
1000586a:	2e20      	cmp	r6, #32
1000586c:	d13d      	bne.n	100058ea <_ntoa_format+0x13e>
1000586e:	2620      	movs	r6, #32
10005870:	221f      	movs	r2, #31
10005872:	0034      	movs	r4, r6
10005874:	9d0f      	ldr	r5, [sp, #60]	@ 0x3c
10005876:	2d10      	cmp	r5, #16
10005878:	d100      	bne.n	1000587c <_ntoa_format+0xd0>
1000587a:	e08b      	b.n	10005994 <_ntoa_format+0x1e8>
1000587c:	2d02      	cmp	r5, #2
1000587e:	d052      	beq.n	10005926 <_ntoa_format+0x17a>
10005880:	2530      	movs	r5, #48	@ 0x30
10005882:	9f0c      	ldr	r7, [sp, #48]	@ 0x30
10005884:	54bd      	strb	r5, [r7, r2]
10005886:	2c20      	cmp	r4, #32
10005888:	d1d7      	bne.n	1000583a <_ntoa_format+0x8e>
1000588a:	9303      	str	r3, [sp, #12]
1000588c:	9b0c      	ldr	r3, [sp, #48]	@ 0x30
1000588e:	4662      	mov	r2, ip
10005890:	9300      	str	r3, [sp, #0]
10005892:	9602      	str	r6, [sp, #8]
10005894:	4643      	mov	r3, r8
10005896:	9401      	str	r4, [sp, #4]
10005898:	f7ff ff40 	bl	1000571c <_out_rev>
1000589c:	b004      	add	sp, #16
1000589e:	bce0      	pop	{r5, r6, r7}
100058a0:	46ba      	mov	sl, r7
100058a2:	46b1      	mov	r9, r6
100058a4:	46a8      	mov	r8, r5
100058a6:	bdf0      	pop	{r4, r5, r6, r7, pc}
100058a8:	2201      	movs	r2, #1
100058aa:	0015      	movs	r5, r2
100058ac:	401d      	ands	r5, r3
100058ae:	46aa      	mov	sl, r5
100058b0:	421a      	tst	r2, r3
100058b2:	d029      	beq.n	10005908 <_ntoa_format+0x15c>
100058b4:	464a      	mov	r2, r9
100058b6:	2a00      	cmp	r2, #0
100058b8:	d139      	bne.n	1000592e <_ntoa_format+0x182>
100058ba:	320c      	adds	r2, #12
100058bc:	421a      	tst	r2, r3
100058be:	d136      	bne.n	1000592e <_ntoa_format+0x182>
100058c0:	42bc      	cmp	r4, r7
100058c2:	d29b      	bcs.n	100057fc <_ntoa_format+0x50>
100058c4:	2c20      	cmp	r4, #32
100058c6:	d000      	beq.n	100058ca <_ntoa_format+0x11e>
100058c8:	e78b      	b.n	100057e2 <_ntoa_format+0x36>
100058ca:	2210      	movs	r2, #16
100058cc:	401a      	ands	r2, r3
100058ce:	2e20      	cmp	r6, #32
100058d0:	d8c3      	bhi.n	1000585a <_ntoa_format+0xae>
100058d2:	2a00      	cmp	r2, #0
100058d4:	d1a2      	bne.n	1000581c <_ntoa_format+0x70>
100058d6:	e7d8      	b.n	1000588a <_ntoa_format+0xde>
100058d8:	2420      	movs	r4, #32
100058da:	06da      	lsls	r2, r3, #27
100058dc:	d5d5      	bpl.n	1000588a <_ntoa_format+0xde>
100058de:	055a      	lsls	r2, r3, #21
100058e0:	d403      	bmi.n	100058ea <_ntoa_format+0x13e>
100058e2:	42a7      	cmp	r7, r4
100058e4:	d025      	beq.n	10005932 <_ntoa_format+0x186>
100058e6:	42b4      	cmp	r4, r6
100058e8:	d023      	beq.n	10005932 <_ntoa_format+0x186>
100058ea:	9a0f      	ldr	r2, [sp, #60]	@ 0x3c
100058ec:	2a10      	cmp	r2, #16
100058ee:	d025      	beq.n	1000593c <_ntoa_format+0x190>
100058f0:	2a02      	cmp	r2, #2
100058f2:	d014      	beq.n	1000591e <_ntoa_format+0x172>
100058f4:	2c20      	cmp	r4, #32
100058f6:	d0c8      	beq.n	1000588a <_ntoa_format+0xde>
100058f8:	0022      	movs	r2, r4
100058fa:	3401      	adds	r4, #1
100058fc:	e7c0      	b.n	10005880 <_ntoa_format+0xd4>
100058fe:	222d      	movs	r2, #45	@ 0x2d
10005900:	9d0c      	ldr	r5, [sp, #48]	@ 0x30
10005902:	552a      	strb	r2, [r5, r4]
10005904:	3401      	adds	r4, #1
10005906:	e7c0      	b.n	1000588a <_ntoa_format+0xde>
10005908:	42bc      	cmp	r4, r7
1000590a:	d300      	bcc.n	1000590e <_ntoa_format+0x162>
1000590c:	e784      	b.n	10005818 <_ntoa_format+0x6c>
1000590e:	2c20      	cmp	r4, #32
10005910:	d000      	beq.n	10005914 <_ntoa_format+0x168>
10005912:	e766      	b.n	100057e2 <_ntoa_format+0x36>
10005914:	2210      	movs	r2, #16
10005916:	401a      	ands	r2, r3
10005918:	2a00      	cmp	r2, #0
1000591a:	d1e0      	bne.n	100058de <_ntoa_format+0x132>
1000591c:	e7b5      	b.n	1000588a <_ntoa_format+0xde>
1000591e:	2c20      	cmp	r4, #32
10005920:	d0b3      	beq.n	1000588a <_ntoa_format+0xde>
10005922:	0022      	movs	r2, r4
10005924:	3401      	adds	r4, #1
10005926:	2562      	movs	r5, #98	@ 0x62
10005928:	9f0c      	ldr	r7, [sp, #48]	@ 0x30
1000592a:	54bd      	strb	r5, [r7, r2]
1000592c:	e7e2      	b.n	100058f4 <_ntoa_format+0x148>
1000592e:	3e01      	subs	r6, #1
10005930:	e7c6      	b.n	100058c0 <_ntoa_format+0x114>
10005932:	1e62      	subs	r2, r4, #1
10005934:	2c01      	cmp	r4, #1
10005936:	d100      	bne.n	1000593a <_ntoa_format+0x18e>
10005938:	e774      	b.n	10005824 <_ntoa_format+0x78>
1000593a:	e79b      	b.n	10005874 <_ntoa_format+0xc8>
1000593c:	069a      	lsls	r2, r3, #26
1000593e:	d416      	bmi.n	1000596e <_ntoa_format+0x1c2>
10005940:	2c20      	cmp	r4, #32
10005942:	d0a2      	beq.n	1000588a <_ntoa_format+0xde>
10005944:	2278      	movs	r2, #120	@ 0x78
10005946:	9d0c      	ldr	r5, [sp, #48]	@ 0x30
10005948:	552a      	strb	r2, [r5, r4]
1000594a:	3401      	adds	r4, #1
1000594c:	e7d2      	b.n	100058f4 <_ntoa_format+0x148>
1000594e:	071a      	lsls	r2, r3, #28
10005950:	d59b      	bpl.n	1000588a <_ntoa_format+0xde>
10005952:	2220      	movs	r2, #32
10005954:	9d0c      	ldr	r5, [sp, #48]	@ 0x30
10005956:	552a      	strb	r2, [r5, r4]
10005958:	3401      	adds	r4, #1
1000595a:	e796      	b.n	1000588a <_ntoa_format+0xde>
1000595c:	069a      	lsls	r2, r3, #26
1000595e:	d40f      	bmi.n	10005980 <_ntoa_format+0x1d4>
10005960:	2278      	movs	r2, #120	@ 0x78
10005962:	9c0c      	ldr	r4, [sp, #48]	@ 0x30
10005964:	7022      	strb	r2, [r4, #0]
10005966:	2230      	movs	r2, #48	@ 0x30
10005968:	7062      	strb	r2, [r4, #1]
1000596a:	2402      	movs	r4, #2
1000596c:	e765      	b.n	1000583a <_ntoa_format+0x8e>
1000596e:	2c20      	cmp	r4, #32
10005970:	d100      	bne.n	10005974 <_ntoa_format+0x1c8>
10005972:	e78a      	b.n	1000588a <_ntoa_format+0xde>
10005974:	2558      	movs	r5, #88	@ 0x58
10005976:	9a0c      	ldr	r2, [sp, #48]	@ 0x30
10005978:	1912      	adds	r2, r2, r4
1000597a:	7015      	strb	r5, [r2, #0]
1000597c:	3401      	adds	r4, #1
1000597e:	e7b9      	b.n	100058f4 <_ntoa_format+0x148>
10005980:	2258      	movs	r2, #88	@ 0x58
10005982:	e7ee      	b.n	10005962 <_ntoa_format+0x1b6>
10005984:	2262      	movs	r2, #98	@ 0x62
10005986:	e7ec      	b.n	10005962 <_ntoa_format+0x1b6>
10005988:	2210      	movs	r2, #16
1000598a:	4655      	mov	r5, sl
1000598c:	401a      	ands	r2, r3
1000598e:	2d00      	cmp	r5, #0
10005990:	d19f      	bne.n	100058d2 <_ntoa_format+0x126>
10005992:	e7c1      	b.n	10005918 <_ntoa_format+0x16c>
10005994:	3c02      	subs	r4, #2
10005996:	069d      	lsls	r5, r3, #26
10005998:	d404      	bmi.n	100059a4 <_ntoa_format+0x1f8>
1000599a:	2578      	movs	r5, #120	@ 0x78
1000599c:	9f0c      	ldr	r7, [sp, #48]	@ 0x30
1000599e:	553d      	strb	r5, [r7, r4]
100059a0:	0014      	movs	r4, r2
100059a2:	e7a9      	b.n	100058f8 <_ntoa_format+0x14c>
100059a4:	2558      	movs	r5, #88	@ 0x58
100059a6:	9f0c      	ldr	r7, [sp, #48]	@ 0x30
100059a8:	553d      	strb	r5, [r7, r4]
100059aa:	0014      	movs	r4, r2
100059ac:	e7a4      	b.n	100058f8 <_ntoa_format+0x14c>
100059ae:	221f      	movs	r2, #31
100059b0:	e760      	b.n	10005874 <_ntoa_format+0xc8>
100059b2:	46c0      	nop			@ (mov r8, r8)

100059b4 <_out_char>:
100059b4:	b510      	push	{r4, lr}
100059b6:	2800      	cmp	r0, #0
100059b8:	d100      	bne.n	100059bc <_out_char+0x8>
100059ba:	bd10      	pop	{r4, pc}
100059bc:	f002 fb26 	bl	1000800c <__wrap_putchar>
100059c0:	e7fb      	b.n	100059ba <_out_char+0x6>
100059c2:	46c0      	nop			@ (mov r8, r8)

100059c4 <_out_fct>:
100059c4:	000b      	movs	r3, r1
100059c6:	b510      	push	{r4, lr}
100059c8:	2800      	cmp	r0, #0
100059ca:	d002      	beq.n	100059d2 <_out_fct+0xe>
100059cc:	6849      	ldr	r1, [r1, #4]
100059ce:	681b      	ldr	r3, [r3, #0]
100059d0:	4798      	blx	r3
100059d2:	bd10      	pop	{r4, pc}

100059d4 <_etoa>:
100059d4:	b5f0      	push	{r4, r5, r6, r7, lr}
100059d6:	4657      	mov	r7, sl
100059d8:	464e      	mov	r6, r9
100059da:	4645      	mov	r5, r8
100059dc:	46de      	mov	lr, fp
100059de:	b5e0      	push	{r5, r6, r7, lr}
100059e0:	b099      	sub	sp, #100	@ 0x64
100059e2:	4682      	mov	sl, r0
100059e4:	4689      	mov	r9, r1
100059e6:	4690      	mov	r8, r2
100059e8:	9308      	str	r3, [sp, #32]
100059ea:	9a22      	ldr	r2, [sp, #136]	@ 0x88
100059ec:	9b23      	ldr	r3, [sp, #140]	@ 0x8c
100059ee:	0010      	movs	r0, r2
100059f0:	0019      	movs	r1, r3
100059f2:	f001 fd60 	bl	100074b6 <__wrap___aeabi_dcmpun>
100059f6:	2800      	cmp	r0, #0
100059f8:	d000      	beq.n	100059fc <_etoa+0x28>
100059fa:	e0cd      	b.n	10005b98 <_etoa+0x1c4>
100059fc:	9822      	ldr	r0, [sp, #136]	@ 0x88
100059fe:	9923      	ldr	r1, [sp, #140]	@ 0x8c
10005a00:	2201      	movs	r2, #1
10005a02:	4bd9      	ldr	r3, [pc, #868]	@ (10005d68 <_etoa+0x394>)
10005a04:	4252      	negs	r2, r2
10005a06:	f001 fd51 	bl	100074ac <__wrap___aeabi_dcmpgt>
10005a0a:	2800      	cmp	r0, #0
10005a0c:	d000      	beq.n	10005a10 <_etoa+0x3c>
10005a0e:	e0c3      	b.n	10005b98 <_etoa+0x1c4>
10005a10:	9822      	ldr	r0, [sp, #136]	@ 0x88
10005a12:	9923      	ldr	r1, [sp, #140]	@ 0x8c
10005a14:	2201      	movs	r2, #1
10005a16:	4bd5      	ldr	r3, [pc, #852]	@ (10005d6c <_etoa+0x398>)
10005a18:	4252      	negs	r2, r2
10005a1a:	f001 fd39 	bl	10007490 <__wrap___aeabi_dcmplt>
10005a1e:	2800      	cmp	r0, #0
10005a20:	d000      	beq.n	10005a24 <_etoa+0x50>
10005a22:	e0b9      	b.n	10005b98 <_etoa+0x1c4>
10005a24:	9822      	ldr	r0, [sp, #136]	@ 0x88
10005a26:	9923      	ldr	r1, [sp, #140]	@ 0x8c
10005a28:	2200      	movs	r2, #0
10005a2a:	2300      	movs	r3, #0
10005a2c:	f001 fd30 	bl	10007490 <__wrap___aeabi_dcmplt>
10005a30:	2800      	cmp	r0, #0
10005a32:	d000      	beq.n	10005a36 <_etoa+0x62>
10005a34:	e1f1      	b.n	10005e1a <_etoa+0x446>
10005a36:	9e22      	ldr	r6, [sp, #136]	@ 0x88
10005a38:	9f23      	ldr	r7, [sp, #140]	@ 0x8c
10005a3a:	2380      	movs	r3, #128	@ 0x80
10005a3c:	9a26      	ldr	r2, [sp, #152]	@ 0x98
10005a3e:	00db      	lsls	r3, r3, #3
10005a40:	401a      	ands	r2, r3
10005a42:	920d      	str	r2, [sp, #52]	@ 0x34
10005a44:	9a26      	ldr	r2, [sp, #152]	@ 0x98
10005a46:	421a      	tst	r2, r3
10005a48:	d101      	bne.n	10005a4e <_etoa+0x7a>
10005a4a:	2306      	movs	r3, #6
10005a4c:	9324      	str	r3, [sp, #144]	@ 0x90
10005a4e:	2380      	movs	r3, #128	@ 0x80
10005a50:	9a26      	ldr	r2, [sp, #152]	@ 0x98
10005a52:	011b      	lsls	r3, r3, #4
10005a54:	401a      	ands	r2, r3
10005a56:	003b      	movs	r3, r7
10005a58:	4693      	mov	fp, r2
10005a5a:	9609      	str	r6, [sp, #36]	@ 0x24
10005a5c:	4333      	orrs	r3, r6
10005a5e:	d000      	beq.n	10005a62 <_etoa+0x8e>
10005a60:	e0b3      	b.n	10005bca <_etoa+0x1f6>
10005a62:	2a00      	cmp	r2, #0
10005a64:	d000      	beq.n	10005a68 <_etoa+0x94>
10005a66:	e1c2      	b.n	10005dee <_etoa+0x41a>
10005a68:	2300      	movs	r3, #0
10005a6a:	2400      	movs	r4, #0
10005a6c:	930a      	str	r3, [sp, #40]	@ 0x28
10005a6e:	940b      	str	r4, [sp, #44]	@ 0x2c
10005a70:	2300      	movs	r3, #0
10005a72:	2504      	movs	r5, #4
10005a74:	9309      	str	r3, [sp, #36]	@ 0x24
10005a76:	9b25      	ldr	r3, [sp, #148]	@ 0x94
10005a78:	2400      	movs	r4, #0
10005a7a:	42ab      	cmp	r3, r5
10005a7c:	d900      	bls.n	10005a80 <_etoa+0xac>
10005a7e:	1b5c      	subs	r4, r3, r5
10005a80:	2302      	movs	r3, #2
10005a82:	9a26      	ldr	r2, [sp, #152]	@ 0x98
10005a84:	401a      	ands	r2, r3
10005a86:	920c      	str	r2, [sp, #48]	@ 0x30
10005a88:	9a26      	ldr	r2, [sp, #152]	@ 0x98
10005a8a:	4213      	tst	r3, r2
10005a8c:	d003      	beq.n	10005a96 <_etoa+0xc2>
10005a8e:	426b      	negs	r3, r5
10005a90:	416b      	adcs	r3, r5
10005a92:	425b      	negs	r3, r3
10005a94:	401c      	ands	r4, r3
10005a96:	9b09      	ldr	r3, [sp, #36]	@ 0x24
10005a98:	2b00      	cmp	r3, #0
10005a9a:	d007      	beq.n	10005aac <_etoa+0xd8>
10005a9c:	9a0a      	ldr	r2, [sp, #40]	@ 0x28
10005a9e:	9b0b      	ldr	r3, [sp, #44]	@ 0x2c
10005aa0:	0030      	movs	r0, r6
10005aa2:	0039      	movs	r1, r7
10005aa4:	f001 fc93 	bl	100073ce <__wrap___aeabi_ddiv>
10005aa8:	0006      	movs	r6, r0
10005aaa:	000f      	movs	r7, r1
10005aac:	9822      	ldr	r0, [sp, #136]	@ 0x88
10005aae:	9923      	ldr	r1, [sp, #140]	@ 0x8c
10005ab0:	2200      	movs	r2, #0
10005ab2:	2300      	movs	r3, #0
10005ab4:	f001 fcec 	bl	10007490 <__wrap___aeabi_dcmplt>
10005ab8:	2800      	cmp	r0, #0
10005aba:	d003      	beq.n	10005ac4 <_etoa+0xf0>
10005abc:	2180      	movs	r1, #128	@ 0x80
10005abe:	0609      	lsls	r1, r1, #24
10005ac0:	187b      	adds	r3, r7, r1
10005ac2:	001f      	movs	r7, r3
10005ac4:	9a26      	ldr	r2, [sp, #152]	@ 0x98
10005ac6:	4baa      	ldr	r3, [pc, #680]	@ (10005d70 <_etoa+0x39c>)
10005ac8:	9600      	str	r6, [sp, #0]
10005aca:	9701      	str	r7, [sp, #4]
10005acc:	4013      	ands	r3, r2
10005ace:	9e08      	ldr	r6, [sp, #32]
10005ad0:	9304      	str	r3, [sp, #16]
10005ad2:	9b24      	ldr	r3, [sp, #144]	@ 0x90
10005ad4:	9403      	str	r4, [sp, #12]
10005ad6:	9302      	str	r3, [sp, #8]
10005ad8:	4642      	mov	r2, r8
10005ada:	0033      	movs	r3, r6
10005adc:	4649      	mov	r1, r9
10005ade:	4650      	mov	r0, sl
10005ae0:	f000 f9aa 	bl	10005e38 <_ftoa>
10005ae4:	0004      	movs	r4, r0
10005ae6:	2d00      	cmp	r5, #0
10005ae8:	d067      	beq.n	10005bba <_etoa+0x1e6>
10005aea:	2020      	movs	r0, #32
10005aec:	9a26      	ldr	r2, [sp, #152]	@ 0x98
10005aee:	4649      	mov	r1, r9
10005af0:	4002      	ands	r2, r0
10005af2:	0013      	movs	r3, r2
10005af4:	425a      	negs	r2, r3
10005af6:	4153      	adcs	r3, r2
10005af8:	425b      	negs	r3, r3
10005afa:	1c62      	adds	r2, r4, #1
10005afc:	4018      	ands	r0, r3
10005afe:	920a      	str	r2, [sp, #40]	@ 0x28
10005b00:	0033      	movs	r3, r6
10005b02:	0022      	movs	r2, r4
10005b04:	3045      	adds	r0, #69	@ 0x45
10005b06:	47d0      	blx	sl
10005b08:	9a09      	ldr	r2, [sp, #36]	@ 0x24
10005b0a:	1e6f      	subs	r7, r5, #1
10005b0c:	17d3      	asrs	r3, r2, #31
10005b0e:	18d4      	adds	r4, r2, r3
10005b10:	405c      	eors	r4, r3
10005b12:	0fd3      	lsrs	r3, r2, #31
10005b14:	469b      	mov	fp, r3
10005b16:	2500      	movs	r5, #0
10005b18:	e001      	b.n	10005b1e <_etoa+0x14a>
10005b1a:	2d20      	cmp	r5, #32
10005b1c:	d013      	beq.n	10005b46 <_etoa+0x172>
10005b1e:	aa08      	add	r2, sp, #32
10005b20:	4694      	mov	ip, r2
10005b22:	231f      	movs	r3, #31
10005b24:	0020      	movs	r0, r4
10005b26:	4463      	add	r3, ip
10005b28:	210a      	movs	r1, #10
10005b2a:	3501      	adds	r5, #1
10005b2c:	195e      	adds	r6, r3, r5
10005b2e:	f001 fa01 	bl	10006f34 <__wrap___aeabi_uidiv>
10005b32:	3130      	adds	r1, #48	@ 0x30
10005b34:	7031      	strb	r1, [r6, #0]
10005b36:	0020      	movs	r0, r4
10005b38:	210a      	movs	r1, #10
10005b3a:	f001 f9fb 	bl	10006f34 <__wrap___aeabi_uidiv>
10005b3e:	0026      	movs	r6, r4
10005b40:	0004      	movs	r4, r0
10005b42:	2e09      	cmp	r6, #9
10005b44:	d8e9      	bhi.n	10005b1a <_etoa+0x146>
10005b46:	2305      	movs	r3, #5
10005b48:	9306      	str	r3, [sp, #24]
10005b4a:	2300      	movs	r3, #0
10005b4c:	9304      	str	r3, [sp, #16]
10005b4e:	330a      	adds	r3, #10
10005b50:	9303      	str	r3, [sp, #12]
10005b52:	465b      	mov	r3, fp
10005b54:	9e08      	ldr	r6, [sp, #32]
10005b56:	9302      	str	r3, [sp, #8]
10005b58:	ab10      	add	r3, sp, #64	@ 0x40
10005b5a:	9a0a      	ldr	r2, [sp, #40]	@ 0x28
10005b5c:	9300      	str	r3, [sp, #0]
10005b5e:	4649      	mov	r1, r9
10005b60:	0033      	movs	r3, r6
10005b62:	4650      	mov	r0, sl
10005b64:	9705      	str	r7, [sp, #20]
10005b66:	9501      	str	r5, [sp, #4]
10005b68:	f7ff fe20 	bl	100057ac <_ntoa_format>
10005b6c:	9a0c      	ldr	r2, [sp, #48]	@ 0x30
10005b6e:	0004      	movs	r4, r0
10005b70:	2a00      	cmp	r2, #0
10005b72:	d022      	beq.n	10005bba <_etoa+0x1e6>
10005b74:	4642      	mov	r2, r8
10005b76:	1a85      	subs	r5, r0, r2
10005b78:	9a25      	ldr	r2, [sp, #148]	@ 0x94
10005b7a:	42aa      	cmp	r2, r5
10005b7c:	d91d      	bls.n	10005bba <_etoa+0x1e6>
10005b7e:	46b0      	mov	r8, r6
10005b80:	4657      	mov	r7, sl
10005b82:	0016      	movs	r6, r2
10005b84:	0022      	movs	r2, r4
10005b86:	4643      	mov	r3, r8
10005b88:	4649      	mov	r1, r9
10005b8a:	2020      	movs	r0, #32
10005b8c:	3501      	adds	r5, #1
10005b8e:	47b8      	blx	r7
10005b90:	3401      	adds	r4, #1
10005b92:	42ae      	cmp	r6, r5
10005b94:	d8f6      	bhi.n	10005b84 <_etoa+0x1b0>
10005b96:	e010      	b.n	10005bba <_etoa+0x1e6>
10005b98:	9b26      	ldr	r3, [sp, #152]	@ 0x98
10005b9a:	4642      	mov	r2, r8
10005b9c:	9304      	str	r3, [sp, #16]
10005b9e:	9b25      	ldr	r3, [sp, #148]	@ 0x94
10005ba0:	4649      	mov	r1, r9
10005ba2:	9303      	str	r3, [sp, #12]
10005ba4:	9b24      	ldr	r3, [sp, #144]	@ 0x90
10005ba6:	4650      	mov	r0, sl
10005ba8:	9302      	str	r3, [sp, #8]
10005baa:	9b22      	ldr	r3, [sp, #136]	@ 0x88
10005bac:	9c23      	ldr	r4, [sp, #140]	@ 0x8c
10005bae:	9300      	str	r3, [sp, #0]
10005bb0:	9401      	str	r4, [sp, #4]
10005bb2:	9b08      	ldr	r3, [sp, #32]
10005bb4:	f000 f940 	bl	10005e38 <_ftoa>
10005bb8:	0004      	movs	r4, r0
10005bba:	0020      	movs	r0, r4
10005bbc:	b019      	add	sp, #100	@ 0x64
10005bbe:	bcf0      	pop	{r4, r5, r6, r7}
10005bc0:	46bb      	mov	fp, r7
10005bc2:	46b2      	mov	sl, r6
10005bc4:	46a9      	mov	r9, r5
10005bc6:	46a0      	mov	r8, r4
10005bc8:	bdf0      	pop	{r4, r5, r6, r7, pc}
10005bca:	4b6a      	ldr	r3, [pc, #424]	@ (10005d74 <_etoa+0x3a0>)
10005bcc:	0078      	lsls	r0, r7, #1
10005bce:	469c      	mov	ip, r3
10005bd0:	0d40      	lsrs	r0, r0, #21
10005bd2:	4460      	add	r0, ip
10005bd4:	f001 fc82 	bl	100074dc <__wrap___aeabi_i2d>
10005bd8:	4a67      	ldr	r2, [pc, #412]	@ (10005d78 <_etoa+0x3a4>)
10005bda:	4b68      	ldr	r3, [pc, #416]	@ (10005d7c <_etoa+0x3a8>)
10005bdc:	f001 fc15 	bl	1000740a <__wrap___aeabi_dmul>
10005be0:	4a67      	ldr	r2, [pc, #412]	@ (10005d80 <_etoa+0x3ac>)
10005be2:	4b68      	ldr	r3, [pc, #416]	@ (10005d84 <_etoa+0x3b0>)
10005be4:	f001 fbea 	bl	100073bc <__wrap___aeabi_dadd>
10005be8:	4a67      	ldr	r2, [pc, #412]	@ (10005d88 <_etoa+0x3b4>)
10005bea:	033b      	lsls	r3, r7, #12
10005bec:	0b1b      	lsrs	r3, r3, #12
10005bee:	431a      	orrs	r2, r3
10005bf0:	0004      	movs	r4, r0
10005bf2:	000d      	movs	r5, r1
10005bf4:	9809      	ldr	r0, [sp, #36]	@ 0x24
10005bf6:	0011      	movs	r1, r2
10005bf8:	4b64      	ldr	r3, [pc, #400]	@ (10005d8c <_etoa+0x3b8>)
10005bfa:	2200      	movs	r2, #0
10005bfc:	f001 fbd5 	bl	100073aa <__wrap___aeabi_dsub>
10005c00:	4a63      	ldr	r2, [pc, #396]	@ (10005d90 <_etoa+0x3bc>)
10005c02:	4b64      	ldr	r3, [pc, #400]	@ (10005d94 <_etoa+0x3c0>)
10005c04:	f001 fc01 	bl	1000740a <__wrap___aeabi_dmul>
10005c08:	0002      	movs	r2, r0
10005c0a:	000b      	movs	r3, r1
10005c0c:	0020      	movs	r0, r4
10005c0e:	0029      	movs	r1, r5
10005c10:	f001 fbd4 	bl	100073bc <__wrap___aeabi_dadd>
10005c14:	f001 fc7a 	bl	1000750c <__wrap___aeabi_d2iz>
10005c18:	9009      	str	r0, [sp, #36]	@ 0x24
10005c1a:	f001 fc5f 	bl	100074dc <__wrap___aeabi_i2d>
10005c1e:	4a5e      	ldr	r2, [pc, #376]	@ (10005d98 <_etoa+0x3c4>)
10005c20:	4b5e      	ldr	r3, [pc, #376]	@ (10005d9c <_etoa+0x3c8>)
10005c22:	0004      	movs	r4, r0
10005c24:	000d      	movs	r5, r1
10005c26:	f001 fbf0 	bl	1000740a <__wrap___aeabi_dmul>
10005c2a:	2200      	movs	r2, #0
10005c2c:	4b5c      	ldr	r3, [pc, #368]	@ (10005da0 <_etoa+0x3cc>)
10005c2e:	f001 fbc5 	bl	100073bc <__wrap___aeabi_dadd>
10005c32:	f001 fc6b 	bl	1000750c <__wrap___aeabi_d2iz>
10005c36:	4a5b      	ldr	r2, [pc, #364]	@ (10005da4 <_etoa+0x3d0>)
10005c38:	4b5b      	ldr	r3, [pc, #364]	@ (10005da8 <_etoa+0x3d4>)
10005c3a:	0029      	movs	r1, r5
10005c3c:	900c      	str	r0, [sp, #48]	@ 0x30
10005c3e:	0020      	movs	r0, r4
10005c40:	f001 fbe3 	bl	1000740a <__wrap___aeabi_dmul>
10005c44:	0004      	movs	r4, r0
10005c46:	980c      	ldr	r0, [sp, #48]	@ 0x30
10005c48:	000d      	movs	r5, r1
10005c4a:	f001 fc47 	bl	100074dc <__wrap___aeabi_i2d>
10005c4e:	4a57      	ldr	r2, [pc, #348]	@ (10005dac <_etoa+0x3d8>)
10005c50:	4b57      	ldr	r3, [pc, #348]	@ (10005db0 <_etoa+0x3dc>)
10005c52:	f001 fbda 	bl	1000740a <__wrap___aeabi_dmul>
10005c56:	0002      	movs	r2, r0
10005c58:	000b      	movs	r3, r1
10005c5a:	0020      	movs	r0, r4
10005c5c:	0029      	movs	r1, r5
10005c5e:	f001 fba4 	bl	100073aa <__wrap___aeabi_dsub>
10005c62:	0004      	movs	r4, r0
10005c64:	000d      	movs	r5, r1
10005c66:	0002      	movs	r2, r0
10005c68:	000b      	movs	r3, r1
10005c6a:	940a      	str	r4, [sp, #40]	@ 0x28
10005c6c:	950b      	str	r5, [sp, #44]	@ 0x2c
10005c6e:	f001 fbcc 	bl	1000740a <__wrap___aeabi_dmul>
10005c72:	0004      	movs	r4, r0
10005c74:	000d      	movs	r5, r1
10005c76:	980a      	ldr	r0, [sp, #40]	@ 0x28
10005c78:	990b      	ldr	r1, [sp, #44]	@ 0x2c
10005c7a:	0002      	movs	r2, r0
10005c7c:	000b      	movs	r3, r1
10005c7e:	f001 fb9d 	bl	100073bc <__wrap___aeabi_dadd>
10005c82:	2200      	movs	r2, #0
10005c84:	900e      	str	r0, [sp, #56]	@ 0x38
10005c86:	910f      	str	r1, [sp, #60]	@ 0x3c
10005c88:	4b4a      	ldr	r3, [pc, #296]	@ (10005db4 <_etoa+0x3e0>)
10005c8a:	0020      	movs	r0, r4
10005c8c:	0029      	movs	r1, r5
10005c8e:	f001 fb9e 	bl	100073ce <__wrap___aeabi_ddiv>
10005c92:	2200      	movs	r2, #0
10005c94:	4b48      	ldr	r3, [pc, #288]	@ (10005db8 <_etoa+0x3e4>)
10005c96:	f001 fb91 	bl	100073bc <__wrap___aeabi_dadd>
10005c9a:	0002      	movs	r2, r0
10005c9c:	000b      	movs	r3, r1
10005c9e:	0020      	movs	r0, r4
10005ca0:	0029      	movs	r1, r5
10005ca2:	f001 fb94 	bl	100073ce <__wrap___aeabi_ddiv>
10005ca6:	2200      	movs	r2, #0
10005ca8:	4b44      	ldr	r3, [pc, #272]	@ (10005dbc <_etoa+0x3e8>)
10005caa:	f001 fb87 	bl	100073bc <__wrap___aeabi_dadd>
10005cae:	0002      	movs	r2, r0
10005cb0:	000b      	movs	r3, r1
10005cb2:	0020      	movs	r0, r4
10005cb4:	0029      	movs	r1, r5
10005cb6:	f001 fb8a 	bl	100073ce <__wrap___aeabi_ddiv>
10005cba:	9a0a      	ldr	r2, [sp, #40]	@ 0x28
10005cbc:	9b0b      	ldr	r3, [sp, #44]	@ 0x2c
10005cbe:	000d      	movs	r5, r1
10005cc0:	2180      	movs	r1, #128	@ 0x80
10005cc2:	0004      	movs	r4, r0
10005cc4:	05c9      	lsls	r1, r1, #23
10005cc6:	2000      	movs	r0, #0
10005cc8:	f001 fb6f 	bl	100073aa <__wrap___aeabi_dsub>
10005ccc:	0002      	movs	r2, r0
10005cce:	000b      	movs	r3, r1
10005cd0:	0020      	movs	r0, r4
10005cd2:	0029      	movs	r1, r5
10005cd4:	f001 fb72 	bl	100073bc <__wrap___aeabi_dadd>
10005cd8:	0002      	movs	r2, r0
10005cda:	000b      	movs	r3, r1
10005cdc:	980e      	ldr	r0, [sp, #56]	@ 0x38
10005cde:	990f      	ldr	r1, [sp, #60]	@ 0x3c
10005ce0:	f001 fb75 	bl	100073ce <__wrap___aeabi_ddiv>
10005ce4:	2200      	movs	r2, #0
10005ce6:	4b28      	ldr	r3, [pc, #160]	@ (10005d88 <_etoa+0x3b4>)
10005ce8:	f001 fb68 	bl	100073bc <__wrap___aeabi_dadd>
10005cec:	4b34      	ldr	r3, [pc, #208]	@ (10005dc0 <_etoa+0x3ec>)
10005cee:	9c0c      	ldr	r4, [sp, #48]	@ 0x30
10005cf0:	469c      	mov	ip, r3
10005cf2:	4464      	add	r4, ip
10005cf4:	0523      	lsls	r3, r4, #20
10005cf6:	2200      	movs	r2, #0
10005cf8:	f001 fb87 	bl	1000740a <__wrap___aeabi_dmul>
10005cfc:	0004      	movs	r4, r0
10005cfe:	000d      	movs	r5, r1
10005d00:	0002      	movs	r2, r0
10005d02:	000b      	movs	r3, r1
10005d04:	0030      	movs	r0, r6
10005d06:	0039      	movs	r1, r7
10005d08:	940a      	str	r4, [sp, #40]	@ 0x28
10005d0a:	950b      	str	r5, [sp, #44]	@ 0x2c
10005d0c:	f001 fbc0 	bl	10007490 <__wrap___aeabi_dcmplt>
10005d10:	2800      	cmp	r0, #0
10005d12:	d15d      	bne.n	10005dd0 <_etoa+0x3fc>
10005d14:	0023      	movs	r3, r4
10005d16:	002a      	movs	r2, r5
10005d18:	25c6      	movs	r5, #198	@ 0xc6
10005d1a:	9909      	ldr	r1, [sp, #36]	@ 0x24
10005d1c:	3163      	adds	r1, #99	@ 0x63
10005d1e:	428d      	cmp	r5, r1
10005d20:	41ad      	sbcs	r5, r5
10005d22:	4659      	mov	r1, fp
10005d24:	426d      	negs	r5, r5
10005d26:	3504      	adds	r5, #4
10005d28:	2900      	cmp	r1, #0
10005d2a:	d100      	bne.n	10005d2e <_etoa+0x35a>
10005d2c:	e6a3      	b.n	10005a76 <_etoa+0xa2>
10005d2e:	4313      	orrs	r3, r2
10005d30:	d063      	beq.n	10005dfa <_etoa+0x426>
10005d32:	0030      	movs	r0, r6
10005d34:	0039      	movs	r1, r7
10005d36:	4a23      	ldr	r2, [pc, #140]	@ (10005dc4 <_etoa+0x3f0>)
10005d38:	4b23      	ldr	r3, [pc, #140]	@ (10005dc8 <_etoa+0x3f4>)
10005d3a:	f001 fbaf 	bl	1000749c <__wrap___aeabi_dcmpge>
10005d3e:	2800      	cmp	r0, #0
10005d40:	d007      	beq.n	10005d52 <_etoa+0x37e>
10005d42:	2200      	movs	r2, #0
10005d44:	0030      	movs	r0, r6
10005d46:	0039      	movs	r1, r7
10005d48:	4b20      	ldr	r3, [pc, #128]	@ (10005dcc <_etoa+0x3f8>)
10005d4a:	f001 fba1 	bl	10007490 <__wrap___aeabi_dcmplt>
10005d4e:	2800      	cmp	r0, #0
10005d50:	d153      	bne.n	10005dfa <_etoa+0x426>
10005d52:	9b24      	ldr	r3, [sp, #144]	@ 0x90
10005d54:	2b00      	cmp	r3, #0
10005d56:	d100      	bne.n	10005d5a <_etoa+0x386>
10005d58:	e68d      	b.n	10005a76 <_etoa+0xa2>
10005d5a:	9b0d      	ldr	r3, [sp, #52]	@ 0x34
10005d5c:	1e5a      	subs	r2, r3, #1
10005d5e:	4193      	sbcs	r3, r2
10005d60:	9a24      	ldr	r2, [sp, #144]	@ 0x90
10005d62:	1ad3      	subs	r3, r2, r3
10005d64:	9324      	str	r3, [sp, #144]	@ 0x90
10005d66:	e686      	b.n	10005a76 <_etoa+0xa2>
10005d68:	7fefffff 	.word	0x7fefffff
10005d6c:	ffefffff 	.word	0xffefffff
10005d70:	fffff7ff 	.word	0xfffff7ff
10005d74:	fffffc01 	.word	0xfffffc01
10005d78:	509f79fb 	.word	0x509f79fb
10005d7c:	3fd34413 	.word	0x3fd34413
10005d80:	8b60c8b3 	.word	0x8b60c8b3
10005d84:	3fc68a28 	.word	0x3fc68a28
10005d88:	3ff00000 	.word	0x3ff00000
10005d8c:	3ff80000 	.word	0x3ff80000
10005d90:	636f4361 	.word	0x636f4361
10005d94:	3fd287a7 	.word	0x3fd287a7
10005d98:	0979a371 	.word	0x0979a371
10005d9c:	400a934f 	.word	0x400a934f
10005da0:	3fe00000 	.word	0x3fe00000
10005da4:	bbb55516 	.word	0xbbb55516
10005da8:	40026bb1 	.word	0x40026bb1
10005dac:	fefa39ef 	.word	0xfefa39ef
10005db0:	3fe62e42 	.word	0x3fe62e42
10005db4:	402c0000 	.word	0x402c0000
10005db8:	40240000 	.word	0x40240000
10005dbc:	40180000 	.word	0x40180000
10005dc0:	000003ff 	.word	0x000003ff
10005dc4:	eb1c432d 	.word	0xeb1c432d
10005dc8:	3f1a36e2 	.word	0x3f1a36e2
10005dcc:	412e8480 	.word	0x412e8480
10005dd0:	9b09      	ldr	r3, [sp, #36]	@ 0x24
10005dd2:	2200      	movs	r2, #0
10005dd4:	3b01      	subs	r3, #1
10005dd6:	9309      	str	r3, [sp, #36]	@ 0x24
10005dd8:	0020      	movs	r0, r4
10005dda:	4b16      	ldr	r3, [pc, #88]	@ (10005e34 <_etoa+0x460>)
10005ddc:	0029      	movs	r1, r5
10005dde:	f001 faf6 	bl	100073ce <__wrap___aeabi_ddiv>
10005de2:	000a      	movs	r2, r1
10005de4:	0001      	movs	r1, r0
10005de6:	0003      	movs	r3, r0
10005de8:	910a      	str	r1, [sp, #40]	@ 0x28
10005dea:	920b      	str	r2, [sp, #44]	@ 0x2c
10005dec:	e794      	b.n	10005d18 <_etoa+0x344>
10005dee:	2300      	movs	r3, #0
10005df0:	2400      	movs	r4, #0
10005df2:	930a      	str	r3, [sp, #40]	@ 0x28
10005df4:	940b      	str	r4, [sp, #44]	@ 0x2c
10005df6:	2300      	movs	r3, #0
10005df8:	9309      	str	r3, [sp, #36]	@ 0x24
10005dfa:	9a24      	ldr	r2, [sp, #144]	@ 0x90
10005dfc:	9b09      	ldr	r3, [sp, #36]	@ 0x24
10005dfe:	429a      	cmp	r2, r3
10005e00:	dd14      	ble.n	10005e2c <_etoa+0x458>
10005e02:	1ad3      	subs	r3, r2, r3
10005e04:	3b01      	subs	r3, #1
10005e06:	9324      	str	r3, [sp, #144]	@ 0x90
10005e08:	2380      	movs	r3, #128	@ 0x80
10005e0a:	9a26      	ldr	r2, [sp, #152]	@ 0x98
10005e0c:	00db      	lsls	r3, r3, #3
10005e0e:	431a      	orrs	r2, r3
10005e10:	2300      	movs	r3, #0
10005e12:	2500      	movs	r5, #0
10005e14:	9226      	str	r2, [sp, #152]	@ 0x98
10005e16:	9309      	str	r3, [sp, #36]	@ 0x24
10005e18:	e62d      	b.n	10005a76 <_etoa+0xa2>
10005e1a:	2280      	movs	r2, #128	@ 0x80
10005e1c:	0612      	lsls	r2, r2, #24
10005e1e:	4694      	mov	ip, r2
10005e20:	9b22      	ldr	r3, [sp, #136]	@ 0x88
10005e22:	001e      	movs	r6, r3
10005e24:	9b23      	ldr	r3, [sp, #140]	@ 0x8c
10005e26:	4463      	add	r3, ip
10005e28:	001f      	movs	r7, r3
10005e2a:	e606      	b.n	10005a3a <_etoa+0x66>
10005e2c:	2300      	movs	r3, #0
10005e2e:	9324      	str	r3, [sp, #144]	@ 0x90
10005e30:	e7ea      	b.n	10005e08 <_etoa+0x434>
10005e32:	46c0      	nop			@ (mov r8, r8)
10005e34:	40240000 	.word	0x40240000

10005e38 <_ftoa>:
10005e38:	b5f0      	push	{r4, r5, r6, r7, lr}
10005e3a:	4645      	mov	r5, r8
10005e3c:	46de      	mov	lr, fp
10005e3e:	464e      	mov	r6, r9
10005e40:	4657      	mov	r7, sl
10005e42:	b5e0      	push	{r5, r6, r7, lr}
10005e44:	b095      	sub	sp, #84	@ 0x54
10005e46:	468b      	mov	fp, r1
10005e48:	4690      	mov	r8, r2
10005e4a:	4699      	mov	r9, r3
10005e4c:	9a1e      	ldr	r2, [sp, #120]	@ 0x78
10005e4e:	9b1f      	ldr	r3, [sp, #124]	@ 0x7c
10005e50:	900a      	str	r0, [sp, #40]	@ 0x28
10005e52:	0019      	movs	r1, r3
10005e54:	0010      	movs	r0, r2
10005e56:	9d20      	ldr	r5, [sp, #128]	@ 0x80
10005e58:	f001 fb2d 	bl	100074b6 <__wrap___aeabi_dcmpun>
10005e5c:	2800      	cmp	r0, #0
10005e5e:	d000      	beq.n	10005e62 <_ftoa+0x2a>
10005e60:	e1b0      	b.n	100061c4 <_ftoa+0x38c>
10005e62:	981e      	ldr	r0, [sp, #120]	@ 0x78
10005e64:	991f      	ldr	r1, [sp, #124]	@ 0x7c
10005e66:	2201      	movs	r2, #1
10005e68:	4bc7      	ldr	r3, [pc, #796]	@ (10006188 <_ftoa+0x350>)
10005e6a:	4252      	negs	r2, r2
10005e6c:	f001 fb10 	bl	10007490 <__wrap___aeabi_dcmplt>
10005e70:	2800      	cmp	r0, #0
10005e72:	d000      	beq.n	10005e76 <_ftoa+0x3e>
10005e74:	e137      	b.n	100060e6 <_ftoa+0x2ae>
10005e76:	981e      	ldr	r0, [sp, #120]	@ 0x78
10005e78:	991f      	ldr	r1, [sp, #124]	@ 0x7c
10005e7a:	2201      	movs	r2, #1
10005e7c:	4bc3      	ldr	r3, [pc, #780]	@ (1000618c <_ftoa+0x354>)
10005e7e:	4252      	negs	r2, r2
10005e80:	f001 fb14 	bl	100074ac <__wrap___aeabi_dcmpgt>
10005e84:	2800      	cmp	r0, #0
10005e86:	d000      	beq.n	10005e8a <_ftoa+0x52>
10005e88:	e0a7      	b.n	10005fda <_ftoa+0x1a2>
10005e8a:	981e      	ldr	r0, [sp, #120]	@ 0x78
10005e8c:	991f      	ldr	r1, [sp, #124]	@ 0x7c
10005e8e:	2200      	movs	r2, #0
10005e90:	4bbf      	ldr	r3, [pc, #764]	@ (10006190 <_ftoa+0x358>)
10005e92:	f001 fb0b 	bl	100074ac <__wrap___aeabi_dcmpgt>
10005e96:	2800      	cmp	r0, #0
10005e98:	d000      	beq.n	10005e9c <_ftoa+0x64>
10005e9a:	e088      	b.n	10005fae <_ftoa+0x176>
10005e9c:	981e      	ldr	r0, [sp, #120]	@ 0x78
10005e9e:	991f      	ldr	r1, [sp, #124]	@ 0x7c
10005ea0:	2200      	movs	r2, #0
10005ea2:	4bbc      	ldr	r3, [pc, #752]	@ (10006194 <_ftoa+0x35c>)
10005ea4:	f001 faf4 	bl	10007490 <__wrap___aeabi_dcmplt>
10005ea8:	2800      	cmp	r0, #0
10005eaa:	d000      	beq.n	10005eae <_ftoa+0x76>
10005eac:	e07f      	b.n	10005fae <_ftoa+0x176>
10005eae:	981e      	ldr	r0, [sp, #120]	@ 0x78
10005eb0:	991f      	ldr	r1, [sp, #124]	@ 0x7c
10005eb2:	2200      	movs	r2, #0
10005eb4:	2300      	movs	r3, #0
10005eb6:	f001 faeb 	bl	10007490 <__wrap___aeabi_dcmplt>
10005eba:	2800      	cmp	r0, #0
10005ebc:	d000      	beq.n	10005ec0 <_ftoa+0x88>
10005ebe:	e0fa      	b.n	100060b6 <_ftoa+0x27e>
10005ec0:	2300      	movs	r3, #0
10005ec2:	930b      	str	r3, [sp, #44]	@ 0x2c
10005ec4:	2380      	movs	r3, #128	@ 0x80
10005ec6:	9c22      	ldr	r4, [sp, #136]	@ 0x88
10005ec8:	9a22      	ldr	r2, [sp, #136]	@ 0x88
10005eca:	00db      	lsls	r3, r3, #3
10005ecc:	401c      	ands	r4, r3
10005ece:	421a      	tst	r2, r3
10005ed0:	d100      	bne.n	10005ed4 <_ftoa+0x9c>
10005ed2:	e102      	b.n	100060da <_ftoa+0x2a2>
10005ed4:	2d09      	cmp	r5, #9
10005ed6:	d800      	bhi.n	10005eda <_ftoa+0xa2>
10005ed8:	e17e      	b.n	100061d8 <_ftoa+0x3a0>
10005eda:	a906      	add	r1, sp, #24
10005edc:	468c      	mov	ip, r1
10005ede:	002c      	movs	r4, r5
10005ee0:	2217      	movs	r2, #23
10005ee2:	2300      	movs	r3, #0
10005ee4:	2130      	movs	r1, #48	@ 0x30
10005ee6:	3c09      	subs	r4, #9
10005ee8:	4462      	add	r2, ip
10005eea:	3301      	adds	r3, #1
10005eec:	54d1      	strb	r1, [r2, r3]
10005eee:	1aef      	subs	r7, r5, r3
10005ef0:	2b20      	cmp	r3, #32
10005ef2:	d100      	bne.n	10005ef6 <_ftoa+0xbe>
10005ef4:	e132      	b.n	1000615c <_ftoa+0x324>
10005ef6:	42a3      	cmp	r3, r4
10005ef8:	d1f7      	bne.n	10005eea <_ftoa+0xb2>
10005efa:	2200      	movs	r2, #0
10005efc:	4ba4      	ldr	r3, [pc, #656]	@ (10006190 <_ftoa+0x358>)
10005efe:	9206      	str	r2, [sp, #24]
10005f00:	9307      	str	r3, [sp, #28]
10005f02:	981e      	ldr	r0, [sp, #120]	@ 0x78
10005f04:	991f      	ldr	r1, [sp, #124]	@ 0x7c
10005f06:	f001 fb01 	bl	1000750c <__wrap___aeabi_d2iz>
10005f0a:	0005      	movs	r5, r0
10005f0c:	f001 fae6 	bl	100074dc <__wrap___aeabi_i2d>
10005f10:	0002      	movs	r2, r0
10005f12:	000b      	movs	r3, r1
10005f14:	981e      	ldr	r0, [sp, #120]	@ 0x78
10005f16:	991f      	ldr	r1, [sp, #124]	@ 0x7c
10005f18:	f001 fa47 	bl	100073aa <__wrap___aeabi_dsub>
10005f1c:	9a06      	ldr	r2, [sp, #24]
10005f1e:	9b07      	ldr	r3, [sp, #28]
10005f20:	f001 fa73 	bl	1000740a <__wrap___aeabi_dmul>
10005f24:	9008      	str	r0, [sp, #32]
10005f26:	9109      	str	r1, [sp, #36]	@ 0x24
10005f28:	f001 fb14 	bl	10007554 <__wrap___aeabi_d2uiz>
10005f2c:	0006      	movs	r6, r0
10005f2e:	f001 fad1 	bl	100074d4 <__wrap___aeabi_ui2d>
10005f32:	0002      	movs	r2, r0
10005f34:	000b      	movs	r3, r1
10005f36:	9808      	ldr	r0, [sp, #32]
10005f38:	9909      	ldr	r1, [sp, #36]	@ 0x24
10005f3a:	f001 fa36 	bl	100073aa <__wrap___aeabi_dsub>
10005f3e:	2200      	movs	r2, #0
10005f40:	4b95      	ldr	r3, [pc, #596]	@ (10006198 <_ftoa+0x360>)
10005f42:	9008      	str	r0, [sp, #32]
10005f44:	9109      	str	r1, [sp, #36]	@ 0x24
10005f46:	f001 fab1 	bl	100074ac <__wrap___aeabi_dcmpgt>
10005f4a:	2800      	cmp	r0, #0
10005f4c:	d100      	bne.n	10005f50 <_ftoa+0x118>
10005f4e:	e0d2      	b.n	100060f6 <_ftoa+0x2be>
10005f50:	3601      	adds	r6, #1
10005f52:	0030      	movs	r0, r6
10005f54:	f001 fabe 	bl	100074d4 <__wrap___aeabi_ui2d>
10005f58:	9a06      	ldr	r2, [sp, #24]
10005f5a:	9b07      	ldr	r3, [sp, #28]
10005f5c:	f001 fa9e 	bl	1000749c <__wrap___aeabi_dcmpge>
10005f60:	2800      	cmp	r0, #0
10005f62:	d001      	beq.n	10005f68 <_ftoa+0x130>
10005f64:	2600      	movs	r6, #0
10005f66:	3501      	adds	r5, #1
10005f68:	46aa      	mov	sl, r5
10005f6a:	2f00      	cmp	r7, #0
10005f6c:	d000      	beq.n	10005f70 <_ftoa+0x138>
10005f6e:	e098      	b.n	100060a2 <_ftoa+0x26a>
10005f70:	0028      	movs	r0, r5
10005f72:	f001 fab3 	bl	100074dc <__wrap___aeabi_i2d>
10005f76:	0002      	movs	r2, r0
10005f78:	000b      	movs	r3, r1
10005f7a:	981e      	ldr	r0, [sp, #120]	@ 0x78
10005f7c:	991f      	ldr	r1, [sp, #124]	@ 0x7c
10005f7e:	f001 fa14 	bl	100073aa <__wrap___aeabi_dsub>
10005f82:	4b85      	ldr	r3, [pc, #532]	@ (10006198 <_ftoa+0x360>)
10005f84:	2200      	movs	r2, #0
10005f86:	0006      	movs	r6, r0
10005f88:	000f      	movs	r7, r1
10005f8a:	f001 fa81 	bl	10007490 <__wrap___aeabi_dcmplt>
10005f8e:	ab0c      	add	r3, sp, #48	@ 0x30
10005f90:	469a      	mov	sl, r3
10005f92:	2800      	cmp	r0, #0
10005f94:	d145      	bne.n	10006022 <_ftoa+0x1ea>
10005f96:	2200      	movs	r2, #0
10005f98:	0030      	movs	r0, r6
10005f9a:	0039      	movs	r1, r7
10005f9c:	4b7e      	ldr	r3, [pc, #504]	@ (10006198 <_ftoa+0x360>)
10005f9e:	f001 fa85 	bl	100074ac <__wrap___aeabi_dcmpgt>
10005fa2:	2800      	cmp	r0, #0
10005fa4:	d13d      	bne.n	10006022 <_ftoa+0x1ea>
10005fa6:	07eb      	lsls	r3, r5, #31
10005fa8:	d53b      	bpl.n	10006022 <_ftoa+0x1ea>
10005faa:	3501      	adds	r5, #1
10005fac:	e039      	b.n	10006022 <_ftoa+0x1ea>
10005fae:	9b22      	ldr	r3, [sp, #136]	@ 0x88
10005fb0:	4642      	mov	r2, r8
10005fb2:	9304      	str	r3, [sp, #16]
10005fb4:	9b21      	ldr	r3, [sp, #132]	@ 0x84
10005fb6:	4659      	mov	r1, fp
10005fb8:	9303      	str	r3, [sp, #12]
10005fba:	980a      	ldr	r0, [sp, #40]	@ 0x28
10005fbc:	9b1e      	ldr	r3, [sp, #120]	@ 0x78
10005fbe:	9c1f      	ldr	r4, [sp, #124]	@ 0x7c
10005fc0:	9502      	str	r5, [sp, #8]
10005fc2:	9300      	str	r3, [sp, #0]
10005fc4:	9401      	str	r4, [sp, #4]
10005fc6:	464b      	mov	r3, r9
10005fc8:	f7ff fd04 	bl	100059d4 <_etoa>
10005fcc:	b015      	add	sp, #84	@ 0x54
10005fce:	bcf0      	pop	{r4, r5, r6, r7}
10005fd0:	46bb      	mov	fp, r7
10005fd2:	46b2      	mov	sl, r6
10005fd4:	46a9      	mov	r9, r5
10005fd6:	46a0      	mov	r8, r4
10005fd8:	bdf0      	pop	{r4, r5, r6, r7, pc}
10005fda:	9b22      	ldr	r3, [sp, #136]	@ 0x88
10005fdc:	075b      	lsls	r3, r3, #29
10005fde:	d467      	bmi.n	100060b0 <_ftoa+0x278>
10005fe0:	2203      	movs	r2, #3
10005fe2:	4b6e      	ldr	r3, [pc, #440]	@ (1000619c <_ftoa+0x364>)
10005fe4:	9922      	ldr	r1, [sp, #136]	@ 0x88
10005fe6:	9201      	str	r2, [sp, #4]
10005fe8:	9103      	str	r1, [sp, #12]
10005fea:	9921      	ldr	r1, [sp, #132]	@ 0x84
10005fec:	9102      	str	r1, [sp, #8]
10005fee:	9300      	str	r3, [sp, #0]
10005ff0:	4642      	mov	r2, r8
10005ff2:	464b      	mov	r3, r9
10005ff4:	4659      	mov	r1, fp
10005ff6:	980a      	ldr	r0, [sp, #40]	@ 0x28
10005ff8:	f7ff fb90 	bl	1000571c <_out_rev>
10005ffc:	e7e6      	b.n	10005fcc <_ftoa+0x194>
10005ffe:	aa06      	add	r2, sp, #24
10006000:	4694      	mov	ip, r2
10006002:	2317      	movs	r3, #23
10006004:	0028      	movs	r0, r5
10006006:	4463      	add	r3, ip
10006008:	210a      	movs	r1, #10
1000600a:	3401      	adds	r4, #1
1000600c:	191e      	adds	r6, r3, r4
1000600e:	f000 ff69 	bl	10006ee4 <__wrap___aeabi_idiv>
10006012:	3130      	adds	r1, #48	@ 0x30
10006014:	0028      	movs	r0, r5
10006016:	7031      	strb	r1, [r6, #0]
10006018:	210a      	movs	r1, #10
1000601a:	f000 ff63 	bl	10006ee4 <__wrap___aeabi_idiv>
1000601e:	1e05      	subs	r5, r0, #0
10006020:	d076      	beq.n	10006110 <_ftoa+0x2d8>
10006022:	2c20      	cmp	r4, #32
10006024:	d1eb      	bne.n	10005ffe <_ftoa+0x1c6>
10006026:	2303      	movs	r3, #3
10006028:	9a22      	ldr	r2, [sp, #136]	@ 0x88
1000602a:	4013      	ands	r3, r2
1000602c:	2b01      	cmp	r3, #1
1000602e:	d11d      	bne.n	1000606c <_ftoa+0x234>
10006030:	9b21      	ldr	r3, [sp, #132]	@ 0x84
10006032:	2b00      	cmp	r3, #0
10006034:	d01a      	beq.n	1000606c <_ftoa+0x234>
10006036:	9b0b      	ldr	r3, [sp, #44]	@ 0x2c
10006038:	2b00      	cmp	r3, #0
1000603a:	d000      	beq.n	1000603e <_ftoa+0x206>
1000603c:	e0bb      	b.n	100061b6 <_ftoa+0x37e>
1000603e:	9a22      	ldr	r2, [sp, #136]	@ 0x88
10006040:	330c      	adds	r3, #12
10006042:	4213      	tst	r3, r2
10006044:	d000      	beq.n	10006048 <_ftoa+0x210>
10006046:	e0b6      	b.n	100061b6 <_ftoa+0x37e>
10006048:	9b21      	ldr	r3, [sp, #132]	@ 0x84
1000604a:	42a3      	cmp	r3, r4
1000604c:	d800      	bhi.n	10006050 <_ftoa+0x218>
1000604e:	e087      	b.n	10006160 <_ftoa+0x328>
10006050:	ab06      	add	r3, sp, #24
10006052:	469c      	mov	ip, r3
10006054:	2217      	movs	r2, #23
10006056:	2330      	movs	r3, #48	@ 0x30
10006058:	4462      	add	r2, ip
1000605a:	e004      	b.n	10006066 <_ftoa+0x22e>
1000605c:	9921      	ldr	r1, [sp, #132]	@ 0x84
1000605e:	3401      	adds	r4, #1
10006060:	5513      	strb	r3, [r2, r4]
10006062:	428c      	cmp	r4, r1
10006064:	d059      	beq.n	1000611a <_ftoa+0x2e2>
10006066:	2c20      	cmp	r4, #32
10006068:	d1f8      	bne.n	1000605c <_ftoa+0x224>
1000606a:	2420      	movs	r4, #32
1000606c:	9b22      	ldr	r3, [sp, #136]	@ 0x88
1000606e:	9401      	str	r4, [sp, #4]
10006070:	9303      	str	r3, [sp, #12]
10006072:	9b21      	ldr	r3, [sp, #132]	@ 0x84
10006074:	9302      	str	r3, [sp, #8]
10006076:	4653      	mov	r3, sl
10006078:	e7b9      	b.n	10005fee <_ftoa+0x1b6>
1000607a:	aa06      	add	r2, sp, #24
1000607c:	4694      	mov	ip, r2
1000607e:	2317      	movs	r3, #23
10006080:	210a      	movs	r1, #10
10006082:	4463      	add	r3, ip
10006084:	0030      	movs	r0, r6
10006086:	3401      	adds	r4, #1
10006088:	191d      	adds	r5, r3, r4
1000608a:	f000 ff53 	bl	10006f34 <__wrap___aeabi_uidiv>
1000608e:	3130      	adds	r1, #48	@ 0x30
10006090:	7029      	strb	r1, [r5, #0]
10006092:	0030      	movs	r0, r6
10006094:	210a      	movs	r1, #10
10006096:	3f01      	subs	r7, #1
10006098:	f000 ff4c 	bl	10006f34 <__wrap___aeabi_uidiv>
1000609c:	2e09      	cmp	r6, #9
1000609e:	d946      	bls.n	1000612e <_ftoa+0x2f6>
100060a0:	0006      	movs	r6, r0
100060a2:	2c20      	cmp	r4, #32
100060a4:	d1e9      	bne.n	1000607a <_ftoa+0x242>
100060a6:	4655      	mov	r5, sl
100060a8:	ab0c      	add	r3, sp, #48	@ 0x30
100060aa:	2420      	movs	r4, #32
100060ac:	469a      	mov	sl, r3
100060ae:	e7b8      	b.n	10006022 <_ftoa+0x1ea>
100060b0:	2204      	movs	r2, #4
100060b2:	4b3b      	ldr	r3, [pc, #236]	@ (100061a0 <_ftoa+0x368>)
100060b4:	e796      	b.n	10005fe4 <_ftoa+0x1ac>
100060b6:	9a1e      	ldr	r2, [sp, #120]	@ 0x78
100060b8:	9b1f      	ldr	r3, [sp, #124]	@ 0x7c
100060ba:	2000      	movs	r0, #0
100060bc:	2100      	movs	r1, #0
100060be:	f001 f974 	bl	100073aa <__wrap___aeabi_dsub>
100060c2:	2301      	movs	r3, #1
100060c4:	930b      	str	r3, [sp, #44]	@ 0x2c
100060c6:	2380      	movs	r3, #128	@ 0x80
100060c8:	9c22      	ldr	r4, [sp, #136]	@ 0x88
100060ca:	9a22      	ldr	r2, [sp, #136]	@ 0x88
100060cc:	00db      	lsls	r3, r3, #3
100060ce:	901e      	str	r0, [sp, #120]	@ 0x78
100060d0:	911f      	str	r1, [sp, #124]	@ 0x7c
100060d2:	401c      	ands	r4, r3
100060d4:	421a      	tst	r2, r3
100060d6:	d000      	beq.n	100060da <_ftoa+0x2a2>
100060d8:	e6fc      	b.n	10005ed4 <_ftoa+0x9c>
100060da:	2200      	movs	r2, #0
100060dc:	4b31      	ldr	r3, [pc, #196]	@ (100061a4 <_ftoa+0x36c>)
100060de:	2706      	movs	r7, #6
100060e0:	9206      	str	r2, [sp, #24]
100060e2:	9307      	str	r3, [sp, #28]
100060e4:	e70d      	b.n	10005f02 <_ftoa+0xca>
100060e6:	9b22      	ldr	r3, [sp, #136]	@ 0x88
100060e8:	9303      	str	r3, [sp, #12]
100060ea:	9b21      	ldr	r3, [sp, #132]	@ 0x84
100060ec:	9302      	str	r3, [sp, #8]
100060ee:	2304      	movs	r3, #4
100060f0:	9301      	str	r3, [sp, #4]
100060f2:	4b2d      	ldr	r3, [pc, #180]	@ (100061a8 <_ftoa+0x370>)
100060f4:	e77b      	b.n	10005fee <_ftoa+0x1b6>
100060f6:	2200      	movs	r2, #0
100060f8:	9808      	ldr	r0, [sp, #32]
100060fa:	9909      	ldr	r1, [sp, #36]	@ 0x24
100060fc:	4b26      	ldr	r3, [pc, #152]	@ (10006198 <_ftoa+0x360>)
100060fe:	f001 f9c7 	bl	10007490 <__wrap___aeabi_dcmplt>
10006102:	2800      	cmp	r0, #0
10006104:	d000      	beq.n	10006108 <_ftoa+0x2d0>
10006106:	e72f      	b.n	10005f68 <_ftoa+0x130>
10006108:	2e00      	cmp	r6, #0
1000610a:	d14f      	bne.n	100061ac <_ftoa+0x374>
1000610c:	3601      	adds	r6, #1
1000610e:	e72b      	b.n	10005f68 <_ftoa+0x130>
10006110:	2303      	movs	r3, #3
10006112:	9a22      	ldr	r2, [sp, #136]	@ 0x88
10006114:	4013      	ands	r3, r2
10006116:	2b01      	cmp	r3, #1
10006118:	d068      	beq.n	100061ec <_ftoa+0x3b4>
1000611a:	2c20      	cmp	r4, #32
1000611c:	d0a6      	beq.n	1000606c <_ftoa+0x234>
1000611e:	9b0b      	ldr	r3, [sp, #44]	@ 0x2c
10006120:	2b00      	cmp	r3, #0
10006122:	d01f      	beq.n	10006164 <_ftoa+0x32c>
10006124:	232d      	movs	r3, #45	@ 0x2d
10006126:	4652      	mov	r2, sl
10006128:	5513      	strb	r3, [r2, r4]
1000612a:	3401      	adds	r4, #1
1000612c:	e79e      	b.n	1000606c <_ftoa+0x234>
1000612e:	4655      	mov	r5, sl
10006130:	2c20      	cmp	r4, #32
10006132:	d0b9      	beq.n	100060a8 <_ftoa+0x270>
10006134:	2230      	movs	r2, #48	@ 0x30
10006136:	193b      	adds	r3, r7, r4
10006138:	2f00      	cmp	r7, #0
1000613a:	d04b      	beq.n	100061d4 <_ftoa+0x39c>
1000613c:	2017      	movs	r0, #23
1000613e:	a906      	add	r1, sp, #24
10006140:	3401      	adds	r4, #1
10006142:	1809      	adds	r1, r1, r0
10006144:	550a      	strb	r2, [r1, r4]
10006146:	2c20      	cmp	r4, #32
10006148:	d0ae      	beq.n	100060a8 <_ftoa+0x270>
1000614a:	429c      	cmp	r4, r3
1000614c:	d1f6      	bne.n	1000613c <_ftoa+0x304>
1000614e:	aa0c      	add	r2, sp, #48	@ 0x30
10006150:	4692      	mov	sl, r2
10006152:	222e      	movs	r2, #46	@ 0x2e
10006154:	4651      	mov	r1, sl
10006156:	1c5c      	adds	r4, r3, #1
10006158:	54ca      	strb	r2, [r1, r3]
1000615a:	e762      	b.n	10006022 <_ftoa+0x1ea>
1000615c:	2420      	movs	r4, #32
1000615e:	e6cc      	b.n	10005efa <_ftoa+0xc2>
10006160:	2c20      	cmp	r4, #32
10006162:	d083      	beq.n	1000606c <_ftoa+0x234>
10006164:	9b22      	ldr	r3, [sp, #136]	@ 0x88
10006166:	075b      	lsls	r3, r3, #29
10006168:	d408      	bmi.n	1000617c <_ftoa+0x344>
1000616a:	9b22      	ldr	r3, [sp, #136]	@ 0x88
1000616c:	071b      	lsls	r3, r3, #28
1000616e:	d400      	bmi.n	10006172 <_ftoa+0x33a>
10006170:	e77c      	b.n	1000606c <_ftoa+0x234>
10006172:	2320      	movs	r3, #32
10006174:	4652      	mov	r2, sl
10006176:	5513      	strb	r3, [r2, r4]
10006178:	3401      	adds	r4, #1
1000617a:	e777      	b.n	1000606c <_ftoa+0x234>
1000617c:	232b      	movs	r3, #43	@ 0x2b
1000617e:	4652      	mov	r2, sl
10006180:	5513      	strb	r3, [r2, r4]
10006182:	3401      	adds	r4, #1
10006184:	e772      	b.n	1000606c <_ftoa+0x234>
10006186:	46c0      	nop			@ (mov r8, r8)
10006188:	ffefffff 	.word	0xffefffff
1000618c:	7fefffff 	.word	0x7fefffff
10006190:	41cdcd65 	.word	0x41cdcd65
10006194:	c1cdcd65 	.word	0xc1cdcd65
10006198:	3fe00000 	.word	0x3fe00000
1000619c:	1000b3f0 	.word	0x1000b3f0
100061a0:	1000b3e8 	.word	0x1000b3e8
100061a4:	412e8480 	.word	0x412e8480
100061a8:	1000b3f8 	.word	0x1000b3f8
100061ac:	07f3      	lsls	r3, r6, #31
100061ae:	d400      	bmi.n	100061b2 <_ftoa+0x37a>
100061b0:	e6da      	b.n	10005f68 <_ftoa+0x130>
100061b2:	3601      	adds	r6, #1
100061b4:	e6d8      	b.n	10005f68 <_ftoa+0x130>
100061b6:	9b21      	ldr	r3, [sp, #132]	@ 0x84
100061b8:	3b01      	subs	r3, #1
100061ba:	9321      	str	r3, [sp, #132]	@ 0x84
100061bc:	42a3      	cmp	r3, r4
100061be:	d900      	bls.n	100061c2 <_ftoa+0x38a>
100061c0:	e746      	b.n	10006050 <_ftoa+0x218>
100061c2:	e7aa      	b.n	1000611a <_ftoa+0x2e2>
100061c4:	9b22      	ldr	r3, [sp, #136]	@ 0x88
100061c6:	9303      	str	r3, [sp, #12]
100061c8:	9b21      	ldr	r3, [sp, #132]	@ 0x84
100061ca:	9302      	str	r3, [sp, #8]
100061cc:	2303      	movs	r3, #3
100061ce:	9301      	str	r3, [sp, #4]
100061d0:	4b08      	ldr	r3, [pc, #32]	@ (100061f4 <_ftoa+0x3bc>)
100061d2:	e70c      	b.n	10005fee <_ftoa+0x1b6>
100061d4:	0023      	movs	r3, r4
100061d6:	e7ba      	b.n	1000614e <_ftoa+0x316>
100061d8:	4b07      	ldr	r3, [pc, #28]	@ (100061f8 <_ftoa+0x3c0>)
100061da:	00ea      	lsls	r2, r5, #3
100061dc:	189b      	adds	r3, r3, r2
100061de:	685c      	ldr	r4, [r3, #4]
100061e0:	681b      	ldr	r3, [r3, #0]
100061e2:	002f      	movs	r7, r5
100061e4:	9306      	str	r3, [sp, #24]
100061e6:	9407      	str	r4, [sp, #28]
100061e8:	2400      	movs	r4, #0
100061ea:	e68a      	b.n	10005f02 <_ftoa+0xca>
100061ec:	9b21      	ldr	r3, [sp, #132]	@ 0x84
100061ee:	2b00      	cmp	r3, #0
100061f0:	d093      	beq.n	1000611a <_ftoa+0x2e2>
100061f2:	e720      	b.n	10006036 <_ftoa+0x1fe>
100061f4:	1000b3f4 	.word	0x1000b3f4
100061f8:	1000b5a0 	.word	0x1000b5a0

100061fc <_vsnprintf>:
100061fc:	b5f0      	push	{r4, r5, r6, r7, lr}
100061fe:	4645      	mov	r5, r8
10006200:	46de      	mov	lr, fp
10006202:	4657      	mov	r7, sl
10006204:	464e      	mov	r6, r9
10006206:	b5e0      	push	{r5, r6, r7, lr}
10006208:	b0a1      	sub	sp, #132	@ 0x84
1000620a:	001d      	movs	r5, r3
1000620c:	9b2a      	ldr	r3, [sp, #168]	@ 0xa8
1000620e:	4690      	mov	r8, r2
10006210:	930b      	str	r3, [sp, #44]	@ 0x2c
10006212:	4ad0      	ldr	r2, [pc, #832]	@ (10006554 <_vsnprintf+0x358>)
10006214:	4bd0      	ldr	r3, [pc, #832]	@ (10006558 <_vsnprintf+0x35c>)
10006216:	4683      	mov	fp, r0
10006218:	468a      	mov	sl, r1
1000621a:	601a      	str	r2, [r3, #0]
1000621c:	2900      	cmp	r1, #0
1000621e:	d100      	bne.n	10006222 <_vsnprintf+0x26>
10006220:	e1a4      	b.n	1000656c <_vsnprintf+0x370>
10006222:	2300      	movs	r3, #0
10006224:	7828      	ldrb	r0, [r5, #0]
10006226:	4699      	mov	r9, r3
10006228:	2800      	cmp	r0, #0
1000622a:	d100      	bne.n	1000622e <_vsnprintf+0x32>
1000622c:	e1a6      	b.n	1000657c <_vsnprintf+0x380>
1000622e:	4bcb      	ldr	r3, [pc, #812]	@ (1000655c <_vsnprintf+0x360>)
10006230:	465e      	mov	r6, fp
10006232:	9309      	str	r3, [sp, #36]	@ 0x24
10006234:	4bca      	ldr	r3, [pc, #808]	@ (10006560 <_vsnprintf+0x364>)
10006236:	464c      	mov	r4, r9
10006238:	46d3      	mov	fp, sl
1000623a:	4647      	mov	r7, r8
1000623c:	930d      	str	r3, [sp, #52]	@ 0x34
1000623e:	e00a      	b.n	10006256 <_vsnprintf+0x5a>
10006240:	1c63      	adds	r3, r4, #1
10006242:	4698      	mov	r8, r3
10006244:	0022      	movs	r2, r4
10006246:	003b      	movs	r3, r7
10006248:	4659      	mov	r1, fp
1000624a:	47b0      	blx	r6
1000624c:	4644      	mov	r4, r8
1000624e:	7828      	ldrb	r0, [r5, #0]
10006250:	2800      	cmp	r0, #0
10006252:	d100      	bne.n	10006256 <_vsnprintf+0x5a>
10006254:	e0cd      	b.n	100063f2 <_vsnprintf+0x1f6>
10006256:	3501      	adds	r5, #1
10006258:	2825      	cmp	r0, #37	@ 0x25
1000625a:	d1f1      	bne.n	10006240 <_vsnprintf+0x44>
1000625c:	2308      	movs	r3, #8
1000625e:	469a      	mov	sl, r3
10006260:	3b04      	subs	r3, #4
10006262:	4699      	mov	r9, r3
10006264:	3b02      	subs	r3, #2
10006266:	4698      	mov	r8, r3
10006268:	3b01      	subs	r3, #1
1000626a:	2200      	movs	r2, #0
1000626c:	469c      	mov	ip, r3
1000626e:	940c      	str	r4, [sp, #48]	@ 0x30
10006270:	7828      	ldrb	r0, [r5, #0]
10006272:	1c69      	adds	r1, r5, #1
10006274:	0003      	movs	r3, r0
10006276:	3b20      	subs	r3, #32
10006278:	b2db      	uxtb	r3, r3
1000627a:	2b10      	cmp	r3, #16
1000627c:	d803      	bhi.n	10006286 <_vsnprintf+0x8a>
1000627e:	9c09      	ldr	r4, [sp, #36]	@ 0x24
10006280:	009b      	lsls	r3, r3, #2
10006282:	58e3      	ldr	r3, [r4, r3]
10006284:	469f      	mov	pc, r3
10006286:	0003      	movs	r3, r0
10006288:	3b30      	subs	r3, #48	@ 0x30
1000628a:	9c0c      	ldr	r4, [sp, #48]	@ 0x30
1000628c:	920a      	str	r2, [sp, #40]	@ 0x28
1000628e:	2b09      	cmp	r3, #9
10006290:	d97f      	bls.n	10006392 <_vsnprintf+0x196>
10006292:	2300      	movs	r3, #0
10006294:	4698      	mov	r8, r3
10006296:	282a      	cmp	r0, #42	@ 0x2a
10006298:	d100      	bne.n	1000629c <_vsnprintf+0xa0>
1000629a:	e0c1      	b.n	10006420 <_vsnprintf+0x224>
1000629c:	2300      	movs	r3, #0
1000629e:	469a      	mov	sl, r3
100062a0:	282e      	cmp	r0, #46	@ 0x2e
100062a2:	d100      	bne.n	100062a6 <_vsnprintf+0xaa>
100062a4:	e090      	b.n	100063c8 <_vsnprintf+0x1cc>
100062a6:	0003      	movs	r3, r0
100062a8:	3b68      	subs	r3, #104	@ 0x68
100062aa:	b2db      	uxtb	r3, r3
100062ac:	2b12      	cmp	r3, #18
100062ae:	d81e      	bhi.n	100062ee <_vsnprintf+0xf2>
100062b0:	4aac      	ldr	r2, [pc, #688]	@ (10006564 <_vsnprintf+0x368>)
100062b2:	009b      	lsls	r3, r3, #2
100062b4:	58d3      	ldr	r3, [r2, r3]
100062b6:	469f      	mov	pc, r3
100062b8:	4663      	mov	r3, ip
100062ba:	000d      	movs	r5, r1
100062bc:	431a      	orrs	r2, r3
100062be:	e7d7      	b.n	10006270 <_vsnprintf+0x74>
100062c0:	4643      	mov	r3, r8
100062c2:	000d      	movs	r5, r1
100062c4:	431a      	orrs	r2, r3
100062c6:	e7d3      	b.n	10006270 <_vsnprintf+0x74>
100062c8:	464b      	mov	r3, r9
100062ca:	000d      	movs	r5, r1
100062cc:	431a      	orrs	r2, r3
100062ce:	e7cf      	b.n	10006270 <_vsnprintf+0x74>
100062d0:	2310      	movs	r3, #16
100062d2:	000d      	movs	r5, r1
100062d4:	431a      	orrs	r2, r3
100062d6:	e7cb      	b.n	10006270 <_vsnprintf+0x74>
100062d8:	4653      	mov	r3, sl
100062da:	000d      	movs	r5, r1
100062dc:	431a      	orrs	r2, r3
100062de:	e7c7      	b.n	10006270 <_vsnprintf+0x74>
100062e0:	2380      	movs	r3, #128	@ 0x80
100062e2:	005b      	lsls	r3, r3, #1
100062e4:	9a0a      	ldr	r2, [sp, #40]	@ 0x28
100062e6:	7868      	ldrb	r0, [r5, #1]
100062e8:	431a      	orrs	r2, r3
100062ea:	920a      	str	r2, [sp, #40]	@ 0x28
100062ec:	3101      	adds	r1, #1
100062ee:	000d      	movs	r5, r1
100062f0:	2867      	cmp	r0, #103	@ 0x67
100062f2:	d80a      	bhi.n	1000630a <_vsnprintf+0x10e>
100062f4:	2824      	cmp	r0, #36	@ 0x24
100062f6:	d9a3      	bls.n	10006240 <_vsnprintf+0x44>
100062f8:	0003      	movs	r3, r0
100062fa:	3b25      	subs	r3, #37	@ 0x25
100062fc:	b2db      	uxtb	r3, r3
100062fe:	2b42      	cmp	r3, #66	@ 0x42
10006300:	d89e      	bhi.n	10006240 <_vsnprintf+0x44>
10006302:	9a0d      	ldr	r2, [sp, #52]	@ 0x34
10006304:	009b      	lsls	r3, r3, #2
10006306:	58d3      	ldr	r3, [r2, r3]
10006308:	469f      	mov	pc, r3
1000630a:	0001      	movs	r1, r0
1000630c:	3969      	subs	r1, #105	@ 0x69
1000630e:	b2c9      	uxtb	r1, r1
10006310:	290f      	cmp	r1, #15
10006312:	d895      	bhi.n	10006240 <_vsnprintf+0x44>
10006314:	2301      	movs	r3, #1
10006316:	408b      	lsls	r3, r1
10006318:	469c      	mov	ip, r3
1000631a:	4b93      	ldr	r3, [pc, #588]	@ (10006568 <_vsnprintf+0x36c>)
1000631c:	4699      	mov	r9, r3
1000631e:	4663      	mov	r3, ip
10006320:	464a      	mov	r2, r9
10006322:	4013      	ands	r3, r2
10006324:	930c      	str	r3, [sp, #48]	@ 0x30
10006326:	4662      	mov	r2, ip
10006328:	464b      	mov	r3, r9
1000632a:	421a      	tst	r2, r3
1000632c:	d000      	beq.n	10006330 <_vsnprintf+0x134>
1000632e:	e25e      	b.n	100067ee <_vsnprintf+0x5f2>
10006330:	290a      	cmp	r1, #10
10006332:	d100      	bne.n	10006336 <_vsnprintf+0x13a>
10006334:	e124      	b.n	10006580 <_vsnprintf+0x384>
10006336:	2907      	cmp	r1, #7
10006338:	d182      	bne.n	10006240 <_vsnprintf+0x44>
1000633a:	9b0b      	ldr	r3, [sp, #44]	@ 0x2c
1000633c:	cb02      	ldmia	r3!, {r1}
1000633e:	4698      	mov	r8, r3
10006340:	2900      	cmp	r1, #0
10006342:	d100      	bne.n	10006346 <_vsnprintf+0x14a>
10006344:	e19b      	b.n	1000667e <_vsnprintf+0x482>
10006346:	2021      	movs	r0, #33	@ 0x21
10006348:	9a0a      	ldr	r2, [sp, #40]	@ 0x28
1000634a:	4302      	orrs	r2, r0
1000634c:	4691      	mov	r9, r2
1000634e:	ab10      	add	r3, sp, #64	@ 0x40
10006350:	469c      	mov	ip, r3
10006352:	221f      	movs	r2, #31
10006354:	230f      	movs	r3, #15
10006356:	4640      	mov	r0, r8
10006358:	4462      	add	r2, ip
1000635a:	950b      	str	r5, [sp, #44]	@ 0x2c
1000635c:	469c      	mov	ip, r3
1000635e:	46a0      	mov	r8, r4
10006360:	0015      	movs	r5, r2
10006362:	9b0c      	ldr	r3, [sp, #48]	@ 0x30
10006364:	900a      	str	r0, [sp, #40]	@ 0x28
10006366:	e002      	b.n	1000636e <_vsnprintf+0x172>
10006368:	2b20      	cmp	r3, #32
1000636a:	d00c      	beq.n	10006386 <_vsnprintf+0x18a>
1000636c:	0011      	movs	r1, r2
1000636e:	4664      	mov	r4, ip
10006370:	400c      	ands	r4, r1
10006372:	0020      	movs	r0, r4
10006374:	3037      	adds	r0, #55	@ 0x37
10006376:	2c09      	cmp	r4, #9
10006378:	d800      	bhi.n	1000637c <_vsnprintf+0x180>
1000637a:	3807      	subs	r0, #7
1000637c:	3301      	adds	r3, #1
1000637e:	54e8      	strb	r0, [r5, r3]
10006380:	090a      	lsrs	r2, r1, #4
10006382:	290f      	cmp	r1, #15
10006384:	d8f0      	bhi.n	10006368 <_vsnprintf+0x16c>
10006386:	930c      	str	r3, [sp, #48]	@ 0x30
10006388:	9b0a      	ldr	r3, [sp, #40]	@ 0x28
1000638a:	4644      	mov	r4, r8
1000638c:	9d0b      	ldr	r5, [sp, #44]	@ 0x2c
1000638e:	4698      	mov	r8, r3
10006390:	e185      	b.n	1000669e <_vsnprintf+0x4a2>
10006392:	2300      	movs	r3, #0
10006394:	4698      	mov	r8, r3
10006396:	9b0a      	ldr	r3, [sp, #40]	@ 0x28
10006398:	4645      	mov	r5, r8
1000639a:	469c      	mov	ip, r3
1000639c:	e000      	b.n	100063a0 <_vsnprintf+0x1a4>
1000639e:	3101      	adds	r1, #1
100063a0:	00ab      	lsls	r3, r5, #2
100063a2:	195b      	adds	r3, r3, r5
100063a4:	005b      	lsls	r3, r3, #1
100063a6:	181d      	adds	r5, r3, r0
100063a8:	7808      	ldrb	r0, [r1, #0]
100063aa:	3d30      	subs	r5, #48	@ 0x30
100063ac:	0003      	movs	r3, r0
100063ae:	3b30      	subs	r3, #48	@ 0x30
100063b0:	2b09      	cmp	r3, #9
100063b2:	d9f4      	bls.n	1000639e <_vsnprintf+0x1a2>
100063b4:	4663      	mov	r3, ip
100063b6:	930a      	str	r3, [sp, #40]	@ 0x28
100063b8:	2300      	movs	r3, #0
100063ba:	46a8      	mov	r8, r5
100063bc:	469a      	mov	sl, r3
100063be:	000d      	movs	r5, r1
100063c0:	3101      	adds	r1, #1
100063c2:	282e      	cmp	r0, #46	@ 0x2e
100063c4:	d000      	beq.n	100063c8 <_vsnprintf+0x1cc>
100063c6:	e76e      	b.n	100062a6 <_vsnprintf+0xaa>
100063c8:	2080      	movs	r0, #128	@ 0x80
100063ca:	9a0a      	ldr	r2, [sp, #40]	@ 0x28
100063cc:	00c0      	lsls	r0, r0, #3
100063ce:	4302      	orrs	r2, r0
100063d0:	920a      	str	r2, [sp, #40]	@ 0x28
100063d2:	2230      	movs	r2, #48	@ 0x30
100063d4:	4252      	negs	r2, r2
100063d6:	4694      	mov	ip, r2
100063d8:	7868      	ldrb	r0, [r5, #1]
100063da:	000b      	movs	r3, r1
100063dc:	4484      	add	ip, r0
100063de:	4662      	mov	r2, ip
100063e0:	2a09      	cmp	r2, #9
100063e2:	d800      	bhi.n	100063e6 <_vsnprintf+0x1ea>
100063e4:	e12e      	b.n	10006644 <_vsnprintf+0x448>
100063e6:	282a      	cmp	r0, #42	@ 0x2a
100063e8:	d100      	bne.n	100063ec <_vsnprintf+0x1f0>
100063ea:	e13d      	b.n	10006668 <_vsnprintf+0x46c>
100063ec:	000d      	movs	r5, r1
100063ee:	3101      	adds	r1, #1
100063f0:	e759      	b.n	100062a6 <_vsnprintf+0xaa>
100063f2:	46da      	mov	sl, fp
100063f4:	46a1      	mov	r9, r4
100063f6:	46b3      	mov	fp, r6
100063f8:	46b8      	mov	r8, r7
100063fa:	45c8      	cmp	r8, r9
100063fc:	d803      	bhi.n	10006406 <_vsnprintf+0x20a>
100063fe:	2301      	movs	r3, #1
10006400:	425b      	negs	r3, r3
10006402:	4443      	add	r3, r8
10006404:	4699      	mov	r9, r3
10006406:	4643      	mov	r3, r8
10006408:	464a      	mov	r2, r9
1000640a:	4651      	mov	r1, sl
1000640c:	2000      	movs	r0, #0
1000640e:	47d8      	blx	fp
10006410:	0020      	movs	r0, r4
10006412:	b021      	add	sp, #132	@ 0x84
10006414:	bcf0      	pop	{r4, r5, r6, r7}
10006416:	46bb      	mov	fp, r7
10006418:	46b2      	mov	sl, r6
1000641a:	46a9      	mov	r9, r5
1000641c:	46a0      	mov	r8, r4
1000641e:	bdf0      	pop	{r4, r5, r6, r7, pc}
10006420:	9b0b      	ldr	r3, [sp, #44]	@ 0x2c
10006422:	cb04      	ldmia	r3!, {r2}
10006424:	4690      	mov	r8, r2
10006426:	2a00      	cmp	r2, #0
10006428:	db04      	blt.n	10006434 <_vsnprintf+0x238>
1000642a:	7868      	ldrb	r0, [r5, #1]
1000642c:	930b      	str	r3, [sp, #44]	@ 0x2c
1000642e:	000d      	movs	r5, r1
10006430:	3101      	adds	r1, #1
10006432:	e733      	b.n	1000629c <_vsnprintf+0xa0>
10006434:	9a0a      	ldr	r2, [sp, #40]	@ 0x28
10006436:	3828      	subs	r0, #40	@ 0x28
10006438:	4302      	orrs	r2, r0
1000643a:	920a      	str	r2, [sp, #40]	@ 0x28
1000643c:	4642      	mov	r2, r8
1000643e:	4252      	negs	r2, r2
10006440:	7868      	ldrb	r0, [r5, #1]
10006442:	4690      	mov	r8, r2
10006444:	000d      	movs	r5, r1
10006446:	930b      	str	r3, [sp, #44]	@ 0x2c
10006448:	3101      	adds	r1, #1
1000644a:	e727      	b.n	1000629c <_vsnprintf+0xa0>
1000644c:	2867      	cmp	r0, #103	@ 0x67
1000644e:	d100      	bne.n	10006452 <_vsnprintf+0x256>
10006450:	e1c7      	b.n	100067e2 <_vsnprintf+0x5e6>
10006452:	2847      	cmp	r0, #71	@ 0x47
10006454:	d100      	bne.n	10006458 <_vsnprintf+0x25c>
10006456:	e214      	b.n	10006882 <_vsnprintf+0x686>
10006458:	2845      	cmp	r0, #69	@ 0x45
1000645a:	d100      	bne.n	1000645e <_vsnprintf+0x262>
1000645c:	e216      	b.n	1000688c <_vsnprintf+0x690>
1000645e:	9a0a      	ldr	r2, [sp, #40]	@ 0x28
10006460:	2107      	movs	r1, #7
10006462:	9204      	str	r2, [sp, #16]
10006464:	4642      	mov	r2, r8
10006466:	9b0b      	ldr	r3, [sp, #44]	@ 0x2c
10006468:	9203      	str	r2, [sp, #12]
1000646a:	3307      	adds	r3, #7
1000646c:	4652      	mov	r2, sl
1000646e:	438b      	bics	r3, r1
10006470:	0019      	movs	r1, r3
10006472:	9202      	str	r2, [sp, #8]
10006474:	c90c      	ldmia	r1!, {r2, r3}
10006476:	0030      	movs	r0, r6
10006478:	9200      	str	r2, [sp, #0]
1000647a:	9301      	str	r3, [sp, #4]
1000647c:	910b      	str	r1, [sp, #44]	@ 0x2c
1000647e:	0022      	movs	r2, r4
10006480:	003b      	movs	r3, r7
10006482:	4659      	mov	r1, fp
10006484:	f7ff faa6 	bl	100059d4 <_etoa>
10006488:	0004      	movs	r4, r0
1000648a:	e6e0      	b.n	1000624e <_vsnprintf+0x52>
1000648c:	2380      	movs	r3, #128	@ 0x80
1000648e:	009b      	lsls	r3, r3, #2
10006490:	e728      	b.n	100062e4 <_vsnprintf+0xe8>
10006492:	7868      	ldrb	r0, [r5, #1]
10006494:	2868      	cmp	r0, #104	@ 0x68
10006496:	d100      	bne.n	1000649a <_vsnprintf+0x29e>
10006498:	e21b      	b.n	100068d2 <_vsnprintf+0x6d6>
1000649a:	2380      	movs	r3, #128	@ 0x80
1000649c:	9a0a      	ldr	r2, [sp, #40]	@ 0x28
1000649e:	3101      	adds	r1, #1
100064a0:	431a      	orrs	r2, r3
100064a2:	920a      	str	r2, [sp, #40]	@ 0x28
100064a4:	e723      	b.n	100062ee <_vsnprintf+0xf2>
100064a6:	7868      	ldrb	r0, [r5, #1]
100064a8:	286c      	cmp	r0, #108	@ 0x6c
100064aa:	d100      	bne.n	100064ae <_vsnprintf+0x2b2>
100064ac:	e209      	b.n	100068c2 <_vsnprintf+0x6c6>
100064ae:	2380      	movs	r3, #128	@ 0x80
100064b0:	9a0a      	ldr	r2, [sp, #40]	@ 0x28
100064b2:	005b      	lsls	r3, r3, #1
100064b4:	431a      	orrs	r2, r3
100064b6:	920a      	str	r2, [sp, #40]	@ 0x28
100064b8:	3101      	adds	r1, #1
100064ba:	e718      	b.n	100062ee <_vsnprintf+0xf2>
100064bc:	2846      	cmp	r0, #70	@ 0x46
100064be:	d100      	bne.n	100064c2 <_vsnprintf+0x2c6>
100064c0:	e18a      	b.n	100067d8 <_vsnprintf+0x5dc>
100064c2:	9a0a      	ldr	r2, [sp, #40]	@ 0x28
100064c4:	2107      	movs	r1, #7
100064c6:	9204      	str	r2, [sp, #16]
100064c8:	4642      	mov	r2, r8
100064ca:	9b0b      	ldr	r3, [sp, #44]	@ 0x2c
100064cc:	9203      	str	r2, [sp, #12]
100064ce:	3307      	adds	r3, #7
100064d0:	4652      	mov	r2, sl
100064d2:	438b      	bics	r3, r1
100064d4:	0019      	movs	r1, r3
100064d6:	9202      	str	r2, [sp, #8]
100064d8:	c90c      	ldmia	r1!, {r2, r3}
100064da:	0030      	movs	r0, r6
100064dc:	9200      	str	r2, [sp, #0]
100064de:	9301      	str	r3, [sp, #4]
100064e0:	910b      	str	r1, [sp, #44]	@ 0x2c
100064e2:	0022      	movs	r2, r4
100064e4:	003b      	movs	r3, r7
100064e6:	4659      	mov	r1, fp
100064e8:	f7ff fca6 	bl	10005e38 <_ftoa>
100064ec:	0004      	movs	r4, r0
100064ee:	e6ae      	b.n	1000624e <_vsnprintf+0x52>
100064f0:	1c63      	adds	r3, r4, #1
100064f2:	4698      	mov	r8, r3
100064f4:	0022      	movs	r2, r4
100064f6:	003b      	movs	r3, r7
100064f8:	4659      	mov	r1, fp
100064fa:	2025      	movs	r0, #37	@ 0x25
100064fc:	47b0      	blx	r6
100064fe:	4644      	mov	r4, r8
10006500:	e6a5      	b.n	1000624e <_vsnprintf+0x52>
10006502:	9b0b      	ldr	r3, [sp, #44]	@ 0x2c
10006504:	3304      	adds	r3, #4
10006506:	930c      	str	r3, [sp, #48]	@ 0x30
10006508:	1c63      	adds	r3, r4, #1
1000650a:	4699      	mov	r9, r3
1000650c:	9b0a      	ldr	r3, [sp, #40]	@ 0x28
1000650e:	079a      	lsls	r2, r3, #30
10006510:	d400      	bmi.n	10006514 <_vsnprintf+0x318>
10006512:	e1e7      	b.n	100068e4 <_vsnprintf+0x6e8>
10006514:	9b0b      	ldr	r3, [sp, #44]	@ 0x2c
10006516:	0022      	movs	r2, r4
10006518:	7818      	ldrb	r0, [r3, #0]
1000651a:	4659      	mov	r1, fp
1000651c:	003b      	movs	r3, r7
1000651e:	47b0      	blx	r6
10006520:	4643      	mov	r3, r8
10006522:	4444      	add	r4, r8
10006524:	2b01      	cmp	r3, #1
10006526:	d800      	bhi.n	1000652a <_vsnprintf+0x32e>
10006528:	e2b8      	b.n	10006a9c <_vsnprintf+0x8a0>
1000652a:	002b      	movs	r3, r5
1000652c:	46b8      	mov	r8, r7
1000652e:	0025      	movs	r5, r4
10006530:	465f      	mov	r7, fp
10006532:	464c      	mov	r4, r9
10006534:	4699      	mov	r9, r3
10006536:	0022      	movs	r2, r4
10006538:	4643      	mov	r3, r8
1000653a:	3401      	adds	r4, #1
1000653c:	0039      	movs	r1, r7
1000653e:	2020      	movs	r0, #32
10006540:	47b0      	blx	r6
10006542:	42ac      	cmp	r4, r5
10006544:	d1f7      	bne.n	10006536 <_vsnprintf+0x33a>
10006546:	002c      	movs	r4, r5
10006548:	46bb      	mov	fp, r7
1000654a:	464d      	mov	r5, r9
1000654c:	4647      	mov	r7, r8
1000654e:	9b0c      	ldr	r3, [sp, #48]	@ 0x30
10006550:	930b      	str	r3, [sp, #44]	@ 0x2c
10006552:	e67c      	b.n	1000624e <_vsnprintf+0x52>
10006554:	100061fd 	.word	0x100061fd
10006558:	2003f270 	.word	0x2003f270
1000655c:	1000b400 	.word	0x1000b400
10006560:	1000b490 	.word	0x1000b490
10006564:	1000b444 	.word	0x1000b444
10006568:	00009041 	.word	0x00009041
1000656c:	4bdc      	ldr	r3, [pc, #880]	@ (100068e0 <_vsnprintf+0x6e4>)
1000656e:	7828      	ldrb	r0, [r5, #0]
10006570:	469b      	mov	fp, r3
10006572:	2300      	movs	r3, #0
10006574:	4699      	mov	r9, r3
10006576:	2800      	cmp	r0, #0
10006578:	d000      	beq.n	1000657c <_vsnprintf+0x380>
1000657a:	e658      	b.n	1000622e <_vsnprintf+0x32>
1000657c:	2400      	movs	r4, #0
1000657e:	e73c      	b.n	100063fa <_vsnprintf+0x1fe>
10006580:	9b0b      	ldr	r3, [sp, #44]	@ 0x2c
10006582:	cb02      	ldmia	r3!, {r1}
10006584:	9312      	str	r3, [sp, #72]	@ 0x48
10006586:	780b      	ldrb	r3, [r1, #0]
10006588:	469c      	mov	ip, r3
1000658a:	0018      	movs	r0, r3
1000658c:	4653      	mov	r3, sl
1000658e:	2b00      	cmp	r3, #0
10006590:	d000      	beq.n	10006594 <_vsnprintf+0x398>
10006592:	e09c      	b.n	100066ce <_vsnprintf+0x4d2>
10006594:	2800      	cmp	r0, #0
10006596:	d012      	beq.n	100065be <_vsnprintf+0x3c2>
10006598:	2302      	movs	r3, #2
1000659a:	425b      	negs	r3, r3
1000659c:	3301      	adds	r3, #1
1000659e:	4699      	mov	r9, r3
100065a0:	4489      	add	r9, r1
100065a2:	464a      	mov	r2, r9
100065a4:	000b      	movs	r3, r1
100065a6:	4689      	mov	r9, r1
100065a8:	0011      	movs	r1, r2
100065aa:	e001      	b.n	100065b0 <_vsnprintf+0x3b4>
100065ac:	428b      	cmp	r3, r1
100065ae:	d003      	beq.n	100065b8 <_vsnprintf+0x3bc>
100065b0:	785a      	ldrb	r2, [r3, #1]
100065b2:	3301      	adds	r3, #1
100065b4:	2a00      	cmp	r2, #0
100065b6:	d1f9      	bne.n	100065ac <_vsnprintf+0x3b0>
100065b8:	4649      	mov	r1, r9
100065ba:	1a5b      	subs	r3, r3, r1
100065bc:	930c      	str	r3, [sp, #48]	@ 0x30
100065be:	2380      	movs	r3, #128	@ 0x80
100065c0:	00db      	lsls	r3, r3, #3
100065c2:	4699      	mov	r9, r3
100065c4:	9a0a      	ldr	r2, [sp, #40]	@ 0x28
100065c6:	4013      	ands	r3, r2
100065c8:	930b      	str	r3, [sp, #44]	@ 0x2c
100065ca:	464b      	mov	r3, r9
100065cc:	421a      	tst	r2, r3
100065ce:	d004      	beq.n	100065da <_vsnprintf+0x3de>
100065d0:	9b0c      	ldr	r3, [sp, #48]	@ 0x30
100065d2:	4553      	cmp	r3, sl
100065d4:	d901      	bls.n	100065da <_vsnprintf+0x3de>
100065d6:	4653      	mov	r3, sl
100065d8:	930c      	str	r3, [sp, #48]	@ 0x30
100065da:	2302      	movs	r3, #2
100065dc:	4699      	mov	r9, r3
100065de:	9a0a      	ldr	r2, [sp, #40]	@ 0x28
100065e0:	4013      	ands	r3, r2
100065e2:	930a      	str	r3, [sp, #40]	@ 0x28
100065e4:	464b      	mov	r3, r9
100065e6:	4213      	tst	r3, r2
100065e8:	d100      	bne.n	100065ec <_vsnprintf+0x3f0>
100065ea:	e1b5      	b.n	10006958 <_vsnprintf+0x75c>
100065ec:	4663      	mov	r3, ip
100065ee:	2b00      	cmp	r3, #0
100065f0:	d100      	bne.n	100065f4 <_vsnprintf+0x3f8>
100065f2:	e197      	b.n	10006924 <_vsnprintf+0x728>
100065f4:	9b0b      	ldr	r3, [sp, #44]	@ 0x2c
100065f6:	2b00      	cmp	r3, #0
100065f8:	d100      	bne.n	100065fc <_vsnprintf+0x400>
100065fa:	e14c      	b.n	10006896 <_vsnprintf+0x69a>
100065fc:	46d1      	mov	r9, sl
100065fe:	1b0b      	subs	r3, r1, r4
10006600:	469a      	mov	sl, r3
10006602:	002b      	movs	r3, r5
10006604:	44a1      	add	r9, r4
10006606:	464d      	mov	r5, r9
10006608:	0022      	movs	r2, r4
1000660a:	46b9      	mov	r9, r7
1000660c:	465f      	mov	r7, fp
1000660e:	469b      	mov	fp, r3
10006610:	e009      	b.n	10006626 <_vsnprintf+0x42a>
10006612:	464b      	mov	r3, r9
10006614:	0039      	movs	r1, r7
10006616:	1c54      	adds	r4, r2, #1
10006618:	47b0      	blx	r6
1000661a:	4653      	mov	r3, sl
1000661c:	5d18      	ldrb	r0, [r3, r4]
1000661e:	2800      	cmp	r0, #0
10006620:	d100      	bne.n	10006624 <_vsnprintf+0x428>
10006622:	e158      	b.n	100068d6 <_vsnprintf+0x6da>
10006624:	0022      	movs	r2, r4
10006626:	4295      	cmp	r5, r2
10006628:	d1f3      	bne.n	10006612 <_vsnprintf+0x416>
1000662a:	465b      	mov	r3, fp
1000662c:	46bb      	mov	fp, r7
1000662e:	464f      	mov	r7, r9
10006630:	46a9      	mov	r9, r5
10006632:	001d      	movs	r5, r3
10006634:	464c      	mov	r4, r9
10006636:	9b0a      	ldr	r3, [sp, #40]	@ 0x28
10006638:	2b00      	cmp	r3, #0
1000663a:	d000      	beq.n	1000663e <_vsnprintf+0x442>
1000663c:	e172      	b.n	10006924 <_vsnprintf+0x728>
1000663e:	9b12      	ldr	r3, [sp, #72]	@ 0x48
10006640:	930b      	str	r3, [sp, #44]	@ 0x2c
10006642:	e604      	b.n	1000624e <_vsnprintf+0x52>
10006644:	4655      	mov	r5, sl
10006646:	9a0a      	ldr	r2, [sp, #40]	@ 0x28
10006648:	00a9      	lsls	r1, r5, #2
1000664a:	1949      	adds	r1, r1, r5
1000664c:	0049      	lsls	r1, r1, #1
1000664e:	3301      	adds	r3, #1
10006650:	180d      	adds	r5, r1, r0
10006652:	7818      	ldrb	r0, [r3, #0]
10006654:	3d30      	subs	r5, #48	@ 0x30
10006656:	0001      	movs	r1, r0
10006658:	3930      	subs	r1, #48	@ 0x30
1000665a:	2909      	cmp	r1, #9
1000665c:	d9f4      	bls.n	10006648 <_vsnprintf+0x44c>
1000665e:	46aa      	mov	sl, r5
10006660:	920a      	str	r2, [sp, #40]	@ 0x28
10006662:	001d      	movs	r5, r3
10006664:	1c59      	adds	r1, r3, #1
10006666:	e61e      	b.n	100062a6 <_vsnprintf+0xaa>
10006668:	9b0b      	ldr	r3, [sp, #44]	@ 0x2c
1000666a:	78a8      	ldrb	r0, [r5, #2]
1000666c:	cb04      	ldmia	r3!, {r2}
1000666e:	3502      	adds	r5, #2
10006670:	43d1      	mvns	r1, r2
10006672:	17c9      	asrs	r1, r1, #31
10006674:	400a      	ands	r2, r1
10006676:	4692      	mov	sl, r2
10006678:	930b      	str	r3, [sp, #44]	@ 0x2c
1000667a:	1c69      	adds	r1, r5, #1
1000667c:	e613      	b.n	100062a6 <_vsnprintf+0xaa>
1000667e:	9b0a      	ldr	r3, [sp, #40]	@ 0x28
10006680:	2110      	movs	r1, #16
10006682:	001a      	movs	r2, r3
10006684:	438a      	bics	r2, r1
10006686:	0010      	movs	r0, r2
10006688:	3111      	adds	r1, #17
1000668a:	4308      	orrs	r0, r1
1000668c:	4681      	mov	r9, r0
1000668e:	2080      	movs	r0, #128	@ 0x80
10006690:	001a      	movs	r2, r3
10006692:	00c0      	lsls	r0, r0, #3
10006694:	4002      	ands	r2, r0
10006696:	0011      	movs	r1, r2
10006698:	4203      	tst	r3, r0
1000669a:	d100      	bne.n	1000669e <_vsnprintf+0x4a2>
1000669c:	e657      	b.n	1000634e <_vsnprintf+0x152>
1000669e:	464b      	mov	r3, r9
100066a0:	2208      	movs	r2, #8
100066a2:	9306      	str	r3, [sp, #24]
100066a4:	4653      	mov	r3, sl
100066a6:	9205      	str	r2, [sp, #20]
100066a8:	3208      	adds	r2, #8
100066aa:	9203      	str	r2, [sp, #12]
100066ac:	2200      	movs	r2, #0
100066ae:	9304      	str	r3, [sp, #16]
100066b0:	9b0c      	ldr	r3, [sp, #48]	@ 0x30
100066b2:	9202      	str	r2, [sp, #8]
100066b4:	9301      	str	r3, [sp, #4]
100066b6:	ab18      	add	r3, sp, #96	@ 0x60
100066b8:	0022      	movs	r2, r4
100066ba:	9300      	str	r3, [sp, #0]
100066bc:	4659      	mov	r1, fp
100066be:	003b      	movs	r3, r7
100066c0:	0030      	movs	r0, r6
100066c2:	f7ff f873 	bl	100057ac <_ntoa_format>
100066c6:	4643      	mov	r3, r8
100066c8:	0004      	movs	r4, r0
100066ca:	930b      	str	r3, [sp, #44]	@ 0x2c
100066cc:	e5bf      	b.n	1000624e <_vsnprintf+0x52>
100066ce:	2800      	cmp	r0, #0
100066d0:	d100      	bne.n	100066d4 <_vsnprintf+0x4d8>
100066d2:	e774      	b.n	100065be <_vsnprintf+0x3c2>
100066d4:	4653      	mov	r3, sl
100066d6:	3b01      	subs	r3, #1
100066d8:	e760      	b.n	1000659c <_vsnprintf+0x3a0>
100066da:	2862      	cmp	r0, #98	@ 0x62
100066dc:	d100      	bne.n	100066e0 <_vsnprintf+0x4e4>
100066de:	e1df      	b.n	10006aa0 <_vsnprintf+0x8a4>
100066e0:	2858      	cmp	r0, #88	@ 0x58
100066e2:	d100      	bne.n	100066e6 <_vsnprintf+0x4ea>
100066e4:	e1ec      	b.n	10006ac0 <_vsnprintf+0x8c4>
100066e6:	990a      	ldr	r1, [sp, #40]	@ 0x28
100066e8:	2380      	movs	r3, #128	@ 0x80
100066ea:	000a      	movs	r2, r1
100066ec:	00db      	lsls	r3, r3, #3
100066ee:	401a      	ands	r2, r3
100066f0:	0010      	movs	r0, r2
100066f2:	000a      	movs	r2, r1
100066f4:	4219      	tst	r1, r3
100066f6:	d100      	bne.n	100066fa <_vsnprintf+0x4fe>
100066f8:	e1bd      	b.n	10006a76 <_vsnprintf+0x87a>
100066fa:	2311      	movs	r3, #17
100066fc:	439a      	bics	r2, r3
100066fe:	920c      	str	r2, [sp, #48]	@ 0x30
10006700:	9a0c      	ldr	r2, [sp, #48]	@ 0x30
10006702:	2380      	movs	r3, #128	@ 0x80
10006704:	0011      	movs	r1, r2
10006706:	009b      	lsls	r3, r3, #2
10006708:	4019      	ands	r1, r3
1000670a:	468c      	mov	ip, r1
1000670c:	421a      	tst	r2, r3
1000670e:	d000      	beq.n	10006712 <_vsnprintf+0x516>
10006710:	e146      	b.n	100069a0 <_vsnprintf+0x7a4>
10006712:	2380      	movs	r3, #128	@ 0x80
10006714:	0011      	movs	r1, r2
10006716:	005b      	lsls	r3, r3, #1
10006718:	4019      	ands	r1, r3
1000671a:	4689      	mov	r9, r1
1000671c:	990b      	ldr	r1, [sp, #44]	@ 0x2c
1000671e:	3104      	adds	r1, #4
10006720:	910a      	str	r1, [sp, #40]	@ 0x28
10006722:	421a      	tst	r2, r3
10006724:	d000      	beq.n	10006728 <_vsnprintf+0x52c>
10006726:	e28f      	b.n	10006c48 <_vsnprintf+0xa4c>
10006728:	0013      	movs	r3, r2
1000672a:	065b      	lsls	r3, r3, #25
1000672c:	d500      	bpl.n	10006730 <_vsnprintf+0x534>
1000672e:	e19e      	b.n	10006a6e <_vsnprintf+0x872>
10006730:	0013      	movs	r3, r2
10006732:	061b      	lsls	r3, r3, #24
10006734:	d400      	bmi.n	10006738 <_vsnprintf+0x53c>
10006736:	e326      	b.n	10006d86 <_vsnprintf+0xb8a>
10006738:	9b0b      	ldr	r3, [sp, #44]	@ 0x2c
1000673a:	2200      	movs	r2, #0
1000673c:	5e9b      	ldrsh	r3, [r3, r2]
1000673e:	17d9      	asrs	r1, r3, #31
10006740:	185a      	adds	r2, r3, r1
10006742:	404a      	eors	r2, r1
10006744:	b292      	uxth	r2, r2
10006746:	0fd9      	lsrs	r1, r3, #31
10006748:	910b      	str	r1, [sp, #44]	@ 0x2c
1000674a:	2b00      	cmp	r3, #0
1000674c:	d100      	bne.n	10006750 <_vsnprintf+0x554>
1000674e:	e277      	b.n	10006c40 <_vsnprintf+0xa44>
10006750:	0010      	movs	r0, r2
10006752:	aa10      	add	r2, sp, #64	@ 0x40
10006754:	4694      	mov	ip, r2
10006756:	4642      	mov	r2, r8
10006758:	231f      	movs	r3, #31
1000675a:	9212      	str	r2, [sp, #72]	@ 0x48
1000675c:	4652      	mov	r2, sl
1000675e:	4463      	add	r3, ip
10006760:	46aa      	mov	sl, r5
10006762:	9414      	str	r4, [sp, #80]	@ 0x50
10006764:	464d      	mov	r5, r9
10006766:	0004      	movs	r4, r0
10006768:	46b9      	mov	r9, r7
1000676a:	46b0      	mov	r8, r6
1000676c:	001f      	movs	r7, r3
1000676e:	9213      	str	r2, [sp, #76]	@ 0x4c
10006770:	e001      	b.n	10006776 <_vsnprintf+0x57a>
10006772:	2d20      	cmp	r5, #32
10006774:	d00f      	beq.n	10006796 <_vsnprintf+0x59a>
10006776:	0020      	movs	r0, r4
10006778:	210a      	movs	r1, #10
1000677a:	f000 fbdb 	bl	10006f34 <__wrap___aeabi_uidiv>
1000677e:	3501      	adds	r5, #1
10006780:	197e      	adds	r6, r7, r5
10006782:	3130      	adds	r1, #48	@ 0x30
10006784:	7031      	strb	r1, [r6, #0]
10006786:	0020      	movs	r0, r4
10006788:	210a      	movs	r1, #10
1000678a:	f000 fbd3 	bl	10006f34 <__wrap___aeabi_uidiv>
1000678e:	0026      	movs	r6, r4
10006790:	0004      	movs	r4, r0
10006792:	2e09      	cmp	r6, #9
10006794:	d8ed      	bhi.n	10006772 <_vsnprintf+0x576>
10006796:	9b12      	ldr	r3, [sp, #72]	@ 0x48
10006798:	4646      	mov	r6, r8
1000679a:	4698      	mov	r8, r3
1000679c:	9b13      	ldr	r3, [sp, #76]	@ 0x4c
1000679e:	464f      	mov	r7, r9
100067a0:	46a9      	mov	r9, r5
100067a2:	4655      	mov	r5, sl
100067a4:	469a      	mov	sl, r3
100067a6:	9c14      	ldr	r4, [sp, #80]	@ 0x50
100067a8:	9b0c      	ldr	r3, [sp, #48]	@ 0x30
100067aa:	9306      	str	r3, [sp, #24]
100067ac:	4643      	mov	r3, r8
100067ae:	9305      	str	r3, [sp, #20]
100067b0:	4653      	mov	r3, sl
100067b2:	9304      	str	r3, [sp, #16]
100067b4:	230a      	movs	r3, #10
100067b6:	9303      	str	r3, [sp, #12]
100067b8:	9b0b      	ldr	r3, [sp, #44]	@ 0x2c
100067ba:	9302      	str	r3, [sp, #8]
100067bc:	464b      	mov	r3, r9
100067be:	9301      	str	r3, [sp, #4]
100067c0:	ab18      	add	r3, sp, #96	@ 0x60
100067c2:	0022      	movs	r2, r4
100067c4:	9300      	str	r3, [sp, #0]
100067c6:	4659      	mov	r1, fp
100067c8:	003b      	movs	r3, r7
100067ca:	0030      	movs	r0, r6
100067cc:	f7fe ffee 	bl	100057ac <_ntoa_format>
100067d0:	9b0a      	ldr	r3, [sp, #40]	@ 0x28
100067d2:	0004      	movs	r4, r0
100067d4:	930b      	str	r3, [sp, #44]	@ 0x2c
100067d6:	e53a      	b.n	1000624e <_vsnprintf+0x52>
100067d8:	2320      	movs	r3, #32
100067da:	9a0a      	ldr	r2, [sp, #40]	@ 0x28
100067dc:	431a      	orrs	r2, r3
100067de:	920a      	str	r2, [sp, #40]	@ 0x28
100067e0:	e66f      	b.n	100064c2 <_vsnprintf+0x2c6>
100067e2:	2380      	movs	r3, #128	@ 0x80
100067e4:	9a0a      	ldr	r2, [sp, #40]	@ 0x28
100067e6:	011b      	lsls	r3, r3, #4
100067e8:	431a      	orrs	r2, r3
100067ea:	920a      	str	r2, [sp, #40]	@ 0x28
100067ec:	e637      	b.n	1000645e <_vsnprintf+0x262>
100067ee:	2878      	cmp	r0, #120	@ 0x78
100067f0:	d000      	beq.n	100067f4 <_vsnprintf+0x5f8>
100067f2:	e1af      	b.n	10006b54 <_vsnprintf+0x958>
100067f4:	980a      	ldr	r0, [sp, #40]	@ 0x28
100067f6:	2380      	movs	r3, #128	@ 0x80
100067f8:	0002      	movs	r2, r0
100067fa:	00db      	lsls	r3, r3, #3
100067fc:	401a      	ands	r2, r3
100067fe:	0011      	movs	r1, r2
10006800:	0002      	movs	r2, r0
10006802:	4218      	tst	r0, r3
10006804:	d100      	bne.n	10006808 <_vsnprintf+0x60c>
10006806:	e2d0      	b.n	10006daa <_vsnprintf+0xbae>
10006808:	230d      	movs	r3, #13
1000680a:	439a      	bics	r2, r3
1000680c:	0010      	movs	r0, r2
1000680e:	3303      	adds	r3, #3
10006810:	930a      	str	r3, [sp, #40]	@ 0x28
10006812:	2380      	movs	r3, #128	@ 0x80
10006814:	0002      	movs	r2, r0
10006816:	009b      	lsls	r3, r3, #2
10006818:	401a      	ands	r2, r3
1000681a:	4694      	mov	ip, r2
1000681c:	4218      	tst	r0, r3
1000681e:	d000      	beq.n	10006822 <_vsnprintf+0x626>
10006820:	e1ac      	b.n	10006b7c <_vsnprintf+0x980>
10006822:	2380      	movs	r3, #128	@ 0x80
10006824:	0002      	movs	r2, r0
10006826:	005b      	lsls	r3, r3, #1
10006828:	401a      	ands	r2, r3
1000682a:	4691      	mov	r9, r2
1000682c:	9a0b      	ldr	r2, [sp, #44]	@ 0x2c
1000682e:	3204      	adds	r2, #4
10006830:	920c      	str	r2, [sp, #48]	@ 0x30
10006832:	4218      	tst	r0, r3
10006834:	d000      	beq.n	10006838 <_vsnprintf+0x63c>
10006836:	e24a      	b.n	10006cce <_vsnprintf+0xad2>
10006838:	0643      	lsls	r3, r0, #25
1000683a:	d400      	bmi.n	1000683e <_vsnprintf+0x642>
1000683c:	e293      	b.n	10006d66 <_vsnprintf+0xb6a>
1000683e:	9b0b      	ldr	r3, [sp, #44]	@ 0x2c
10006840:	781b      	ldrb	r3, [r3, #0]
10006842:	9308      	str	r3, [sp, #32]
10006844:	2b00      	cmp	r3, #0
10006846:	d000      	beq.n	1000684a <_vsnprintf+0x64e>
10006848:	e14b      	b.n	10006ae2 <_vsnprintf+0x8e6>
1000684a:	3310      	adds	r3, #16
1000684c:	4398      	bics	r0, r3
1000684e:	2900      	cmp	r1, #0
10006850:	d100      	bne.n	10006854 <_vsnprintf+0x658>
10006852:	e146      	b.n	10006ae2 <_vsnprintf+0x8e6>
10006854:	2300      	movs	r3, #0
10006856:	4699      	mov	r9, r3
10006858:	4643      	mov	r3, r8
1000685a:	9305      	str	r3, [sp, #20]
1000685c:	4653      	mov	r3, sl
1000685e:	9304      	str	r3, [sp, #16]
10006860:	9b0a      	ldr	r3, [sp, #40]	@ 0x28
10006862:	9006      	str	r0, [sp, #24]
10006864:	9303      	str	r3, [sp, #12]
10006866:	2300      	movs	r3, #0
10006868:	9302      	str	r3, [sp, #8]
1000686a:	464b      	mov	r3, r9
1000686c:	9301      	str	r3, [sp, #4]
1000686e:	ab18      	add	r3, sp, #96	@ 0x60
10006870:	0022      	movs	r2, r4
10006872:	9300      	str	r3, [sp, #0]
10006874:	4659      	mov	r1, fp
10006876:	003b      	movs	r3, r7
10006878:	0030      	movs	r0, r6
1000687a:	f7fe ff97 	bl	100057ac <_ntoa_format>
1000687e:	0004      	movs	r4, r0
10006880:	e665      	b.n	1000654e <_vsnprintf+0x352>
10006882:	2380      	movs	r3, #128	@ 0x80
10006884:	9a0a      	ldr	r2, [sp, #40]	@ 0x28
10006886:	011b      	lsls	r3, r3, #4
10006888:	431a      	orrs	r2, r3
1000688a:	920a      	str	r2, [sp, #40]	@ 0x28
1000688c:	2320      	movs	r3, #32
1000688e:	9a0a      	ldr	r2, [sp, #40]	@ 0x28
10006890:	431a      	orrs	r2, r3
10006892:	920a      	str	r2, [sp, #40]	@ 0x28
10006894:	e5e3      	b.n	1000645e <_vsnprintf+0x262>
10006896:	1b0b      	subs	r3, r1, r4
10006898:	469a      	mov	sl, r3
1000689a:	9b0c      	ldr	r3, [sp, #48]	@ 0x30
1000689c:	4699      	mov	r9, r3
1000689e:	002b      	movs	r3, r5
100068a0:	465d      	mov	r5, fp
100068a2:	469b      	mov	fp, r3
100068a4:	0022      	movs	r2, r4
100068a6:	003b      	movs	r3, r7
100068a8:	0029      	movs	r1, r5
100068aa:	47b0      	blx	r6
100068ac:	4653      	mov	r3, sl
100068ae:	3401      	adds	r4, #1
100068b0:	5d18      	ldrb	r0, [r3, r4]
100068b2:	2800      	cmp	r0, #0
100068b4:	d1f6      	bne.n	100068a4 <_vsnprintf+0x6a8>
100068b6:	464b      	mov	r3, r9
100068b8:	930c      	str	r3, [sp, #48]	@ 0x30
100068ba:	465b      	mov	r3, fp
100068bc:	46ab      	mov	fp, r5
100068be:	001d      	movs	r5, r3
100068c0:	e6b9      	b.n	10006636 <_vsnprintf+0x43a>
100068c2:	23c0      	movs	r3, #192	@ 0xc0
100068c4:	009b      	lsls	r3, r3, #2
100068c6:	9a0a      	ldr	r2, [sp, #40]	@ 0x28
100068c8:	78a8      	ldrb	r0, [r5, #2]
100068ca:	431a      	orrs	r2, r3
100068cc:	920a      	str	r2, [sp, #40]	@ 0x28
100068ce:	1ce9      	adds	r1, r5, #3
100068d0:	e50d      	b.n	100062ee <_vsnprintf+0xf2>
100068d2:	23c0      	movs	r3, #192	@ 0xc0
100068d4:	e7f7      	b.n	100068c6 <_vsnprintf+0x6ca>
100068d6:	465d      	mov	r5, fp
100068d8:	46bb      	mov	fp, r7
100068da:	464f      	mov	r7, r9
100068dc:	e6ab      	b.n	10006636 <_vsnprintf+0x43a>
100068de:	46c0      	nop			@ (mov r8, r8)
100068e0:	10005719 	.word	0x10005719
100068e4:	4643      	mov	r3, r8
100068e6:	2b01      	cmp	r3, #1
100068e8:	d800      	bhi.n	100068ec <_vsnprintf+0x6f0>
100068ea:	e0d1      	b.n	10006a90 <_vsnprintf+0x894>
100068ec:	1e63      	subs	r3, r4, #1
100068ee:	4443      	add	r3, r8
100068f0:	46b9      	mov	r9, r7
100068f2:	001d      	movs	r5, r3
100068f4:	465f      	mov	r7, fp
100068f6:	46a2      	mov	sl, r4
100068f8:	468b      	mov	fp, r1
100068fa:	0022      	movs	r2, r4
100068fc:	464b      	mov	r3, r9
100068fe:	3401      	adds	r4, #1
10006900:	0039      	movs	r1, r7
10006902:	2020      	movs	r0, #32
10006904:	47b0      	blx	r6
10006906:	42ac      	cmp	r4, r5
10006908:	d1f7      	bne.n	100068fa <_vsnprintf+0x6fe>
1000690a:	465d      	mov	r5, fp
1000690c:	46bb      	mov	fp, r7
1000690e:	464f      	mov	r7, r9
10006910:	46a1      	mov	r9, r4
10006912:	4654      	mov	r4, sl
10006914:	9b0b      	ldr	r3, [sp, #44]	@ 0x2c
10006916:	464a      	mov	r2, r9
10006918:	7818      	ldrb	r0, [r3, #0]
1000691a:	4659      	mov	r1, fp
1000691c:	003b      	movs	r3, r7
1000691e:	4444      	add	r4, r8
10006920:	47b0      	blx	r6
10006922:	e614      	b.n	1000654e <_vsnprintf+0x352>
10006924:	9b0c      	ldr	r3, [sp, #48]	@ 0x30
10006926:	46a1      	mov	r9, r4
10006928:	4598      	cmp	r8, r3
1000692a:	d800      	bhi.n	1000692e <_vsnprintf+0x732>
1000692c:	e687      	b.n	1000663e <_vsnprintf+0x442>
1000692e:	4444      	add	r4, r8
10006930:	1ae4      	subs	r4, r4, r3
10006932:	002b      	movs	r3, r5
10006934:	46b8      	mov	r8, r7
10006936:	0025      	movs	r5, r4
10006938:	465f      	mov	r7, fp
1000693a:	464c      	mov	r4, r9
1000693c:	4699      	mov	r9, r3
1000693e:	0022      	movs	r2, r4
10006940:	4643      	mov	r3, r8
10006942:	3401      	adds	r4, #1
10006944:	0039      	movs	r1, r7
10006946:	2020      	movs	r0, #32
10006948:	47b0      	blx	r6
1000694a:	42ac      	cmp	r4, r5
1000694c:	d1f7      	bne.n	1000693e <_vsnprintf+0x742>
1000694e:	002c      	movs	r4, r5
10006950:	46bb      	mov	fp, r7
10006952:	464d      	mov	r5, r9
10006954:	4647      	mov	r7, r8
10006956:	e672      	b.n	1000663e <_vsnprintf+0x442>
10006958:	980c      	ldr	r0, [sp, #48]	@ 0x30
1000695a:	4580      	cmp	r8, r0
1000695c:	d800      	bhi.n	10006960 <_vsnprintf+0x764>
1000695e:	e21c      	b.n	10006d9a <_vsnprintf+0xb9e>
10006960:	4643      	mov	r3, r8
10006962:	191a      	adds	r2, r3, r4
10006964:	1a13      	subs	r3, r2, r0
10006966:	4699      	mov	r9, r3
10006968:	002b      	movs	r3, r5
1000696a:	464d      	mov	r5, r9
1000696c:	46b9      	mov	r9, r7
1000696e:	465f      	mov	r7, fp
10006970:	469b      	mov	fp, r3
10006972:	910c      	str	r1, [sp, #48]	@ 0x30
10006974:	0022      	movs	r2, r4
10006976:	464b      	mov	r3, r9
10006978:	3401      	adds	r4, #1
1000697a:	0039      	movs	r1, r7
1000697c:	2020      	movs	r0, #32
1000697e:	47b0      	blx	r6
10006980:	42ac      	cmp	r4, r5
10006982:	d1f7      	bne.n	10006974 <_vsnprintf+0x778>
10006984:	4643      	mov	r3, r8
10006986:	990c      	ldr	r1, [sp, #48]	@ 0x30
10006988:	3301      	adds	r3, #1
1000698a:	930c      	str	r3, [sp, #48]	@ 0x30
1000698c:	780b      	ldrb	r3, [r1, #0]
1000698e:	465d      	mov	r5, fp
10006990:	469c      	mov	ip, r3
10006992:	46bb      	mov	fp, r7
10006994:	464f      	mov	r7, r9
10006996:	4660      	mov	r0, ip
10006998:	2800      	cmp	r0, #0
1000699a:	d000      	beq.n	1000699e <_vsnprintf+0x7a2>
1000699c:	e62a      	b.n	100065f4 <_vsnprintf+0x3f8>
1000699e:	e64e      	b.n	1000663e <_vsnprintf+0x442>
100069a0:	2207      	movs	r2, #7
100069a2:	9b0b      	ldr	r3, [sp, #44]	@ 0x2c
100069a4:	3307      	adds	r3, #7
100069a6:	4393      	bics	r3, r2
100069a8:	3201      	adds	r2, #1
100069aa:	4694      	mov	ip, r2
100069ac:	449c      	add	ip, r3
100069ae:	4662      	mov	r2, ip
100069b0:	920b      	str	r2, [sp, #44]	@ 0x2c
100069b2:	cb0c      	ldmia	r3, {r2, r3}
100069b4:	0fd9      	lsrs	r1, r3, #31
100069b6:	910a      	str	r1, [sp, #40]	@ 0x28
100069b8:	0011      	movs	r1, r2
100069ba:	4319      	orrs	r1, r3
100069bc:	d05f      	beq.n	10006a7e <_vsnprintf+0x882>
100069be:	17d9      	asrs	r1, r3, #31
100069c0:	9111      	str	r1, [sp, #68]	@ 0x44
100069c2:	9110      	str	r1, [sp, #64]	@ 0x40
100069c4:	4051      	eors	r1, r2
100069c6:	910e      	str	r1, [sp, #56]	@ 0x38
100069c8:	9911      	ldr	r1, [sp, #68]	@ 0x44
100069ca:	4059      	eors	r1, r3
100069cc:	910f      	str	r1, [sp, #60]	@ 0x3c
100069ce:	980e      	ldr	r0, [sp, #56]	@ 0x38
100069d0:	990f      	ldr	r1, [sp, #60]	@ 0x3c
100069d2:	9a10      	ldr	r2, [sp, #64]	@ 0x40
100069d4:	9b11      	ldr	r3, [sp, #68]	@ 0x44
100069d6:	1a80      	subs	r0, r0, r2
100069d8:	4199      	sbcs	r1, r3
100069da:	900e      	str	r0, [sp, #56]	@ 0x38
100069dc:	910f      	str	r1, [sp, #60]	@ 0x3c
100069de:	aa10      	add	r2, sp, #64	@ 0x40
100069e0:	2300      	movs	r3, #0
100069e2:	4694      	mov	ip, r2
100069e4:	4642      	mov	r2, r8
100069e6:	4699      	mov	r9, r3
100069e8:	9212      	str	r2, [sp, #72]	@ 0x48
100069ea:	4652      	mov	r2, sl
100069ec:	331f      	adds	r3, #31
100069ee:	4463      	add	r3, ip
100069f0:	46b0      	mov	r8, r6
100069f2:	46aa      	mov	sl, r5
100069f4:	464e      	mov	r6, r9
100069f6:	9414      	str	r4, [sp, #80]	@ 0x50
100069f8:	46b9      	mov	r9, r7
100069fa:	9c0e      	ldr	r4, [sp, #56]	@ 0x38
100069fc:	9d0f      	ldr	r5, [sp, #60]	@ 0x3c
100069fe:	001f      	movs	r7, r3
10006a00:	9213      	str	r2, [sp, #76]	@ 0x4c
10006a02:	e001      	b.n	10006a08 <_vsnprintf+0x80c>
10006a04:	2e20      	cmp	r6, #32
10006a06:	d010      	beq.n	10006a2a <_vsnprintf+0x82e>
10006a08:	0020      	movs	r0, r4
10006a0a:	0029      	movs	r1, r5
10006a0c:	220a      	movs	r2, #10
10006a0e:	2300      	movs	r3, #0
10006a10:	f000 face 	bl	10006fb0 <__wrap___aeabi_uldivmod>
10006a14:	3601      	adds	r6, #1
10006a16:	3230      	adds	r2, #48	@ 0x30
10006a18:	002b      	movs	r3, r5
10006a1a:	55ba      	strb	r2, [r7, r6]
10006a1c:	000d      	movs	r5, r1
10006a1e:	0022      	movs	r2, r4
10006a20:	0004      	movs	r4, r0
10006a22:	2b00      	cmp	r3, #0
10006a24:	d1ee      	bne.n	10006a04 <_vsnprintf+0x808>
10006a26:	2a09      	cmp	r2, #9
10006a28:	d8ec      	bhi.n	10006a04 <_vsnprintf+0x808>
10006a2a:	9b12      	ldr	r3, [sp, #72]	@ 0x48
10006a2c:	464f      	mov	r7, r9
10006a2e:	46b1      	mov	r9, r6
10006a30:	4646      	mov	r6, r8
10006a32:	4698      	mov	r8, r3
10006a34:	9b13      	ldr	r3, [sp, #76]	@ 0x4c
10006a36:	940e      	str	r4, [sp, #56]	@ 0x38
10006a38:	950f      	str	r5, [sp, #60]	@ 0x3c
10006a3a:	4655      	mov	r5, sl
10006a3c:	469a      	mov	sl, r3
10006a3e:	9c14      	ldr	r4, [sp, #80]	@ 0x50
10006a40:	9b0c      	ldr	r3, [sp, #48]	@ 0x30
10006a42:	9306      	str	r3, [sp, #24]
10006a44:	4643      	mov	r3, r8
10006a46:	9305      	str	r3, [sp, #20]
10006a48:	4653      	mov	r3, sl
10006a4a:	9304      	str	r3, [sp, #16]
10006a4c:	230a      	movs	r3, #10
10006a4e:	9303      	str	r3, [sp, #12]
10006a50:	9b0a      	ldr	r3, [sp, #40]	@ 0x28
10006a52:	9302      	str	r3, [sp, #8]
10006a54:	464b      	mov	r3, r9
10006a56:	9301      	str	r3, [sp, #4]
10006a58:	ab18      	add	r3, sp, #96	@ 0x60
10006a5a:	0022      	movs	r2, r4
10006a5c:	9300      	str	r3, [sp, #0]
10006a5e:	4659      	mov	r1, fp
10006a60:	003b      	movs	r3, r7
10006a62:	0030      	movs	r0, r6
10006a64:	f7fe fea2 	bl	100057ac <_ntoa_format>
10006a68:	0004      	movs	r4, r0
10006a6a:	f7ff fbf0 	bl	1000624e <_vsnprintf+0x52>
10006a6e:	9b0b      	ldr	r3, [sp, #44]	@ 0x2c
10006a70:	781b      	ldrb	r3, [r3, #0]
10006a72:	001a      	movs	r2, r3
10006a74:	e667      	b.n	10006746 <_vsnprintf+0x54a>
10006a76:	2310      	movs	r3, #16
10006a78:	439a      	bics	r2, r3
10006a7a:	920c      	str	r2, [sp, #48]	@ 0x30
10006a7c:	e640      	b.n	10006700 <_vsnprintf+0x504>
10006a7e:	2300      	movs	r3, #0
10006a80:	4699      	mov	r9, r3
10006a82:	2800      	cmp	r0, #0
10006a84:	d1dc      	bne.n	10006a40 <_vsnprintf+0x844>
10006a86:	2200      	movs	r2, #0
10006a88:	2300      	movs	r3, #0
10006a8a:	920e      	str	r2, [sp, #56]	@ 0x38
10006a8c:	930f      	str	r3, [sp, #60]	@ 0x3c
10006a8e:	e7a6      	b.n	100069de <_vsnprintf+0x7e2>
10006a90:	9b0b      	ldr	r3, [sp, #44]	@ 0x2c
10006a92:	0022      	movs	r2, r4
10006a94:	7818      	ldrb	r0, [r3, #0]
10006a96:	4659      	mov	r1, fp
10006a98:	003b      	movs	r3, r7
10006a9a:	47b0      	blx	r6
10006a9c:	464c      	mov	r4, r9
10006a9e:	e556      	b.n	1000654e <_vsnprintf+0x352>
10006aa0:	980a      	ldr	r0, [sp, #40]	@ 0x28
10006aa2:	2380      	movs	r3, #128	@ 0x80
10006aa4:	0002      	movs	r2, r0
10006aa6:	00db      	lsls	r3, r3, #3
10006aa8:	401a      	ands	r2, r3
10006aaa:	0011      	movs	r1, r2
10006aac:	4218      	tst	r0, r3
10006aae:	d100      	bne.n	10006ab2 <_vsnprintf+0x8b6>
10006ab0:	e15f      	b.n	10006d72 <_vsnprintf+0xb76>
10006ab2:	0002      	movs	r2, r0
10006ab4:	230d      	movs	r3, #13
10006ab6:	439a      	bics	r2, r3
10006ab8:	3b0b      	subs	r3, #11
10006aba:	0010      	movs	r0, r2
10006abc:	930a      	str	r3, [sp, #40]	@ 0x28
10006abe:	e6a8      	b.n	10006812 <_vsnprintf+0x616>
10006ac0:	980a      	ldr	r0, [sp, #40]	@ 0x28
10006ac2:	2380      	movs	r3, #128	@ 0x80
10006ac4:	0002      	movs	r2, r0
10006ac6:	00db      	lsls	r3, r3, #3
10006ac8:	401a      	ands	r2, r3
10006aca:	0011      	movs	r1, r2
10006acc:	0002      	movs	r2, r0
10006ace:	4218      	tst	r0, r3
10006ad0:	d100      	bne.n	10006ad4 <_vsnprintf+0x8d8>
10006ad2:	e166      	b.n	10006da2 <_vsnprintf+0xba6>
10006ad4:	230d      	movs	r3, #13
10006ad6:	2020      	movs	r0, #32
10006ad8:	439a      	bics	r2, r3
10006ada:	3303      	adds	r3, #3
10006adc:	4310      	orrs	r0, r2
10006ade:	930a      	str	r3, [sp, #40]	@ 0x28
10006ae0:	e697      	b.n	10006812 <_vsnprintf+0x616>
10006ae2:	2361      	movs	r3, #97	@ 0x61
10006ae4:	0682      	lsls	r2, r0, #26
10006ae6:	d500      	bpl.n	10006aea <_vsnprintf+0x8ee>
10006ae8:	2341      	movs	r3, #65	@ 0x41
10006aea:	b2db      	uxtb	r3, r3
10006aec:	3b0a      	subs	r3, #10
10006aee:	930b      	str	r3, [sp, #44]	@ 0x2c
10006af0:	4643      	mov	r3, r8
10006af2:	a910      	add	r1, sp, #64	@ 0x40
10006af4:	221f      	movs	r2, #31
10006af6:	468c      	mov	ip, r1
10006af8:	9312      	str	r3, [sp, #72]	@ 0x48
10006afa:	4653      	mov	r3, sl
10006afc:	4462      	add	r2, ip
10006afe:	46aa      	mov	sl, r5
10006b00:	9414      	str	r4, [sp, #80]	@ 0x50
10006b02:	9715      	str	r7, [sp, #84]	@ 0x54
10006b04:	464c      	mov	r4, r9
10006b06:	4680      	mov	r8, r0
10006b08:	46b1      	mov	r9, r6
10006b0a:	0017      	movs	r7, r2
10006b0c:	9e0a      	ldr	r6, [sp, #40]	@ 0x28
10006b0e:	9d08      	ldr	r5, [sp, #32]
10006b10:	9313      	str	r3, [sp, #76]	@ 0x4c
10006b12:	e008      	b.n	10006b26 <_vsnprintf+0x92a>
10006b14:	3330      	adds	r3, #48	@ 0x30
10006b16:	b2db      	uxtb	r3, r3
10006b18:	3401      	adds	r4, #1
10006b1a:	553b      	strb	r3, [r7, r4]
10006b1c:	42b5      	cmp	r5, r6
10006b1e:	d30e      	bcc.n	10006b3e <_vsnprintf+0x942>
10006b20:	2c20      	cmp	r4, #32
10006b22:	d00c      	beq.n	10006b3e <_vsnprintf+0x942>
10006b24:	0005      	movs	r5, r0
10006b26:	0031      	movs	r1, r6
10006b28:	0028      	movs	r0, r5
10006b2a:	f000 fa03 	bl	10006f34 <__wrap___aeabi_uidiv>
10006b2e:	b2cb      	uxtb	r3, r1
10006b30:	2909      	cmp	r1, #9
10006b32:	d9ef      	bls.n	10006b14 <_vsnprintf+0x918>
10006b34:	9a0b      	ldr	r2, [sp, #44]	@ 0x2c
10006b36:	4694      	mov	ip, r2
10006b38:	4463      	add	r3, ip
10006b3a:	b2db      	uxtb	r3, r3
10006b3c:	e7ec      	b.n	10006b18 <_vsnprintf+0x91c>
10006b3e:	9b12      	ldr	r3, [sp, #72]	@ 0x48
10006b40:	4640      	mov	r0, r8
10006b42:	4698      	mov	r8, r3
10006b44:	9b13      	ldr	r3, [sp, #76]	@ 0x4c
10006b46:	464e      	mov	r6, r9
10006b48:	4655      	mov	r5, sl
10006b4a:	46a1      	mov	r9, r4
10006b4c:	469a      	mov	sl, r3
10006b4e:	9c14      	ldr	r4, [sp, #80]	@ 0x50
10006b50:	9f15      	ldr	r7, [sp, #84]	@ 0x54
10006b52:	e681      	b.n	10006858 <_vsnprintf+0x65c>
10006b54:	286f      	cmp	r0, #111	@ 0x6f
10006b56:	d000      	beq.n	10006b5a <_vsnprintf+0x95e>
10006b58:	e137      	b.n	10006dca <_vsnprintf+0xbce>
10006b5a:	990a      	ldr	r1, [sp, #40]	@ 0x28
10006b5c:	230c      	movs	r3, #12
10006b5e:	000a      	movs	r2, r1
10006b60:	439a      	bics	r2, r3
10006b62:	2380      	movs	r3, #128	@ 0x80
10006b64:	0010      	movs	r0, r2
10006b66:	000a      	movs	r2, r1
10006b68:	00db      	lsls	r3, r3, #3
10006b6a:	401a      	ands	r2, r3
10006b6c:	0011      	movs	r1, r2
10006b6e:	9a0a      	ldr	r2, [sp, #40]	@ 0x28
10006b70:	421a      	tst	r2, r3
10006b72:	d000      	beq.n	10006b76 <_vsnprintf+0x97a>
10006b74:	e121      	b.n	10006dba <_vsnprintf+0xbbe>
10006b76:	2308      	movs	r3, #8
10006b78:	930a      	str	r3, [sp, #40]	@ 0x28
10006b7a:	e64a      	b.n	10006812 <_vsnprintf+0x616>
10006b7c:	9a0b      	ldr	r2, [sp, #44]	@ 0x2c
10006b7e:	3bfa      	subs	r3, #250	@ 0xfa
10006b80:	3bff      	subs	r3, #255	@ 0xff
10006b82:	3207      	adds	r2, #7
10006b84:	439a      	bics	r2, r3
10006b86:	3301      	adds	r3, #1
10006b88:	469c      	mov	ip, r3
10006b8a:	4494      	add	ip, r2
10006b8c:	4663      	mov	r3, ip
10006b8e:	930b      	str	r3, [sp, #44]	@ 0x2c
10006b90:	6813      	ldr	r3, [r2, #0]
10006b92:	6852      	ldr	r2, [r2, #4]
10006b94:	9308      	str	r3, [sp, #32]
10006b96:	4313      	orrs	r3, r2
10006b98:	9212      	str	r2, [sp, #72]	@ 0x48
10006b9a:	1e1a      	subs	r2, r3, #0
10006b9c:	d105      	bne.n	10006baa <_vsnprintf+0x9ae>
10006b9e:	2300      	movs	r3, #0
10006ba0:	3210      	adds	r2, #16
10006ba2:	4699      	mov	r9, r3
10006ba4:	4390      	bics	r0, r2
10006ba6:	2900      	cmp	r1, #0
10006ba8:	d141      	bne.n	10006c2e <_vsnprintf+0xa32>
10006baa:	2261      	movs	r2, #97	@ 0x61
10006bac:	0681      	lsls	r1, r0, #26
10006bae:	d500      	bpl.n	10006bb2 <_vsnprintf+0x9b6>
10006bb0:	2241      	movs	r2, #65	@ 0x41
10006bb2:	b2d2      	uxtb	r2, r2
10006bb4:	3a0a      	subs	r2, #10
10006bb6:	920c      	str	r2, [sp, #48]	@ 0x30
10006bb8:	4642      	mov	r2, r8
10006bba:	2300      	movs	r3, #0
10006bbc:	a910      	add	r1, sp, #64	@ 0x40
10006bbe:	9213      	str	r2, [sp, #76]	@ 0x4c
10006bc0:	4652      	mov	r2, sl
10006bc2:	468c      	mov	ip, r1
10006bc4:	4699      	mov	r9, r3
10006bc6:	9214      	str	r2, [sp, #80]	@ 0x50
10006bc8:	331f      	adds	r3, #31
10006bca:	9a0a      	ldr	r2, [sp, #40]	@ 0x28
10006bcc:	4463      	add	r3, ip
10006bce:	46aa      	mov	sl, r5
10006bd0:	9415      	str	r4, [sp, #84]	@ 0x54
10006bd2:	9617      	str	r6, [sp, #92]	@ 0x5c
10006bd4:	464c      	mov	r4, r9
10006bd6:	4690      	mov	r8, r2
10006bd8:	46b9      	mov	r9, r7
10006bda:	9e08      	ldr	r6, [sp, #32]
10006bdc:	001f      	movs	r7, r3
10006bde:	9d12      	ldr	r5, [sp, #72]	@ 0x48
10006be0:	9016      	str	r0, [sp, #88]	@ 0x58
10006be2:	e00a      	b.n	10006bfa <_vsnprintf+0x9fe>
10006be4:	3230      	adds	r2, #48	@ 0x30
10006be6:	b2d2      	uxtb	r2, r2
10006be8:	2300      	movs	r3, #0
10006bea:	3401      	adds	r4, #1
10006bec:	553a      	strb	r2, [r7, r4]
10006bee:	42ab      	cmp	r3, r5
10006bf0:	d011      	beq.n	10006c16 <_vsnprintf+0xa1a>
10006bf2:	2c20      	cmp	r4, #32
10006bf4:	d011      	beq.n	10006c1a <_vsnprintf+0xa1e>
10006bf6:	0006      	movs	r6, r0
10006bf8:	000d      	movs	r5, r1
10006bfa:	4642      	mov	r2, r8
10006bfc:	2300      	movs	r3, #0
10006bfe:	0030      	movs	r0, r6
10006c00:	0029      	movs	r1, r5
10006c02:	f000 f9d5 	bl	10006fb0 <__wrap___aeabi_uldivmod>
10006c06:	b2d2      	uxtb	r2, r2
10006c08:	2a09      	cmp	r2, #9
10006c0a:	d9eb      	bls.n	10006be4 <_vsnprintf+0x9e8>
10006c0c:	9b0c      	ldr	r3, [sp, #48]	@ 0x30
10006c0e:	469c      	mov	ip, r3
10006c10:	4462      	add	r2, ip
10006c12:	b2d2      	uxtb	r2, r2
10006c14:	e7e8      	b.n	10006be8 <_vsnprintf+0x9ec>
10006c16:	45b0      	cmp	r8, r6
10006c18:	d9eb      	bls.n	10006bf2 <_vsnprintf+0x9f6>
10006c1a:	9b13      	ldr	r3, [sp, #76]	@ 0x4c
10006c1c:	4655      	mov	r5, sl
10006c1e:	4698      	mov	r8, r3
10006c20:	9b14      	ldr	r3, [sp, #80]	@ 0x50
10006c22:	464f      	mov	r7, r9
10006c24:	469a      	mov	sl, r3
10006c26:	46a1      	mov	r9, r4
10006c28:	9816      	ldr	r0, [sp, #88]	@ 0x58
10006c2a:	9e17      	ldr	r6, [sp, #92]	@ 0x5c
10006c2c:	9c15      	ldr	r4, [sp, #84]	@ 0x54
10006c2e:	4643      	mov	r3, r8
10006c30:	9305      	str	r3, [sp, #20]
10006c32:	4653      	mov	r3, sl
10006c34:	9304      	str	r3, [sp, #16]
10006c36:	9b0a      	ldr	r3, [sp, #40]	@ 0x28
10006c38:	9006      	str	r0, [sp, #24]
10006c3a:	9303      	str	r3, [sp, #12]
10006c3c:	2300      	movs	r3, #0
10006c3e:	e708      	b.n	10006a52 <_vsnprintf+0x856>
10006c40:	2800      	cmp	r0, #0
10006c42:	d000      	beq.n	10006c46 <_vsnprintf+0xa4a>
10006c44:	e5b0      	b.n	100067a8 <_vsnprintf+0x5ac>
10006c46:	e584      	b.n	10006752 <_vsnprintf+0x556>
10006c48:	9b0b      	ldr	r3, [sp, #44]	@ 0x2c
10006c4a:	681b      	ldr	r3, [r3, #0]
10006c4c:	0fda      	lsrs	r2, r3, #31
10006c4e:	0011      	movs	r1, r2
10006c50:	2b00      	cmp	r3, #0
10006c52:	d100      	bne.n	10006c56 <_vsnprintf+0xa5a>
10006c54:	e094      	b.n	10006d80 <_vsnprintf+0xb84>
10006c56:	17da      	asrs	r2, r3, #31
10006c58:	1898      	adds	r0, r3, r2
10006c5a:	4050      	eors	r0, r2
10006c5c:	aa10      	add	r2, sp, #64	@ 0x40
10006c5e:	4691      	mov	r9, r2
10006c60:	4642      	mov	r2, r8
10006c62:	231f      	movs	r3, #31
10006c64:	9212      	str	r2, [sp, #72]	@ 0x48
10006c66:	4652      	mov	r2, sl
10006c68:	444b      	add	r3, r9
10006c6a:	46a0      	mov	r8, r4
10006c6c:	46aa      	mov	sl, r5
10006c6e:	9714      	str	r7, [sp, #80]	@ 0x50
10006c70:	0004      	movs	r4, r0
10006c72:	46b1      	mov	r9, r6
10006c74:	4665      	mov	r5, ip
10006c76:	001f      	movs	r7, r3
10006c78:	910b      	str	r1, [sp, #44]	@ 0x2c
10006c7a:	9213      	str	r2, [sp, #76]	@ 0x4c
10006c7c:	e001      	b.n	10006c82 <_vsnprintf+0xa86>
10006c7e:	2d20      	cmp	r5, #32
10006c80:	d00f      	beq.n	10006ca2 <_vsnprintf+0xaa6>
10006c82:	0020      	movs	r0, r4
10006c84:	210a      	movs	r1, #10
10006c86:	f000 f955 	bl	10006f34 <__wrap___aeabi_uidiv>
10006c8a:	3501      	adds	r5, #1
10006c8c:	197e      	adds	r6, r7, r5
10006c8e:	3130      	adds	r1, #48	@ 0x30
10006c90:	7031      	strb	r1, [r6, #0]
10006c92:	0020      	movs	r0, r4
10006c94:	210a      	movs	r1, #10
10006c96:	f000 f94d 	bl	10006f34 <__wrap___aeabi_uidiv>
10006c9a:	0026      	movs	r6, r4
10006c9c:	0004      	movs	r4, r0
10006c9e:	2e09      	cmp	r6, #9
10006ca0:	d8ed      	bhi.n	10006c7e <_vsnprintf+0xa82>
10006ca2:	9b12      	ldr	r3, [sp, #72]	@ 0x48
10006ca4:	4644      	mov	r4, r8
10006ca6:	4698      	mov	r8, r3
10006ca8:	9b0b      	ldr	r3, [sp, #44]	@ 0x2c
10006caa:	46ac      	mov	ip, r5
10006cac:	0019      	movs	r1, r3
10006cae:	9b13      	ldr	r3, [sp, #76]	@ 0x4c
10006cb0:	4655      	mov	r5, sl
10006cb2:	464e      	mov	r6, r9
10006cb4:	469a      	mov	sl, r3
10006cb6:	9f14      	ldr	r7, [sp, #80]	@ 0x50
10006cb8:	9b0c      	ldr	r3, [sp, #48]	@ 0x30
10006cba:	9102      	str	r1, [sp, #8]
10006cbc:	9306      	str	r3, [sp, #24]
10006cbe:	4643      	mov	r3, r8
10006cc0:	9305      	str	r3, [sp, #20]
10006cc2:	4653      	mov	r3, sl
10006cc4:	9304      	str	r3, [sp, #16]
10006cc6:	230a      	movs	r3, #10
10006cc8:	9303      	str	r3, [sp, #12]
10006cca:	4663      	mov	r3, ip
10006ccc:	e577      	b.n	100067be <_vsnprintf+0x5c2>
10006cce:	9b0b      	ldr	r3, [sp, #44]	@ 0x2c
10006cd0:	681b      	ldr	r3, [r3, #0]
10006cd2:	9308      	str	r3, [sp, #32]
10006cd4:	2b00      	cmp	r3, #0
10006cd6:	d103      	bne.n	10006ce0 <_vsnprintf+0xae4>
10006cd8:	3310      	adds	r3, #16
10006cda:	4398      	bics	r0, r3
10006cdc:	2900      	cmp	r1, #0
10006cde:	d137      	bne.n	10006d50 <_vsnprintf+0xb54>
10006ce0:	2361      	movs	r3, #97	@ 0x61
10006ce2:	0682      	lsls	r2, r0, #26
10006ce4:	d500      	bpl.n	10006ce8 <_vsnprintf+0xaec>
10006ce6:	2341      	movs	r3, #65	@ 0x41
10006ce8:	b2db      	uxtb	r3, r3
10006cea:	3b0a      	subs	r3, #10
10006cec:	930b      	str	r3, [sp, #44]	@ 0x2c
10006cee:	4643      	mov	r3, r8
10006cf0:	a910      	add	r1, sp, #64	@ 0x40
10006cf2:	4689      	mov	r9, r1
10006cf4:	221f      	movs	r2, #31
10006cf6:	9312      	str	r3, [sp, #72]	@ 0x48
10006cf8:	4653      	mov	r3, sl
10006cfa:	444a      	add	r2, r9
10006cfc:	46aa      	mov	sl, r5
10006cfe:	46b1      	mov	r9, r6
10006d00:	9414      	str	r4, [sp, #80]	@ 0x50
10006d02:	9715      	str	r7, [sp, #84]	@ 0x54
10006d04:	4664      	mov	r4, ip
10006d06:	4680      	mov	r8, r0
10006d08:	0017      	movs	r7, r2
10006d0a:	9d08      	ldr	r5, [sp, #32]
10006d0c:	9e0a      	ldr	r6, [sp, #40]	@ 0x28
10006d0e:	9313      	str	r3, [sp, #76]	@ 0x4c
10006d10:	e008      	b.n	10006d24 <_vsnprintf+0xb28>
10006d12:	3330      	adds	r3, #48	@ 0x30
10006d14:	b2db      	uxtb	r3, r3
10006d16:	3401      	adds	r4, #1
10006d18:	553b      	strb	r3, [r7, r4]
10006d1a:	42b5      	cmp	r5, r6
10006d1c:	d30e      	bcc.n	10006d3c <_vsnprintf+0xb40>
10006d1e:	2c20      	cmp	r4, #32
10006d20:	d00c      	beq.n	10006d3c <_vsnprintf+0xb40>
10006d22:	0005      	movs	r5, r0
10006d24:	0031      	movs	r1, r6
10006d26:	0028      	movs	r0, r5
10006d28:	f000 f904 	bl	10006f34 <__wrap___aeabi_uidiv>
10006d2c:	b2cb      	uxtb	r3, r1
10006d2e:	2909      	cmp	r1, #9
10006d30:	d9ef      	bls.n	10006d12 <_vsnprintf+0xb16>
10006d32:	9a0b      	ldr	r2, [sp, #44]	@ 0x2c
10006d34:	4694      	mov	ip, r2
10006d36:	4463      	add	r3, ip
10006d38:	b2db      	uxtb	r3, r3
10006d3a:	e7ec      	b.n	10006d16 <_vsnprintf+0xb1a>
10006d3c:	9b12      	ldr	r3, [sp, #72]	@ 0x48
10006d3e:	4640      	mov	r0, r8
10006d40:	4698      	mov	r8, r3
10006d42:	9b13      	ldr	r3, [sp, #76]	@ 0x4c
10006d44:	4655      	mov	r5, sl
10006d46:	464e      	mov	r6, r9
10006d48:	469a      	mov	sl, r3
10006d4a:	46a4      	mov	ip, r4
10006d4c:	9f15      	ldr	r7, [sp, #84]	@ 0x54
10006d4e:	9c14      	ldr	r4, [sp, #80]	@ 0x50
10006d50:	4643      	mov	r3, r8
10006d52:	9305      	str	r3, [sp, #20]
10006d54:	4653      	mov	r3, sl
10006d56:	9304      	str	r3, [sp, #16]
10006d58:	9b0a      	ldr	r3, [sp, #40]	@ 0x28
10006d5a:	9006      	str	r0, [sp, #24]
10006d5c:	9303      	str	r3, [sp, #12]
10006d5e:	2300      	movs	r3, #0
10006d60:	9302      	str	r3, [sp, #8]
10006d62:	4663      	mov	r3, ip
10006d64:	e582      	b.n	1000686c <_vsnprintf+0x670>
10006d66:	0603      	lsls	r3, r0, #24
10006d68:	d513      	bpl.n	10006d92 <_vsnprintf+0xb96>
10006d6a:	9b0b      	ldr	r3, [sp, #44]	@ 0x2c
10006d6c:	881b      	ldrh	r3, [r3, #0]
10006d6e:	9308      	str	r3, [sp, #32]
10006d70:	e568      	b.n	10006844 <_vsnprintf+0x648>
10006d72:	0002      	movs	r2, r0
10006d74:	230c      	movs	r3, #12
10006d76:	439a      	bics	r2, r3
10006d78:	3b0a      	subs	r3, #10
10006d7a:	0010      	movs	r0, r2
10006d7c:	930a      	str	r3, [sp, #40]	@ 0x28
10006d7e:	e548      	b.n	10006812 <_vsnprintf+0x616>
10006d80:	2800      	cmp	r0, #0
10006d82:	d199      	bne.n	10006cb8 <_vsnprintf+0xabc>
10006d84:	e76a      	b.n	10006c5c <_vsnprintf+0xa60>
10006d86:	9b0b      	ldr	r3, [sp, #44]	@ 0x2c
10006d88:	681b      	ldr	r3, [r3, #0]
10006d8a:	17d9      	asrs	r1, r3, #31
10006d8c:	185a      	adds	r2, r3, r1
10006d8e:	404a      	eors	r2, r1
10006d90:	e4d9      	b.n	10006746 <_vsnprintf+0x54a>
10006d92:	9b0b      	ldr	r3, [sp, #44]	@ 0x2c
10006d94:	681b      	ldr	r3, [r3, #0]
10006d96:	9308      	str	r3, [sp, #32]
10006d98:	e554      	b.n	10006844 <_vsnprintf+0x648>
10006d9a:	0003      	movs	r3, r0
10006d9c:	3301      	adds	r3, #1
10006d9e:	930c      	str	r3, [sp, #48]	@ 0x30
10006da0:	e5f9      	b.n	10006996 <_vsnprintf+0x79a>
10006da2:	2320      	movs	r3, #32
10006da4:	9a0a      	ldr	r2, [sp, #40]	@ 0x28
10006da6:	431a      	orrs	r2, r3
10006da8:	920a      	str	r2, [sp, #40]	@ 0x28
10006daa:	230c      	movs	r3, #12
10006dac:	9a0a      	ldr	r2, [sp, #40]	@ 0x28
10006dae:	2100      	movs	r1, #0
10006db0:	439a      	bics	r2, r3
10006db2:	3304      	adds	r3, #4
10006db4:	0010      	movs	r0, r2
10006db6:	930a      	str	r3, [sp, #40]	@ 0x28
10006db8:	e52b      	b.n	10006812 <_vsnprintf+0x616>
10006dba:	9b0a      	ldr	r3, [sp, #40]	@ 0x28
10006dbc:	930c      	str	r3, [sp, #48]	@ 0x30
10006dbe:	2308      	movs	r3, #8
10006dc0:	930a      	str	r3, [sp, #40]	@ 0x28
10006dc2:	230d      	movs	r3, #13
10006dc4:	980c      	ldr	r0, [sp, #48]	@ 0x30
10006dc6:	4398      	bics	r0, r3
10006dc8:	e523      	b.n	10006812 <_vsnprintf+0x616>
10006dca:	2310      	movs	r3, #16
10006dcc:	9a0a      	ldr	r2, [sp, #40]	@ 0x28
10006dce:	439a      	bics	r2, r3
10006dd0:	920c      	str	r2, [sp, #48]	@ 0x30
10006dd2:	2869      	cmp	r0, #105	@ 0x69
10006dd4:	d10a      	bne.n	10006dec <_vsnprintf+0xbf0>
10006dd6:	990a      	ldr	r1, [sp, #40]	@ 0x28
10006dd8:	2380      	movs	r3, #128	@ 0x80
10006dda:	000a      	movs	r2, r1
10006ddc:	00db      	lsls	r3, r3, #3
10006dde:	401a      	ands	r2, r3
10006de0:	0010      	movs	r0, r2
10006de2:	000a      	movs	r2, r1
10006de4:	4219      	tst	r1, r3
10006de6:	d100      	bne.n	10006dea <_vsnprintf+0xbee>
10006de8:	e48a      	b.n	10006700 <_vsnprintf+0x504>
10006dea:	e486      	b.n	100066fa <_vsnprintf+0x4fe>
10006dec:	990a      	ldr	r1, [sp, #40]	@ 0x28
10006dee:	231c      	movs	r3, #28
10006df0:	000a      	movs	r2, r1
10006df2:	439a      	bics	r2, r3
10006df4:	2380      	movs	r3, #128	@ 0x80
10006df6:	0010      	movs	r0, r2
10006df8:	000a      	movs	r2, r1
10006dfa:	00db      	lsls	r3, r3, #3
10006dfc:	401a      	ands	r2, r3
10006dfe:	0011      	movs	r1, r2
10006e00:	9a0a      	ldr	r2, [sp, #40]	@ 0x28
10006e02:	421a      	tst	r2, r3
10006e04:	d102      	bne.n	10006e0c <_vsnprintf+0xc10>
10006e06:	230a      	movs	r3, #10
10006e08:	930a      	str	r3, [sp, #40]	@ 0x28
10006e0a:	e502      	b.n	10006812 <_vsnprintf+0x616>
10006e0c:	230a      	movs	r3, #10
10006e0e:	930a      	str	r3, [sp, #40]	@ 0x28
10006e10:	e7d7      	b.n	10006dc2 <_vsnprintf+0xbc6>
10006e12:	46c0      	nop			@ (mov r8, r8)

10006e14 <vfctprintf>:
10006e14:	b500      	push	{lr}
10006e16:	b085      	sub	sp, #20
10006e18:	9103      	str	r1, [sp, #12]
10006e1a:	2101      	movs	r1, #1
10006e1c:	9002      	str	r0, [sp, #8]
10006e1e:	9300      	str	r3, [sp, #0]
10006e20:	4803      	ldr	r0, [pc, #12]	@ (10006e30 <vfctprintf+0x1c>)
10006e22:	0013      	movs	r3, r2
10006e24:	424a      	negs	r2, r1
10006e26:	a902      	add	r1, sp, #8
10006e28:	f7ff f9e8 	bl	100061fc <_vsnprintf>
10006e2c:	b005      	add	sp, #20
10006e2e:	bd00      	pop	{pc}
10006e30:	100059c5 	.word	0x100059c5

10006e34 <weak_raw_vprintf>:
10006e34:	b510      	push	{r4, lr}
10006e36:	4a09      	ldr	r2, [pc, #36]	@ (10006e5c <weak_raw_vprintf+0x28>)
10006e38:	0003      	movs	r3, r0
10006e3a:	6814      	ldr	r4, [r2, #0]
10006e3c:	b084      	sub	sp, #16
10006e3e:	2c00      	cmp	r4, #0
10006e40:	d008      	beq.n	10006e54 <weak_raw_vprintf+0x20>
10006e42:	2201      	movs	r2, #1
10006e44:	9100      	str	r1, [sp, #0]
10006e46:	4806      	ldr	r0, [pc, #24]	@ (10006e60 <weak_raw_vprintf+0x2c>)
10006e48:	4252      	negs	r2, r2
10006e4a:	a903      	add	r1, sp, #12
10006e4c:	47a0      	blx	r4
10006e4e:	2001      	movs	r0, #1
10006e50:	b004      	add	sp, #16
10006e52:	bd10      	pop	{r4, pc}
10006e54:	f001 f926 	bl	100080a4 <__wrap_puts>
10006e58:	2000      	movs	r0, #0
10006e5a:	e7f9      	b.n	10006e50 <weak_raw_vprintf+0x1c>
10006e5c:	2003f270 	.word	0x2003f270
10006e60:	100059b5 	.word	0x100059b5

10006e64 <__aeabi_bits_init>:
10006e64:	4801      	ldr	r0, [pc, #4]	@ (10006e6c <__aeabi_bits_init+0x8>)
10006e66:	2104      	movs	r1, #4
10006e68:	4b01      	ldr	r3, [pc, #4]	@ (10006e70 <__aeabi_bits_init+0xc>)
10006e6a:	4718      	bx	r3
10006e6c:	20001070 	.word	0x20001070
10006e70:	10006ea1 	.word	0x10006ea1

10006e74 <__wrap___ctzsi2>:
10006e74:	4b01      	ldr	r3, [pc, #4]	@ (10006e7c <__wrap___ctzsi2+0x8>)
10006e76:	689b      	ldr	r3, [r3, #8]
10006e78:	4718      	bx	r3
10006e7a:	0000      	.short	0x0000
10006e7c:	20001070 	.word	0x20001070

10006e80 <rom_func_lookup>:
10006e80:	2314      	movs	r3, #20
10006e82:	b510      	push	{r4, lr}
10006e84:	0001      	movs	r1, r0
10006e86:	8818      	ldrh	r0, [r3, #0]
10006e88:	3304      	adds	r3, #4
10006e8a:	881b      	ldrh	r3, [r3, #0]
10006e8c:	4798      	blx	r3
10006e8e:	bd10      	pop	{r4, pc}

10006e90 <rom_data_lookup>:
10006e90:	2316      	movs	r3, #22
10006e92:	b510      	push	{r4, lr}
10006e94:	0001      	movs	r1, r0
10006e96:	8818      	ldrh	r0, [r3, #0]
10006e98:	3302      	adds	r3, #2
10006e9a:	881b      	ldrh	r3, [r3, #0]
10006e9c:	4798      	blx	r3
10006e9e:	bd10      	pop	{r4, pc}

10006ea0 <rom_funcs_lookup>:
10006ea0:	b5f8      	push	{r3, r4, r5, r6, r7, lr}
10006ea2:	4647      	mov	r7, r8
10006ea4:	46ce      	mov	lr, r9
10006ea6:	b580      	push	{r7, lr}
10006ea8:	1e0f      	subs	r7, r1, #0
10006eaa:	d019      	beq.n	10006ee0 <rom_funcs_lookup+0x40>
10006eac:	2314      	movs	r3, #20
10006eae:	4699      	mov	r9, r3
10006eb0:	3304      	adds	r3, #4
10006eb2:	0004      	movs	r4, r0
10006eb4:	2500      	movs	r5, #0
10006eb6:	2601      	movs	r6, #1
10006eb8:	4698      	mov	r8, r3
10006eba:	464b      	mov	r3, r9
10006ebc:	8818      	ldrh	r0, [r3, #0]
10006ebe:	4643      	mov	r3, r8
10006ec0:	6821      	ldr	r1, [r4, #0]
10006ec2:	881b      	ldrh	r3, [r3, #0]
10006ec4:	4798      	blx	r3
10006ec6:	c401      	stmia	r4!, {r0}
10006ec8:	1e43      	subs	r3, r0, #1
10006eca:	4198      	sbcs	r0, r3
10006ecc:	3501      	adds	r5, #1
10006ece:	4240      	negs	r0, r0
10006ed0:	4006      	ands	r6, r0
10006ed2:	42af      	cmp	r7, r5
10006ed4:	d1f1      	bne.n	10006eba <rom_funcs_lookup+0x1a>
10006ed6:	0030      	movs	r0, r6
10006ed8:	bcc0      	pop	{r6, r7}
10006eda:	46b9      	mov	r9, r7
10006edc:	46b0      	mov	r8, r6
10006ede:	bdf8      	pop	{r3, r4, r5, r6, r7, pc}
10006ee0:	2601      	movs	r6, #1
10006ee2:	e7f8      	b.n	10006ed6 <rom_funcs_lookup+0x36>

10006ee4 <__wrap___aeabi_idiv>:
10006ee4:	4a12      	ldr	r2, [pc, #72]	@ (10006f30 <divmod_s32s32_savestate+0x18>)
10006ee6:	6f93      	ldr	r3, [r2, #120]	@ 0x78
10006ee8:	089b      	lsrs	r3, r3, #2
10006eea:	d215      	bcs.n	10006f18 <divmod_s32s32_savestate>

10006eec <divmod_s32s32_unsafe>:
10006eec:	6690      	str	r0, [r2, #104]	@ 0x68
10006eee:	66d1      	str	r1, [r2, #108]	@ 0x6c
10006ef0:	2900      	cmp	r1, #0
10006ef2:	d005      	beq.n	10006f00 <divmod_s32s32_unsafe+0x14>
10006ef4:	e7ff      	b.n	10006ef6 <divmod_s32s32_unsafe+0xa>
10006ef6:	e7ff      	b.n	10006ef8 <divmod_s32s32_unsafe+0xc>
10006ef8:	e7ff      	b.n	10006efa <divmod_s32s32_unsafe+0xe>
10006efa:	6f51      	ldr	r1, [r2, #116]	@ 0x74
10006efc:	6f10      	ldr	r0, [r2, #112]	@ 0x70
10006efe:	4770      	bx	lr
10006f00:	b504      	push	{r2, lr}
10006f02:	2180      	movs	r1, #128	@ 0x80
10006f04:	0609      	lsls	r1, r1, #24
10006f06:	17c2      	asrs	r2, r0, #31
10006f08:	4051      	eors	r1, r2
10006f0a:	2800      	cmp	r0, #0
10006f0c:	d000      	beq.n	10006f10 <divmod_s32s32_unsafe+0x24>
10006f0e:	43c8      	mvns	r0, r1
10006f10:	f003 ffa2 	bl	1000ae58 <____aeabi_idiv0_veneer>
10006f14:	2100      	movs	r1, #0
10006f16:	bd04      	pop	{r2, pc}

10006f18 <divmod_s32s32_savestate>:
10006f18:	b5f0      	push	{r4, r5, r6, r7, lr}
10006f1a:	6e14      	ldr	r4, [r2, #96]	@ 0x60
10006f1c:	6e55      	ldr	r5, [r2, #100]	@ 0x64
10006f1e:	6f57      	ldr	r7, [r2, #116]	@ 0x74
10006f20:	6f16      	ldr	r6, [r2, #112]	@ 0x70
10006f22:	f7ff ffe3 	bl	10006eec <divmod_s32s32_unsafe>
10006f26:	6614      	str	r4, [r2, #96]	@ 0x60
10006f28:	6655      	str	r5, [r2, #100]	@ 0x64
10006f2a:	6757      	str	r7, [r2, #116]	@ 0x74
10006f2c:	6716      	str	r6, [r2, #112]	@ 0x70
10006f2e:	bdf0      	pop	{r4, r5, r6, r7, pc}
10006f30:	d0000000 	.word	0xd0000000

10006f34 <__wrap___aeabi_uidiv>:
10006f34:	4a11      	ldr	r2, [pc, #68]	@ (10006f7c <divmod_u32u32_savestate+0x18>)
10006f36:	6f93      	ldr	r3, [r2, #120]	@ 0x78
10006f38:	089b      	lsrs	r3, r3, #2
10006f3a:	d213      	bcs.n	10006f64 <divmod_u32u32_savestate>

10006f3c <divmod_u32u32_unsafe>:
10006f3c:	6610      	str	r0, [r2, #96]	@ 0x60
10006f3e:	6651      	str	r1, [r2, #100]	@ 0x64
10006f40:	2900      	cmp	r1, #0
10006f42:	d005      	beq.n	10006f50 <divmod_u32u32_unsafe+0x14>
10006f44:	e7ff      	b.n	10006f46 <divmod_u32u32_unsafe+0xa>
10006f46:	e7ff      	b.n	10006f48 <divmod_u32u32_unsafe+0xc>
10006f48:	e7ff      	b.n	10006f4a <divmod_u32u32_unsafe+0xe>
10006f4a:	6f51      	ldr	r1, [r2, #116]	@ 0x74
10006f4c:	6f10      	ldr	r0, [r2, #112]	@ 0x70
10006f4e:	4770      	bx	lr
10006f50:	b504      	push	{r2, lr}
10006f52:	2800      	cmp	r0, #0
10006f54:	d001      	beq.n	10006f5a <divmod_u32u32_unsafe+0x1e>
10006f56:	2000      	movs	r0, #0
10006f58:	43c0      	mvns	r0, r0
10006f5a:	f003 ff7d 	bl	1000ae58 <____aeabi_idiv0_veneer>
10006f5e:	2100      	movs	r1, #0
10006f60:	bd04      	pop	{r2, pc}
10006f62:	46c0      	nop			@ (mov r8, r8)

10006f64 <divmod_u32u32_savestate>:
10006f64:	b5f0      	push	{r4, r5, r6, r7, lr}
10006f66:	6e14      	ldr	r4, [r2, #96]	@ 0x60
10006f68:	6e55      	ldr	r5, [r2, #100]	@ 0x64
10006f6a:	6f57      	ldr	r7, [r2, #116]	@ 0x74
10006f6c:	6f16      	ldr	r6, [r2, #112]	@ 0x70
10006f6e:	f7ff ffe5 	bl	10006f3c <divmod_u32u32_unsafe>
10006f72:	6614      	str	r4, [r2, #96]	@ 0x60
10006f74:	6655      	str	r5, [r2, #100]	@ 0x64
10006f76:	6757      	str	r7, [r2, #116]	@ 0x74
10006f78:	6716      	str	r6, [r2, #112]	@ 0x70
10006f7a:	bdf0      	pop	{r4, r5, r6, r7, pc}
10006f7c:	d0000000 	.word	0xd0000000

10006f80 <__wrap___aeabi_ldivmod>:
10006f80:	4694      	mov	ip, r2
10006f82:	4a4a      	ldr	r2, [pc, #296]	@ (100070ac <udiv0+0x1a>)
10006f84:	6f92      	ldr	r2, [r2, #120]	@ 0x78
10006f86:	0892      	lsrs	r2, r2, #2
10006f88:	4662      	mov	r2, ip
10006f8a:	d201      	bcs.n	10006f90 <divmod_s64s64_savestate>
10006f8c:	e028      	b.n	10006fe0 <divmod_s64s64_unsafe>
10006f8e:	46c0      	nop			@ (mov r8, r8)

10006f90 <divmod_s64s64_savestate>:
10006f90:	b5f0      	push	{r4, r5, r6, r7, lr}
10006f92:	4e46      	ldr	r6, [pc, #280]	@ (100070ac <udiv0+0x1a>)
10006f94:	6e34      	ldr	r4, [r6, #96]	@ 0x60
10006f96:	6e75      	ldr	r5, [r6, #100]	@ 0x64
10006f98:	6f77      	ldr	r7, [r6, #116]	@ 0x74
10006f9a:	6f36      	ldr	r6, [r6, #112]	@ 0x70
10006f9c:	f000 f820 	bl	10006fe0 <divmod_s64s64_unsafe>
10006fa0:	4694      	mov	ip, r2
10006fa2:	4a42      	ldr	r2, [pc, #264]	@ (100070ac <udiv0+0x1a>)
10006fa4:	6614      	str	r4, [r2, #96]	@ 0x60
10006fa6:	6655      	str	r5, [r2, #100]	@ 0x64
10006fa8:	6757      	str	r7, [r2, #116]	@ 0x74
10006faa:	6716      	str	r6, [r2, #112]	@ 0x70
10006fac:	4662      	mov	r2, ip
10006fae:	bdf0      	pop	{r4, r5, r6, r7, pc}

10006fb0 <__wrap___aeabi_uldivmod>:
10006fb0:	4694      	mov	ip, r2
10006fb2:	4a3e      	ldr	r2, [pc, #248]	@ (100070ac <udiv0+0x1a>)
10006fb4:	6f92      	ldr	r2, [r2, #120]	@ 0x78
10006fb6:	0892      	lsrs	r2, r2, #2
10006fb8:	4662      	mov	r2, ip
10006fba:	d201      	bcs.n	10006fc0 <divmod_u64u64_savestate>
10006fbc:	e054      	b.n	10007068 <divmod_u64u64_unsafe>
10006fbe:	46c0      	nop			@ (mov r8, r8)

10006fc0 <divmod_u64u64_savestate>:
10006fc0:	b5f0      	push	{r4, r5, r6, r7, lr}
10006fc2:	4e3a      	ldr	r6, [pc, #232]	@ (100070ac <udiv0+0x1a>)
10006fc4:	6e34      	ldr	r4, [r6, #96]	@ 0x60
10006fc6:	6e75      	ldr	r5, [r6, #100]	@ 0x64
10006fc8:	6f77      	ldr	r7, [r6, #116]	@ 0x74
10006fca:	6f36      	ldr	r6, [r6, #112]	@ 0x70
10006fcc:	f000 f84c 	bl	10007068 <divmod_u64u64_unsafe>
10006fd0:	4694      	mov	ip, r2
10006fd2:	4a36      	ldr	r2, [pc, #216]	@ (100070ac <udiv0+0x1a>)
10006fd4:	6614      	str	r4, [r2, #96]	@ 0x60
10006fd6:	6655      	str	r5, [r2, #100]	@ 0x64
10006fd8:	6757      	str	r7, [r2, #116]	@ 0x74
10006fda:	6716      	str	r6, [r2, #112]	@ 0x70
10006fdc:	4662      	mov	r2, ip
10006fde:	bdf0      	pop	{r4, r5, r6, r7, pc}

10006fe0 <divmod_s64s64_unsafe>:
10006fe0:	2b00      	cmp	r3, #0
10006fe2:	db24      	blt.n	1000702e <l42_1+0x26>
10006fe4:	d011      	beq.n	1000700a <l42_1+0x2>
10006fe6:	2900      	cmp	r1, #0
10006fe8:	da3e      	bge.n	10007068 <divmod_u64u64_unsafe>
10006fea:	b500      	push	{lr}
10006fec:	43c9      	mvns	r1, r1
10006fee:	4240      	negs	r0, r0
10006ff0:	d100      	bne.n	10006ff4 <l40_1>
10006ff2:	3101      	adds	r1, #1

10006ff4 <l40_1>:
10006ff4:	f000 f838 	bl	10007068 <divmod_u64u64_unsafe>
10006ff8:	43c9      	mvns	r1, r1
10006ffa:	4240      	negs	r0, r0
10006ffc:	d100      	bne.n	10007000 <l41_1>
10006ffe:	3101      	adds	r1, #1

10007000 <l41_1>:
10007000:	43db      	mvns	r3, r3
10007002:	4252      	negs	r2, r2
10007004:	d100      	bne.n	10007008 <l42_1>
10007006:	3301      	adds	r3, #1

10007008 <l42_1>:
10007008:	bd00      	pop	{pc}
1000700a:	2a00      	cmp	r2, #0
1000700c:	d1eb      	bne.n	10006fe6 <divmod_s64s64_unsafe+0x6>
1000700e:	2800      	cmp	r0, #0
10007010:	d101      	bne.n	10007016 <l42_1+0xe>
10007012:	2900      	cmp	r1, #0
10007014:	d005      	beq.n	10007022 <l42_1+0x1a>
10007016:	2000      	movs	r0, #0
10007018:	0fc9      	lsrs	r1, r1, #31
1000701a:	07c9      	lsls	r1, r1, #31
1000701c:	d101      	bne.n	10007022 <l42_1+0x1a>
1000701e:	43c0      	mvns	r0, r0
10007020:	0841      	lsrs	r1, r0, #1
10007022:	b500      	push	{lr}
10007024:	f003 ff00 	bl	1000ae28 <____aeabi_ldiv0_veneer>
10007028:	2200      	movs	r2, #0
1000702a:	2300      	movs	r3, #0
1000702c:	bd00      	pop	{pc}
1000702e:	b500      	push	{lr}
10007030:	2900      	cmp	r1, #0
10007032:	db0a      	blt.n	1000704a <l44_1+0x2>
10007034:	43db      	mvns	r3, r3
10007036:	4252      	negs	r2, r2
10007038:	d100      	bne.n	1000703c <l43_1>
1000703a:	3301      	adds	r3, #1

1000703c <l43_1>:
1000703c:	f000 f814 	bl	10007068 <divmod_u64u64_unsafe>
10007040:	43c9      	mvns	r1, r1
10007042:	4240      	negs	r0, r0
10007044:	d100      	bne.n	10007048 <l44_1>
10007046:	3101      	adds	r1, #1

10007048 <l44_1>:
10007048:	bd00      	pop	{pc}
1000704a:	43c9      	mvns	r1, r1
1000704c:	4240      	negs	r0, r0
1000704e:	d100      	bne.n	10007052 <l45_1>
10007050:	3101      	adds	r1, #1

10007052 <l45_1>:
10007052:	43db      	mvns	r3, r3
10007054:	4252      	negs	r2, r2
10007056:	d100      	bne.n	1000705a <l46_1>
10007058:	3301      	adds	r3, #1

1000705a <l46_1>:
1000705a:	f000 f805 	bl	10007068 <divmod_u64u64_unsafe>
1000705e:	43db      	mvns	r3, r3
10007060:	4252      	negs	r2, r2
10007062:	d100      	bne.n	10007066 <l47_1>
10007064:	3301      	adds	r3, #1

10007066 <l47_1>:
10007066:	bd00      	pop	{pc}

10007068 <divmod_u64u64_unsafe>:
10007068:	2900      	cmp	r1, #0
1000706a:	d123      	bne.n	100070b4 <y64>
1000706c:	2b00      	cmp	r3, #0
1000706e:	d118      	bne.n	100070a2 <udiv0+0x10>
10007070:	2a00      	cmp	r2, #0
10007072:	d00c      	beq.n	1000708e <divmod_u64u64_unsafe+0x26>
10007074:	46bc      	mov	ip, r7
10007076:	4f0d      	ldr	r7, [pc, #52]	@ (100070ac <udiv0+0x1a>)
10007078:	6638      	str	r0, [r7, #96]	@ 0x60
1000707a:	667a      	str	r2, [r7, #100]	@ 0x64
1000707c:	2100      	movs	r1, #0
1000707e:	2300      	movs	r3, #0
10007080:	e7ff      	b.n	10007082 <divmod_u64u64_unsafe+0x1a>
10007082:	e7ff      	b.n	10007084 <divmod_u64u64_unsafe+0x1c>
10007084:	e7ff      	b.n	10007086 <divmod_u64u64_unsafe+0x1e>
10007086:	6f7a      	ldr	r2, [r7, #116]	@ 0x74
10007088:	6f38      	ldr	r0, [r7, #112]	@ 0x70
1000708a:	4667      	mov	r7, ip
1000708c:	4770      	bx	lr
1000708e:	2800      	cmp	r0, #0
10007090:	d001      	beq.n	10007096 <udiv0+0x4>

10007092 <udiv0>:
10007092:	4807      	ldr	r0, [pc, #28]	@ (100070b0 <udiv0+0x1e>)
10007094:	0001      	movs	r1, r0
10007096:	b500      	push	{lr}
10007098:	f003 fec6 	bl	1000ae28 <____aeabi_ldiv0_veneer>
1000709c:	2200      	movs	r2, #0
1000709e:	2300      	movs	r3, #0
100070a0:	bd00      	pop	{pc}
100070a2:	0002      	movs	r2, r0
100070a4:	000b      	movs	r3, r1
100070a6:	2000      	movs	r0, #0
100070a8:	2100      	movs	r1, #0
100070aa:	4770      	bx	lr
100070ac:	d0000000 	.word	0xd0000000
100070b0:	ffffffff 	.word	0xffffffff

100070b4 <y64>:
100070b4:	2b00      	cmp	r3, #0
100070b6:	d000      	beq.n	100070ba <y64+0x6>
100070b8:	e0bf      	b.n	1000723a <y64_x48>
100070ba:	0c13      	lsrs	r3, r2, #16
100070bc:	d128      	bne.n	10007110 <y64_x32>
100070be:	2a00      	cmp	r2, #0
100070c0:	d0e7      	beq.n	10007092 <udiv0>
100070c2:	b480      	push	{r7}
100070c4:	4f11      	ldr	r7, [pc, #68]	@ (1000710c <y64+0x58>)
100070c6:	6639      	str	r1, [r7, #96]	@ 0x60
100070c8:	667a      	str	r2, [r7, #100]	@ 0x64
100070ca:	e7ff      	b.n	100070cc <y64+0x18>
100070cc:	e7ff      	b.n	100070ce <y64+0x1a>
100070ce:	b430      	push	{r4, r5}
100070d0:	0c04      	lsrs	r4, r0, #16
100070d2:	6f7b      	ldr	r3, [r7, #116]	@ 0x74
100070d4:	6f39      	ldr	r1, [r7, #112]	@ 0x70
100070d6:	041b      	lsls	r3, r3, #16
100070d8:	4323      	orrs	r3, r4
100070da:	663b      	str	r3, [r7, #96]	@ 0x60
100070dc:	667a      	str	r2, [r7, #100]	@ 0x64
100070de:	e7ff      	b.n	100070e0 <y64+0x2c>
100070e0:	e7ff      	b.n	100070e2 <y64+0x2e>
100070e2:	e7ff      	b.n	100070e4 <y64+0x30>
100070e4:	46c0      	nop			@ (mov r8, r8)
100070e6:	b284      	uxth	r4, r0
100070e8:	6f7b      	ldr	r3, [r7, #116]	@ 0x74
100070ea:	6f3d      	ldr	r5, [r7, #112]	@ 0x70
100070ec:	041b      	lsls	r3, r3, #16
100070ee:	4323      	orrs	r3, r4
100070f0:	663b      	str	r3, [r7, #96]	@ 0x60
100070f2:	667a      	str	r2, [r7, #100]	@ 0x64
100070f4:	e7ff      	b.n	100070f6 <y64+0x42>
100070f6:	e7ff      	b.n	100070f8 <y64+0x44>
100070f8:	46c0      	nop			@ (mov r8, r8)
100070fa:	2300      	movs	r3, #0
100070fc:	042c      	lsls	r4, r5, #16
100070fe:	0c2d      	lsrs	r5, r5, #16
10007100:	6f7a      	ldr	r2, [r7, #116]	@ 0x74
10007102:	6f38      	ldr	r0, [r7, #112]	@ 0x70
10007104:	1900      	adds	r0, r0, r4
10007106:	4169      	adcs	r1, r5
10007108:	bcb0      	pop	{r4, r5, r7}
1000710a:	4770      	bx	lr
1000710c:	d0000000 	.word	0xd0000000

10007110 <y64_x32>:
10007110:	b5f0      	push	{r4, r5, r6, r7, lr}
10007112:	4694      	mov	ip, r2
10007114:	2500      	movs	r5, #0
10007116:	0e14      	lsrs	r4, r2, #24
10007118:	d101      	bne.n	1000711e <y64_x32+0xe>
1000711a:	0212      	lsls	r2, r2, #8
1000711c:	3508      	adds	r5, #8
1000711e:	0f14      	lsrs	r4, r2, #28
10007120:	d101      	bne.n	10007126 <y64_x32+0x16>
10007122:	0112      	lsls	r2, r2, #4
10007124:	3504      	adds	r5, #4
10007126:	0f94      	lsrs	r4, r2, #30
10007128:	d101      	bne.n	1000712e <y64_x32+0x1e>
1000712a:	0092      	lsls	r2, r2, #2
1000712c:	3502      	adds	r5, #2
1000712e:	0fd4      	lsrs	r4, r2, #31
10007130:	d101      	bne.n	10007136 <y64_x32+0x26>
10007132:	0052      	lsls	r2, r2, #1
10007134:	3501      	adds	r5, #1
10007136:	0bd4      	lsrs	r4, r2, #15
10007138:	3401      	adds	r4, #1
1000713a:	4f25      	ldr	r7, [pc, #148]	@ (100071d0 <y64_x32+0xc0>)
1000713c:	667c      	str	r4, [r7, #100]	@ 0x64
1000713e:	4c25      	ldr	r4, [pc, #148]	@ (100071d4 <y64_x32+0xc4>)
10007140:	663c      	str	r4, [r7, #96]	@ 0x60
10007142:	0c0e      	lsrs	r6, r1, #16
10007144:	b293      	uxth	r3, r2
10007146:	e7ff      	b.n	10007148 <y64_x32+0x38>
10007148:	e7ff      	b.n	1000714a <y64_x32+0x3a>
1000714a:	e7ff      	b.n	1000714c <y64_x32+0x3c>
1000714c:	6f3c      	ldr	r4, [r7, #112]	@ 0x70
1000714e:	4366      	muls	r6, r4
10007150:	0c36      	lsrs	r6, r6, #16
10007152:	0377      	lsls	r7, r6, #13
10007154:	46be      	mov	lr, r7
10007156:	4373      	muls	r3, r6
10007158:	0bdf      	lsrs	r7, r3, #15
1000715a:	045b      	lsls	r3, r3, #17
1000715c:	1ac0      	subs	r0, r0, r3
1000715e:	41b9      	sbcs	r1, r7
10007160:	0c13      	lsrs	r3, r2, #16
10007162:	4373      	muls	r3, r6
10007164:	18db      	adds	r3, r3, r3
10007166:	1ac9      	subs	r1, r1, r3
10007168:	08ce      	lsrs	r6, r1, #3
1000716a:	4366      	muls	r6, r4
1000716c:	0c36      	lsrs	r6, r6, #16
1000716e:	44b6      	add	lr, r6
10007170:	b293      	uxth	r3, r2
10007172:	4373      	muls	r3, r6
10007174:	0f1f      	lsrs	r7, r3, #28
10007176:	011b      	lsls	r3, r3, #4
10007178:	1ac0      	subs	r0, r0, r3
1000717a:	41b9      	sbcs	r1, r7
1000717c:	0c13      	lsrs	r3, r2, #16
1000717e:	4373      	muls	r3, r6
10007180:	0b1f      	lsrs	r7, r3, #12
10007182:	051b      	lsls	r3, r3, #20
10007184:	1ac0      	subs	r0, r0, r3
10007186:	41b9      	sbcs	r1, r7
10007188:	0d86      	lsrs	r6, r0, #22
1000718a:	028f      	lsls	r7, r1, #10
1000718c:	433e      	orrs	r6, r7
1000718e:	4366      	muls	r6, r4
10007190:	0c36      	lsrs	r6, r6, #16
10007192:	2d09      	cmp	r5, #9
10007194:	db24      	blt.n	100071e0 <last0>
10007196:	0a52      	lsrs	r2, r2, #9
10007198:	4372      	muls	r2, r6
1000719a:	1a80      	subs	r0, r0, r2
1000719c:	0377      	lsls	r7, r6, #13
1000719e:	0a46      	lsrs	r6, r0, #9
100071a0:	4366      	muls	r6, r4
100071a2:	0c36      	lsrs	r6, r6, #16
100071a4:	2316      	movs	r3, #22
100071a6:	1b5b      	subs	r3, r3, r5
100071a8:	40de      	lsrs	r6, r3
100071aa:	40df      	lsrs	r7, r3
100071ac:	19bf      	adds	r7, r7, r6
100071ae:	4664      	mov	r4, ip
100071b0:	4366      	muls	r6, r4
100071b2:	1b82      	subs	r2, r0, r6
100071b4:	4670      	mov	r0, lr
100071b6:	3504      	adds	r5, #4
100071b8:	3306      	adds	r3, #6
100071ba:	0001      	movs	r1, r0
100071bc:	40d9      	lsrs	r1, r3
100071be:	40a8      	lsls	r0, r5
100071c0:	19c0      	adds	r0, r0, r7
100071c2:	d300      	bcc.n	100071c6 <y64_x32+0xb6>
100071c4:	3101      	adds	r1, #1
100071c6:	42a2      	cmp	r2, r4
100071c8:	d206      	bcs.n	100071d8 <y64_x32+0xc8>
100071ca:	2300      	movs	r3, #0
100071cc:	bdf0      	pop	{r4, r5, r6, r7, pc}
100071ce:	0000      	.short	0x0000
100071d0:	d0000000 	.word	0xd0000000
100071d4:	ffffffff 	.word	0xffffffff
100071d8:	1b12      	subs	r2, r2, r4
100071da:	3001      	adds	r0, #1
100071dc:	d3f3      	bcc.n	100071c6 <y64_x32+0xb6>
100071de:	e7f1      	b.n	100071c4 <y64_x32+0xb4>

100071e0 <last0>:
100071e0:	2709      	movs	r7, #9
100071e2:	1b7f      	subs	r7, r7, r5
100071e4:	40fe      	lsrs	r6, r7
100071e6:	4664      	mov	r4, ip
100071e8:	b2a2      	uxth	r2, r4
100071ea:	4372      	muls	r2, r6
100071ec:	1a80      	subs	r0, r0, r2
100071ee:	d200      	bcs.n	100071f2 <last0+0x12>
100071f0:	3901      	subs	r1, #1
100071f2:	0c22      	lsrs	r2, r4, #16
100071f4:	4372      	muls	r2, r6
100071f6:	0c13      	lsrs	r3, r2, #16
100071f8:	0412      	lsls	r2, r2, #16
100071fa:	1a82      	subs	r2, r0, r2
100071fc:	4199      	sbcs	r1, r3
100071fe:	000b      	movs	r3, r1
10007200:	4670      	mov	r0, lr
10007202:	3504      	adds	r5, #4
10007204:	3713      	adds	r7, #19
10007206:	0001      	movs	r1, r0
10007208:	40f9      	lsrs	r1, r7
1000720a:	40a8      	lsls	r0, r5
1000720c:	1980      	adds	r0, r0, r6
1000720e:	d300      	bcc.n	10007212 <last0+0x32>
10007210:	3101      	adds	r1, #1
10007212:	2b00      	cmp	r3, #0
10007214:	d102      	bne.n	1000721c <last0+0x3c>
10007216:	42a2      	cmp	r2, r4
10007218:	d20a      	bcs.n	10007230 <last0+0x50>
1000721a:	bdf0      	pop	{r4, r5, r6, r7, pc}
1000721c:	3001      	adds	r0, #1
1000721e:	d300      	bcc.n	10007222 <last0+0x42>
10007220:	3101      	adds	r1, #1
10007222:	1b12      	subs	r2, r2, r4
10007224:	d2fa      	bcs.n	1000721c <last0+0x3c>
10007226:	3b01      	subs	r3, #1
10007228:	d1f8      	bne.n	1000721c <last0+0x3c>
1000722a:	42a2      	cmp	r2, r4
1000722c:	d200      	bcs.n	10007230 <last0+0x50>
1000722e:	bdf0      	pop	{r4, r5, r6, r7, pc}
10007230:	3001      	adds	r0, #1
10007232:	d300      	bcc.n	10007236 <last0+0x56>
10007234:	3101      	adds	r1, #1
10007236:	1b12      	subs	r2, r2, r4
10007238:	e7f7      	b.n	1000722a <last0+0x4a>

1000723a <y64_x48>:
1000723a:	b5f0      	push	{r4, r5, r6, r7, lr}
1000723c:	0c1c      	lsrs	r4, r3, #16
1000723e:	d000      	beq.n	10007242 <y64_x48+0x8>
10007240:	e080      	b.n	10007344 <y64_x64>
10007242:	b40c      	push	{r2, r3}
10007244:	2500      	movs	r5, #0
10007246:	0a1c      	lsrs	r4, r3, #8
10007248:	d104      	bne.n	10007254 <y64_x48+0x1a>
1000724a:	021b      	lsls	r3, r3, #8
1000724c:	0e16      	lsrs	r6, r2, #24
1000724e:	4333      	orrs	r3, r6
10007250:	0212      	lsls	r2, r2, #8
10007252:	3508      	adds	r5, #8
10007254:	0b1c      	lsrs	r4, r3, #12
10007256:	d104      	bne.n	10007262 <y64_x48+0x28>
10007258:	011b      	lsls	r3, r3, #4
1000725a:	0f16      	lsrs	r6, r2, #28
1000725c:	4333      	orrs	r3, r6
1000725e:	0112      	lsls	r2, r2, #4
10007260:	3504      	adds	r5, #4
10007262:	0b9c      	lsrs	r4, r3, #14
10007264:	d104      	bne.n	10007270 <y64_x48+0x36>
10007266:	009b      	lsls	r3, r3, #2
10007268:	0f96      	lsrs	r6, r2, #30
1000726a:	4333      	orrs	r3, r6
1000726c:	0092      	lsls	r2, r2, #2
1000726e:	3502      	adds	r5, #2
10007270:	0bdc      	lsrs	r4, r3, #15
10007272:	d102      	bne.n	1000727a <y64_x48+0x40>
10007274:	1892      	adds	r2, r2, r2
10007276:	415b      	adcs	r3, r3
10007278:	3501      	adds	r5, #1
1000727a:	001c      	movs	r4, r3
1000727c:	1897      	adds	r7, r2, r2
1000727e:	4164      	adcs	r4, r4
10007280:	3401      	adds	r4, #1
10007282:	4f46      	ldr	r7, [pc, #280]	@ (1000739c <y64_x64+0x58>)
10007284:	667c      	str	r4, [r7, #100]	@ 0x64
10007286:	4c46      	ldr	r4, [pc, #280]	@ (100073a0 <y64_x64+0x5c>)
10007288:	663c      	str	r4, [r7, #96]	@ 0x60
1000728a:	0c0e      	lsrs	r6, r1, #16
1000728c:	e7ff      	b.n	1000728e <y64_x48+0x54>
1000728e:	e7ff      	b.n	10007290 <y64_x48+0x56>
10007290:	e7ff      	b.n	10007292 <y64_x48+0x58>
10007292:	46c0      	nop			@ (mov r8, r8)
10007294:	6f3c      	ldr	r4, [r7, #112]	@ 0x70
10007296:	4366      	muls	r6, r4
10007298:	0c36      	lsrs	r6, r6, #16
1000729a:	0377      	lsls	r7, r6, #13
1000729c:	46be      	mov	lr, r7
1000729e:	b297      	uxth	r7, r2
100072a0:	4377      	muls	r7, r6
100072a2:	1bc0      	subs	r0, r0, r7
100072a4:	d200      	bcs.n	100072a8 <y64_x48+0x6e>
100072a6:	3901      	subs	r1, #1
100072a8:	1bc0      	subs	r0, r0, r7
100072aa:	d200      	bcs.n	100072ae <y64_x48+0x74>
100072ac:	3901      	subs	r1, #1
100072ae:	b29f      	uxth	r7, r3
100072b0:	4377      	muls	r7, r6
100072b2:	1bc9      	subs	r1, r1, r7
100072b4:	1bc9      	subs	r1, r1, r7
100072b6:	0c17      	lsrs	r7, r2, #16
100072b8:	4377      	muls	r7, r6
100072ba:	047e      	lsls	r6, r7, #17
100072bc:	0bff      	lsrs	r7, r7, #15
100072be:	1b80      	subs	r0, r0, r6
100072c0:	41b9      	sbcs	r1, r7
100072c2:	08ce      	lsrs	r6, r1, #3
100072c4:	4366      	muls	r6, r4
100072c6:	0c36      	lsrs	r6, r6, #16
100072c8:	2d0c      	cmp	r5, #12
100072ca:	db33      	blt.n	10007334 <last1>
100072cc:	44b6      	add	lr, r6
100072ce:	0b12      	lsrs	r2, r2, #12
100072d0:	051f      	lsls	r7, r3, #20
100072d2:	433a      	orrs	r2, r7
100072d4:	0b1b      	lsrs	r3, r3, #12
100072d6:	b297      	uxth	r7, r2
100072d8:	4377      	muls	r7, r6
100072da:	1bc0      	subs	r0, r0, r7
100072dc:	d200      	bcs.n	100072e0 <y64_x48+0xa6>
100072de:	3901      	subs	r1, #1
100072e0:	b29f      	uxth	r7, r3
100072e2:	4377      	muls	r7, r6
100072e4:	1bc9      	subs	r1, r1, r7
100072e6:	0c17      	lsrs	r7, r2, #16
100072e8:	4377      	muls	r7, r6
100072ea:	043e      	lsls	r6, r7, #16
100072ec:	0c3f      	lsrs	r7, r7, #16
100072ee:	1b80      	subs	r0, r0, r6
100072f0:	41b9      	sbcs	r1, r7
100072f2:	0d86      	lsrs	r6, r0, #22
100072f4:	028f      	lsls	r7, r1, #10
100072f6:	433e      	orrs	r6, r7
100072f8:	4366      	muls	r6, r4
100072fa:	2729      	movs	r7, #41	@ 0x29
100072fc:	1b7f      	subs	r7, r7, r5
100072fe:	40fe      	lsrs	r6, r7
10007300:	3d0c      	subs	r5, #12
10007302:	4677      	mov	r7, lr
10007304:	40af      	lsls	r7, r5
10007306:	19bf      	adds	r7, r7, r6
10007308:	bc30      	pop	{r4, r5}
1000730a:	b2a2      	uxth	r2, r4
1000730c:	b2ab      	uxth	r3, r5
1000730e:	4372      	muls	r2, r6
10007310:	4373      	muls	r3, r6
10007312:	1a80      	subs	r0, r0, r2
10007314:	4199      	sbcs	r1, r3
10007316:	0c22      	lsrs	r2, r4, #16
10007318:	4372      	muls	r2, r6
1000731a:	0c13      	lsrs	r3, r2, #16
1000731c:	0412      	lsls	r2, r2, #16
1000731e:	1a80      	subs	r0, r0, r2
10007320:	4199      	sbcs	r1, r3
10007322:	0002      	movs	r2, r0
10007324:	000b      	movs	r3, r1
10007326:	3701      	adds	r7, #1
10007328:	1b00      	subs	r0, r0, r4
1000732a:	41a9      	sbcs	r1, r5
1000732c:	d2f9      	bcs.n	10007322 <y64_x48+0xe8>
1000732e:	1e78      	subs	r0, r7, #1
10007330:	2100      	movs	r1, #0
10007332:	bdf0      	pop	{r4, r5, r6, r7, pc}

10007334 <last1>:
10007334:	270c      	movs	r7, #12
10007336:	1b7f      	subs	r7, r7, r5
10007338:	40fe      	lsrs	r6, r7
1000733a:	4677      	mov	r7, lr
1000733c:	0b7f      	lsrs	r7, r7, #13
1000733e:	40af      	lsls	r7, r5
10007340:	19ff      	adds	r7, r7, r7
10007342:	e7e0      	b.n	10007306 <y64_x48+0xcc>

10007344 <y64_x64>:
10007344:	2400      	movs	r4, #0
10007346:	1c5d      	adds	r5, r3, #1
10007348:	d007      	beq.n	1000735a <y64_x64+0x16>
1000734a:	4f14      	ldr	r7, [pc, #80]	@ (1000739c <y64_x64+0x58>)
1000734c:	667d      	str	r5, [r7, #100]	@ 0x64
1000734e:	6639      	str	r1, [r7, #96]	@ 0x60
10007350:	e7ff      	b.n	10007352 <y64_x64+0xe>
10007352:	e7ff      	b.n	10007354 <y64_x64+0x10>
10007354:	e7ff      	b.n	10007356 <y64_x64+0x12>
10007356:	e7ff      	b.n	10007358 <y64_x64+0x14>
10007358:	6f3c      	ldr	r4, [r7, #112]	@ 0x70
1000735a:	b295      	uxth	r5, r2
1000735c:	b29e      	uxth	r6, r3
1000735e:	4365      	muls	r5, r4
10007360:	4366      	muls	r6, r4
10007362:	1b40      	subs	r0, r0, r5
10007364:	41b1      	sbcs	r1, r6
10007366:	0c15      	lsrs	r5, r2, #16
10007368:	0c1e      	lsrs	r6, r3, #16
1000736a:	4365      	muls	r5, r4
1000736c:	4366      	muls	r6, r4
1000736e:	0436      	lsls	r6, r6, #16
10007370:	0c2f      	lsrs	r7, r5, #16
10007372:	433e      	orrs	r6, r7
10007374:	042d      	lsls	r5, r5, #16
10007376:	1b40      	subs	r0, r0, r5
10007378:	41b1      	sbcs	r1, r6
1000737a:	4299      	cmp	r1, r3
1000737c:	d204      	bcs.n	10007388 <y64_x64+0x44>
1000737e:	0002      	movs	r2, r0
10007380:	000b      	movs	r3, r1
10007382:	0020      	movs	r0, r4
10007384:	2100      	movs	r1, #0
10007386:	bdf0      	pop	{r4, r5, r6, r7, pc}
10007388:	d101      	bne.n	1000738e <y64_x64+0x4a>
1000738a:	4290      	cmp	r0, r2
1000738c:	d3f7      	bcc.n	1000737e <y64_x64+0x3a>
1000738e:	1a80      	subs	r0, r0, r2
10007390:	4199      	sbcs	r1, r3
10007392:	3401      	adds	r4, #1
10007394:	4299      	cmp	r1, r3
10007396:	d3f2      	bcc.n	1000737e <y64_x64+0x3a>
10007398:	e7f6      	b.n	10007388 <y64_x64+0x44>
1000739a:	0000      	.short	0x0000
1000739c:	d0000000 	.word	0xd0000000
100073a0:	ffffffff 	.word	0xffffffff

100073a4 <__wrap___aeabi_drsub>:
100073a4:	4048      	eors	r0, r1
100073a6:	4041      	eors	r1, r0
100073a8:	4048      	eors	r0, r1

100073aa <__wrap___aeabi_dsub>:
100073aa:	b418      	push	{r3, r4}
100073ac:	4b1b      	ldr	r3, [pc, #108]	@ (1000741c <__wrap___aeabi_dmul+0x12>)
100073ae:	685b      	ldr	r3, [r3, #4]
100073b0:	46fc      	mov	ip, pc
100073b2:	9301      	str	r3, [sp, #4]
100073b4:	bd08      	pop	{r3, pc}
100073b6:	df04      	.short	0xdf04
100073b8:	10007703 	.word	0x10007703

100073bc <__wrap___aeabi_dadd>:
100073bc:	b418      	push	{r3, r4}
100073be:	4b17      	ldr	r3, [pc, #92]	@ (1000741c <__wrap___aeabi_dmul+0x12>)
100073c0:	681b      	ldr	r3, [r3, #0]
100073c2:	46fc      	mov	ip, pc
100073c4:	9301      	str	r3, [sp, #4]
100073c6:	bd08      	pop	{r3, pc}
100073c8:	770ddf00 	.word	0x770ddf00
100073cc:	1000      	.short	0x1000

100073ce <__wrap___aeabi_ddiv>:
100073ce:	4694      	mov	ip, r2
100073d0:	4a13      	ldr	r2, [pc, #76]	@ (10007420 <__wrap___aeabi_dmul+0x16>)
100073d2:	6f92      	ldr	r2, [r2, #120]	@ 0x78
100073d4:	0892      	lsrs	r2, r2, #2
100073d6:	d209      	bcs.n	100073ec <ddiv_save_state>
100073d8:	4662      	mov	r2, ip

100073da <ddiv_shim_call>:
100073da:	b418      	push	{r3, r4}
100073dc:	4b0f      	ldr	r3, [pc, #60]	@ (1000741c <__wrap___aeabi_dmul+0x12>)
100073de:	68db      	ldr	r3, [r3, #12]
100073e0:	46fc      	mov	ip, pc
100073e2:	9301      	str	r3, [sp, #4]
100073e4:	bd08      	pop	{r3, pc}
100073e6:	df0c      	.short	0xdf0c
100073e8:	100079c5 	.word	0x100079c5

100073ec <ddiv_save_state>:
100073ec:	4a0c      	ldr	r2, [pc, #48]	@ (10007420 <__wrap___aeabi_dmul+0x16>)
100073ee:	b5f0      	push	{r4, r5, r6, r7, lr}
100073f0:	6e14      	ldr	r4, [r2, #96]	@ 0x60
100073f2:	6e55      	ldr	r5, [r2, #100]	@ 0x64
100073f4:	6f57      	ldr	r7, [r2, #116]	@ 0x74
100073f6:	6f16      	ldr	r6, [r2, #112]	@ 0x70
100073f8:	4662      	mov	r2, ip
100073fa:	f7ff ffee 	bl	100073da <ddiv_shim_call>
100073fe:	4a08      	ldr	r2, [pc, #32]	@ (10007420 <__wrap___aeabi_dmul+0x16>)
10007400:	6614      	str	r4, [r2, #96]	@ 0x60
10007402:	6655      	str	r5, [r2, #100]	@ 0x64
10007404:	6757      	str	r7, [r2, #116]	@ 0x74
10007406:	6716      	str	r6, [r2, #112]	@ 0x70
10007408:	bdf0      	pop	{r4, r5, r6, r7, pc}

1000740a <__wrap___aeabi_dmul>:
1000740a:	b418      	push	{r3, r4}
1000740c:	4b03      	ldr	r3, [pc, #12]	@ (1000741c <__wrap___aeabi_dmul+0x12>)
1000740e:	689b      	ldr	r3, [r3, #8]
10007410:	46fc      	mov	ip, pc
10007412:	9301      	str	r3, [sp, #4]
10007414:	bd08      	pop	{r3, pc}
10007416:	df08      	.short	0xdf08
10007418:	10007869 	.word	0x10007869
1000741c:	20001670 	.word	0x20001670
10007420:	d0000000 	.word	0xd0000000

10007424 <__wrap___aeabi_cdrcmple>:
10007424:	b5ff      	push	{r0, r1, r2, r3, r4, r5, r6, r7, lr}
10007426:	4050      	eors	r0, r2
10007428:	4042      	eors	r2, r0
1000742a:	4050      	eors	r0, r2
1000742c:	4059      	eors	r1, r3
1000742e:	404b      	eors	r3, r1
10007430:	4059      	eors	r1, r3
10007432:	e000      	b.n	10007436 <__aeabi_dfcmple_guts>

10007434 <__wrap___aeabi_cdcmpeq>:
10007434:	b5ff      	push	{r0, r1, r2, r3, r4, r5, r6, r7, lr}

10007436 <__aeabi_dfcmple_guts>:
10007436:	4f15      	ldr	r7, [pc, #84]	@ (1000748c <__aeabi_dfcmple_guts+0x56>)
10007438:	004c      	lsls	r4, r1, #1
1000743a:	0d64      	lsrs	r4, r4, #21
1000743c:	d003      	beq.n	10007446 <__aeabi_dfcmple_guts+0x10>
1000743e:	42bc      	cmp	r4, r7
10007440:	d104      	bne.n	1000744c <__aeabi_dfcmple_guts+0x16>
10007442:	030c      	lsls	r4, r1, #12
10007444:	d814      	bhi.n	10007470 <__aeabi_dfcmple_guts+0x3a>
10007446:	2000      	movs	r0, #0
10007448:	0d09      	lsrs	r1, r1, #20
1000744a:	0509      	lsls	r1, r1, #20
1000744c:	005c      	lsls	r4, r3, #1
1000744e:	0d64      	lsrs	r4, r4, #21
10007450:	d003      	beq.n	1000745a <__aeabi_dfcmple_guts+0x24>
10007452:	42bc      	cmp	r4, r7
10007454:	d104      	bne.n	10007460 <__aeabi_dfcmple_guts+0x2a>
10007456:	031c      	lsls	r4, r3, #12
10007458:	d80a      	bhi.n	10007470 <__aeabi_dfcmple_guts+0x3a>
1000745a:	2200      	movs	r2, #0
1000745c:	0d1b      	lsrs	r3, r3, #20
1000745e:	051b      	lsls	r3, r3, #20
10007460:	2601      	movs	r6, #1
10007462:	404b      	eors	r3, r1
10007464:	d409      	bmi.n	1000747a <__aeabi_dfcmple_guts+0x44>
10007466:	404b      	eors	r3, r1
10007468:	d503      	bpl.n	10007472 <__aeabi_dfcmple_guts+0x3c>
1000746a:	428b      	cmp	r3, r1
1000746c:	d100      	bne.n	10007470 <__aeabi_dfcmple_guts+0x3a>
1000746e:	4282      	cmp	r2, r0
10007470:	bdff      	pop	{r0, r1, r2, r3, r4, r5, r6, r7, pc}
10007472:	4299      	cmp	r1, r3
10007474:	d1fc      	bne.n	10007470 <__aeabi_dfcmple_guts+0x3a>
10007476:	4290      	cmp	r0, r2
10007478:	bdff      	pop	{r0, r1, r2, r3, r4, r5, r6, r7, pc}
1000747a:	430b      	orrs	r3, r1
1000747c:	18db      	adds	r3, r3, r3
1000747e:	4303      	orrs	r3, r0
10007480:	4313      	orrs	r3, r2
10007482:	d0f5      	beq.n	10007470 <__aeabi_dfcmple_guts+0x3a>
10007484:	43c9      	mvns	r1, r1
10007486:	1849      	adds	r1, r1, r1
10007488:	bdff      	pop	{r0, r1, r2, r3, r4, r5, r6, r7, pc}
1000748a:	0000      	.short	0x0000
1000748c:	000007ff 	.word	0x000007ff

10007490 <__wrap___aeabi_dcmplt>:
10007490:	b500      	push	{lr}
10007492:	f7ff ffcf 	bl	10007434 <__wrap___aeabi_cdcmpeq>
10007496:	4180      	sbcs	r0, r0
10007498:	bd00      	pop	{pc}
1000749a:	46c0      	nop			@ (mov r8, r8)

1000749c <__wrap___aeabi_dcmpge>:
1000749c:	b500      	push	{lr}
1000749e:	f7ff ffc1 	bl	10007424 <__wrap___aeabi_cdrcmple>
100074a2:	d901      	bls.n	100074a8 <__wrap___aeabi_dcmpge+0xc>
100074a4:	2000      	movs	r0, #0
100074a6:	bd00      	pop	{pc}
100074a8:	2001      	movs	r0, #1
100074aa:	bd00      	pop	{pc}

100074ac <__wrap___aeabi_dcmpgt>:
100074ac:	b500      	push	{lr}
100074ae:	f7ff ffb9 	bl	10007424 <__wrap___aeabi_cdrcmple>
100074b2:	4180      	sbcs	r0, r0
100074b4:	bd00      	pop	{pc}

100074b6 <__wrap___aeabi_dcmpun>:
100074b6:	2001      	movs	r0, #1
100074b8:	0540      	lsls	r0, r0, #21
100074ba:	004a      	lsls	r2, r1, #1
100074bc:	1812      	adds	r2, r2, r0
100074be:	d804      	bhi.n	100074ca <__wrap___aeabi_dcmpun+0x14>
100074c0:	005a      	lsls	r2, r3, #1
100074c2:	1812      	adds	r2, r2, r0
100074c4:	d801      	bhi.n	100074ca <__wrap___aeabi_dcmpun+0x14>
100074c6:	2000      	movs	r0, #0
100074c8:	4770      	bx	lr
100074ca:	2001      	movs	r0, #1
100074cc:	4770      	bx	lr
100074ce:	2000      	movs	r0, #0
100074d0:	4770      	bx	lr
	...

100074d4 <__wrap___aeabi_ui2d>:
100074d4:	2100      	movs	r1, #0
100074d6:	2800      	cmp	r0, #0
100074d8:	d105      	bne.n	100074e6 <__wrap___aeabi_i2d+0xa>
100074da:	4770      	bx	lr

100074dc <__wrap___aeabi_i2d>:
100074dc:	17c1      	asrs	r1, r0, #31
100074de:	4048      	eors	r0, r1
100074e0:	1a40      	subs	r0, r0, r1
100074e2:	d0fa      	beq.n	100074da <__wrap___aeabi_ui2d+0x6>
100074e4:	07c9      	lsls	r1, r1, #31
100074e6:	b513      	push	{r0, r1, r4, lr}
100074e8:	4b06      	ldr	r3, [pc, #24]	@ (10007504 <__wrap___aeabi_i2d+0x28>)
100074ea:	681b      	ldr	r3, [r3, #0]
100074ec:	4798      	blx	r3
100074ee:	bc0c      	pop	{r2, r3}
100074f0:	1c44      	adds	r4, r0, #1
100074f2:	40a2      	lsls	r2, r4
100074f4:	0510      	lsls	r0, r2, #20
100074f6:	0b12      	lsrs	r2, r2, #12
100074f8:	4903      	ldr	r1, [pc, #12]	@ (10007508 <__wrap___aeabi_i2d+0x2c>)
100074fa:	1b09      	subs	r1, r1, r4
100074fc:	0509      	lsls	r1, r1, #20
100074fe:	4319      	orrs	r1, r3
10007500:	4311      	orrs	r1, r2
10007502:	bd10      	pop	{r4, pc}
10007504:	2003f39c 	.word	0x2003f39c
10007508:	0000041f 	.word	0x0000041f

1000750c <__wrap___aeabi_d2iz>:
1000750c:	b510      	push	{r4, lr}
1000750e:	004c      	lsls	r4, r1, #1
10007510:	0d62      	lsrs	r2, r4, #21
10007512:	2380      	movs	r3, #128	@ 0x80
10007514:	18d2      	adds	r2, r2, r3
10007516:	00db      	lsls	r3, r3, #3
10007518:	1ad2      	subs	r2, r2, r3
1000751a:	055b      	lsls	r3, r3, #21
1000751c:	2a7e      	cmp	r2, #126	@ 0x7e
1000751e:	dd10      	ble.n	10007542 <__wrap___aeabi_d2iz+0x36>
10007520:	3a9e      	subs	r2, #158	@ 0x9e
10007522:	da13      	bge.n	1000754c <__wrap___aeabi_d2iz+0x40>
10007524:	17cc      	asrs	r4, r1, #31
10007526:	0309      	lsls	r1, r1, #12
10007528:	0849      	lsrs	r1, r1, #1
1000752a:	4319      	orrs	r1, r3
1000752c:	4252      	negs	r2, r2
1000752e:	40d1      	lsrs	r1, r2
10007530:	0064      	lsls	r4, r4, #1
10007532:	3401      	adds	r4, #1
10007534:	3215      	adds	r2, #21
10007536:	2a20      	cmp	r2, #32
10007538:	da05      	bge.n	10007546 <__wrap___aeabi_d2iz+0x3a>
1000753a:	40d0      	lsrs	r0, r2
1000753c:	4308      	orrs	r0, r1
1000753e:	4360      	muls	r0, r4
10007540:	bd10      	pop	{r4, pc}
10007542:	2000      	movs	r0, #0
10007544:	bd10      	pop	{r4, pc}
10007546:	4608      	mov	r0, r1
10007548:	4360      	muls	r0, r4
1000754a:	bd10      	pop	{r4, pc}
1000754c:	0fc8      	lsrs	r0, r1, #31
1000754e:	18c0      	adds	r0, r0, r3
10007550:	3801      	subs	r0, #1
10007552:	bd10      	pop	{r4, pc}

10007554 <__wrap___aeabi_d2uiz>:
10007554:	b418      	push	{r3, r4}
10007556:	4b04      	ldr	r3, [pc, #16]	@ (10007568 <__wrap___aeabi_d2uiz+0x14>)
10007558:	6a5b      	ldr	r3, [r3, #36]	@ 0x24
1000755a:	46fc      	mov	ip, pc
1000755c:	9301      	str	r3, [sp, #4]
1000755e:	bd08      	pop	{r3, pc}
10007560:	7b75df24 	.word	0x7b75df24
10007564:	00001000 	.word	0x00001000
10007568:	20001670 	.word	0x20001670

1000756c <__wrap___aeabi_ul2d>:
1000756c:	b418      	push	{r3, r4}
1000756e:	4b04      	ldr	r3, [pc, #16]	@ (10007580 <__wrap___aeabi_ul2d+0x14>)
10007570:	6e5b      	ldr	r3, [r3, #100]	@ 0x64
10007572:	46fc      	mov	ip, pc
10007574:	9301      	str	r3, [sp, #4]
10007576:	bd08      	pop	{r3, pc}
10007578:	7c61df64 	.word	0x7c61df64
1000757c:	00001000 	.word	0x00001000
10007580:	20001670 	.word	0x20001670

10007584 <__wrap___aeabi_d2f>:
10007584:	b418      	push	{r3, r4}
10007586:	4b04      	ldr	r3, [pc, #16]	@ (10007598 <__wrap___aeabi_d2f+0x14>)
10007588:	6fdb      	ldr	r3, [r3, #124]	@ 0x7c
1000758a:	46fc      	mov	ip, pc
1000758c:	9301      	str	r3, [sp, #4]
1000758e:	bd08      	pop	{r3, pc}
10007590:	7bf5df7c 	.word	0x7bf5df7c
10007594:	00001000 	.word	0x00001000
10007598:	20001670 	.word	0x20001670

1000759c <__aeabi_double_init>:
1000759c:	2313      	movs	r3, #19
1000759e:	b570      	push	{r4, r5, r6, lr}
100075a0:	781d      	ldrb	r5, [r3, #0]
100075a2:	2d01      	cmp	r5, #1
100075a4:	d015      	beq.n	100075d2 <__aeabi_double_init+0x36>
100075a6:	dd10      	ble.n	100075ca <__aeabi_double_init+0x2e>
100075a8:	481d      	ldr	r0, [pc, #116]	@ (10007620 <__aeabi_double_init+0x84>)
100075aa:	f7ff fc71 	bl	10006e90 <rom_data_lookup>
100075ae:	4c1d      	ldr	r4, [pc, #116]	@ (10007624 <__aeabi_double_init+0x88>)
100075b0:	0001      	movs	r1, r0
100075b2:	2280      	movs	r2, #128	@ 0x80
100075b4:	0020      	movs	r0, r4
100075b6:	f000 fca7 	bl	10007f08 <__wrap___aeabi_memcpy>
100075ba:	2d02      	cmp	r5, #2
100075bc:	d02d      	beq.n	1000761a <__aeabi_double_init+0x7e>
100075be:	481a      	ldr	r0, [pc, #104]	@ (10007628 <__aeabi_double_init+0x8c>)
100075c0:	f7ff fc5e 	bl	10006e80 <rom_func_lookup>
100075c4:	4b19      	ldr	r3, [pc, #100]	@ (1000762c <__aeabi_double_init+0x90>)
100075c6:	6018      	str	r0, [r3, #0]
100075c8:	bd70      	pop	{r4, r5, r6, pc}
100075ca:	4b19      	ldr	r3, [pc, #100]	@ (10007630 <__aeabi_double_init+0x94>)
100075cc:	4c15      	ldr	r4, [pc, #84]	@ (10007624 <__aeabi_double_init+0x88>)
100075ce:	64a3      	str	r3, [r4, #72]	@ 0x48
100075d0:	e7f5      	b.n	100075be <__aeabi_double_init+0x22>
100075d2:	4b17      	ldr	r3, [pc, #92]	@ (10007630 <__aeabi_double_init+0x94>)
100075d4:	4c13      	ldr	r4, [pc, #76]	@ (10007624 <__aeabi_double_init+0x88>)
100075d6:	6023      	str	r3, [r4, #0]
100075d8:	6063      	str	r3, [r4, #4]
100075da:	60a3      	str	r3, [r4, #8]
100075dc:	60e3      	str	r3, [r4, #12]
100075de:	6123      	str	r3, [r4, #16]
100075e0:	6163      	str	r3, [r4, #20]
100075e2:	61a3      	str	r3, [r4, #24]
100075e4:	61e3      	str	r3, [r4, #28]
100075e6:	6223      	str	r3, [r4, #32]
100075e8:	6263      	str	r3, [r4, #36]	@ 0x24
100075ea:	62a3      	str	r3, [r4, #40]	@ 0x28
100075ec:	62e3      	str	r3, [r4, #44]	@ 0x2c
100075ee:	6323      	str	r3, [r4, #48]	@ 0x30
100075f0:	6363      	str	r3, [r4, #52]	@ 0x34
100075f2:	63a3      	str	r3, [r4, #56]	@ 0x38
100075f4:	63e3      	str	r3, [r4, #60]	@ 0x3c
100075f6:	6423      	str	r3, [r4, #64]	@ 0x40
100075f8:	6463      	str	r3, [r4, #68]	@ 0x44
100075fa:	64a3      	str	r3, [r4, #72]	@ 0x48
100075fc:	64e3      	str	r3, [r4, #76]	@ 0x4c
100075fe:	6523      	str	r3, [r4, #80]	@ 0x50
10007600:	6563      	str	r3, [r4, #84]	@ 0x54
10007602:	65a3      	str	r3, [r4, #88]	@ 0x58
10007604:	65e3      	str	r3, [r4, #92]	@ 0x5c
10007606:	6623      	str	r3, [r4, #96]	@ 0x60
10007608:	6663      	str	r3, [r4, #100]	@ 0x64
1000760a:	66a3      	str	r3, [r4, #104]	@ 0x68
1000760c:	66e3      	str	r3, [r4, #108]	@ 0x6c
1000760e:	6723      	str	r3, [r4, #112]	@ 0x70
10007610:	6763      	str	r3, [r4, #116]	@ 0x74
10007612:	67a3      	str	r3, [r4, #120]	@ 0x78
10007614:	67e3      	str	r3, [r4, #124]	@ 0x7c
10007616:	64a3      	str	r3, [r4, #72]	@ 0x48
10007618:	e7d1      	b.n	100075be <__aeabi_double_init+0x22>
1000761a:	4b05      	ldr	r3, [pc, #20]	@ (10007630 <__aeabi_double_init+0x94>)
1000761c:	64a3      	str	r3, [r4, #72]	@ 0x48
1000761e:	e7ce      	b.n	100075be <__aeabi_double_init+0x22>
10007620:	00004453 	.word	0x00004453
10007624:	20001670 	.word	0x20001670
10007628:	0000334c 	.word	0x0000334c
1000762c:	2003f39c 	.word	0x2003f39c
10007630:	100076d1 	.word	0x100076d1

10007634 <__wrap_round>:
10007634:	4a24      	ldr	r2, [pc, #144]	@ (100076c8 <__wrap_round+0x94>)
10007636:	004b      	lsls	r3, r1, #1
10007638:	4694      	mov	ip, r2
1000763a:	0d5b      	lsrs	r3, r3, #21
1000763c:	4463      	add	r3, ip
1000763e:	b5f0      	push	{r4, r5, r6, r7, lr}
10007640:	0004      	movs	r4, r0
10007642:	000d      	movs	r5, r1
10007644:	1c5a      	adds	r2, r3, #1
10007646:	db21      	blt.n	1000768c <__wrap_round+0x58>
10007648:	1c5a      	adds	r2, r3, #1
1000764a:	d035      	beq.n	100076b8 <__wrap_round+0x84>
1000764c:	2b34      	cmp	r3, #52	@ 0x34
1000764e:	da1c      	bge.n	1000768a <__wrap_round+0x56>
10007650:	2633      	movs	r6, #51	@ 0x33
10007652:	1af6      	subs	r6, r6, r3
10007654:	0037      	movs	r7, r6
10007656:	3f20      	subs	r7, #32
10007658:	d41c      	bmi.n	10007694 <__wrap_round+0x60>
1000765a:	2101      	movs	r1, #1
1000765c:	40b9      	lsls	r1, r7
1000765e:	000b      	movs	r3, r1
10007660:	2101      	movs	r1, #1
10007662:	40b1      	lsls	r1, r6
10007664:	000a      	movs	r2, r1
10007666:	1912      	adds	r2, r2, r4
10007668:	416b      	adcs	r3, r5
1000766a:	2f00      	cmp	r7, #0
1000766c:	db1e      	blt.n	100076ac <__wrap_round+0x78>
1000766e:	2402      	movs	r4, #2
10007670:	40bc      	lsls	r4, r7
10007672:	0021      	movs	r1, r4
10007674:	2402      	movs	r4, #2
10007676:	40b4      	lsls	r4, r6
10007678:	0020      	movs	r0, r4
1000767a:	0016      	movs	r6, r2
1000767c:	2500      	movs	r5, #0
1000767e:	4244      	negs	r4, r0
10007680:	418d      	sbcs	r5, r1
10007682:	4026      	ands	r6, r4
10007684:	402b      	ands	r3, r5
10007686:	0030      	movs	r0, r6
10007688:	0019      	movs	r1, r3
1000768a:	bdf0      	pop	{r4, r5, r6, r7, pc}
1000768c:	0fcb      	lsrs	r3, r1, #31
1000768e:	2000      	movs	r0, #0
10007690:	07d9      	lsls	r1, r3, #31
10007692:	e7fa      	b.n	1000768a <__wrap_round+0x56>
10007694:	2120      	movs	r1, #32
10007696:	2001      	movs	r0, #1
10007698:	1b89      	subs	r1, r1, r6
1000769a:	40c8      	lsrs	r0, r1
1000769c:	2101      	movs	r1, #1
1000769e:	40b1      	lsls	r1, r6
100076a0:	0003      	movs	r3, r0
100076a2:	000a      	movs	r2, r1
100076a4:	1912      	adds	r2, r2, r4
100076a6:	416b      	adcs	r3, r5
100076a8:	2f00      	cmp	r7, #0
100076aa:	dae0      	bge.n	1000766e <__wrap_round+0x3a>
100076ac:	2420      	movs	r4, #32
100076ae:	2502      	movs	r5, #2
100076b0:	1ba4      	subs	r4, r4, r6
100076b2:	40e5      	lsrs	r5, r4
100076b4:	0029      	movs	r1, r5
100076b6:	e7dd      	b.n	10007674 <__wrap_round+0x40>
100076b8:	0fcb      	lsrs	r3, r1, #31
100076ba:	4a04      	ldr	r2, [pc, #16]	@ (100076cc <__wrap_round+0x98>)
100076bc:	07db      	lsls	r3, r3, #31
100076be:	431a      	orrs	r2, r3
100076c0:	2000      	movs	r0, #0
100076c2:	0011      	movs	r1, r2
100076c4:	e7e1      	b.n	1000768a <__wrap_round+0x56>
100076c6:	46c0      	nop			@ (mov r8, r8)
100076c8:	fffffc01 	.word	0xfffffc01
100076cc:	3ff00000 	.word	0x3ff00000

100076d0 <double_table_shim_on_use_helper>:
100076d0:	b507      	push	{r0, r1, r2, lr}
100076d2:	4660      	mov	r0, ip
100076d4:	8801      	ldrh	r1, [r0, #0]
100076d6:	0a0a      	lsrs	r2, r1, #8
100076d8:	3002      	adds	r0, #2
100076da:	2adf      	cmp	r2, #223	@ 0xdf
100076dc:	d1fa      	bne.n	100076d4 <double_table_shim_on_use_helper+0x4>
100076de:	b2c9      	uxtb	r1, r1
100076e0:	0882      	lsrs	r2, r0, #2
100076e2:	d304      	bcc.n	100076ee <double_table_shim_on_use_helper+0x1e>
100076e4:	8802      	ldrh	r2, [r0, #0]
100076e6:	8840      	ldrh	r0, [r0, #2]
100076e8:	0400      	lsls	r0, r0, #16
100076ea:	4310      	orrs	r0, r2
100076ec:	e000      	b.n	100076f0 <double_table_shim_on_use_helper+0x20>
100076ee:	6800      	ldr	r0, [r0, #0]
100076f0:	4a01      	ldr	r2, [pc, #4]	@ (100076f8 <double_table_shim_on_use_helper+0x28>)
100076f2:	5050      	str	r0, [r2, r1]
100076f4:	9003      	str	r0, [sp, #12]
100076f6:	bd07      	pop	{r0, r1, r2, pc}
100076f8:	20001670 	.word	0x20001670

100076fc <drsub_shim>:
100076fc:	b40f      	push	{r0, r1, r2, r3}
100076fe:	bc03      	pop	{r0, r1}
10007700:	bc0c      	pop	{r2, r3}

10007702 <dsub_shim>:
10007702:	b5f0      	push	{r4, r5, r6, r7, lr}
10007704:	2401      	movs	r4, #1
10007706:	07e4      	lsls	r4, r4, #31
10007708:	4063      	eors	r3, r4
1000770a:	e000      	b.n	1000770e <da_entry>

1000770c <dadd_shim>:
1000770c:	b5f0      	push	{r4, r5, r6, r7, lr}

1000770e <da_entry>:
1000770e:	0d0c      	lsrs	r4, r1, #20
10007710:	0fcf      	lsrs	r7, r1, #31
10007712:	1e66      	subs	r6, r4, #1
10007714:	0536      	lsls	r6, r6, #20
10007716:	1b89      	subs	r1, r1, r6
10007718:	0564      	lsls	r4, r4, #21
1000771a:	d303      	bcc.n	10007724 <l8_1>
1000771c:	43c9      	mvns	r1, r1
1000771e:	4240      	negs	r0, r0
10007720:	d300      	bcc.n	10007724 <l8_1>
10007722:	3101      	adds	r1, #1

10007724 <l8_1>:
10007724:	0d64      	lsrs	r4, r4, #21
10007726:	d003      	beq.n	10007730 <l8_2>
10007728:	1c66      	adds	r6, r4, #1
1000772a:	0af6      	lsrs	r6, r6, #11
1000772c:	d007      	beq.n	1000773e <l8_3>
1000772e:	1be4      	subs	r4, r4, r7

10007730 <l8_2>:
10007730:	2000      	movs	r0, #0
10007732:	007f      	lsls	r7, r7, #1
10007734:	1c79      	adds	r1, r7, #1
10007736:	0789      	lsls	r1, r1, #30
10007738:	1289      	asrs	r1, r1, #10
1000773a:	3c80      	subs	r4, #128	@ 0x80
1000773c:	0324      	lsls	r4, r4, #12

1000773e <l8_3>:
1000773e:	0d1d      	lsrs	r5, r3, #20
10007740:	0fdf      	lsrs	r7, r3, #31
10007742:	1e6e      	subs	r6, r5, #1
10007744:	0536      	lsls	r6, r6, #20
10007746:	1b9b      	subs	r3, r3, r6
10007748:	056d      	lsls	r5, r5, #21
1000774a:	d303      	bcc.n	10007754 <l9_1>
1000774c:	43db      	mvns	r3, r3
1000774e:	4252      	negs	r2, r2
10007750:	d300      	bcc.n	10007754 <l9_1>
10007752:	3301      	adds	r3, #1

10007754 <l9_1>:
10007754:	0d6d      	lsrs	r5, r5, #21
10007756:	d003      	beq.n	10007760 <l9_2>
10007758:	1c6e      	adds	r6, r5, #1
1000775a:	0af6      	lsrs	r6, r6, #11
1000775c:	d007      	beq.n	1000776e <l9_3>
1000775e:	1bed      	subs	r5, r5, r7

10007760 <l9_2>:
10007760:	2200      	movs	r2, #0
10007762:	007f      	lsls	r7, r7, #1
10007764:	1c7b      	adds	r3, r7, #1
10007766:	079b      	lsls	r3, r3, #30
10007768:	129b      	asrs	r3, r3, #10
1000776a:	3d80      	subs	r5, #128	@ 0x80
1000776c:	032d      	lsls	r5, r5, #12

1000776e <l9_3>:
1000776e:	1b2f      	subs	r7, r5, r4
10007770:	1b66      	subs	r6, r4, r5
10007772:	d458      	bmi.n	10007826 <da_ygtx>
10007774:	46a4      	mov	ip, r4
10007776:	2e20      	cmp	r6, #32
10007778:	da46      	bge.n	10007808 <da_xrgty>
1000777a:	3720      	adds	r7, #32
1000777c:	0014      	movs	r4, r2
1000777e:	40bc      	lsls	r4, r7

10007780 <da_xgty0>:
10007780:	001d      	movs	r5, r3
10007782:	40bd      	lsls	r5, r7
10007784:	40f2      	lsrs	r2, r6
10007786:	4133      	asrs	r3, r6
10007788:	432a      	orrs	r2, r5

1000778a <da_add>:
1000778a:	1880      	adds	r0, r0, r2
1000778c:	4159      	adcs	r1, r3

1000778e <da_pack>:
1000778e:	0fcb      	lsrs	r3, r1, #31
10007790:	d005      	beq.n	1000779e <da_pack+0x10>
10007792:	43c9      	mvns	r1, r1
10007794:	43c0      	mvns	r0, r0
10007796:	2200      	movs	r2, #0
10007798:	4264      	negs	r4, r4
1000779a:	4150      	adcs	r0, r2
1000779c:	4151      	adcs	r1, r2
1000779e:	4662      	mov	r2, ip
100077a0:	0d4d      	lsrs	r5, r1, #21
100077a2:	d128      	bne.n	100077f6 <da_0>
100077a4:	0d0d      	lsrs	r5, r1, #20
100077a6:	d107      	bne.n	100077b8 <da_1>
100077a8:	2800      	cmp	r0, #0
100077aa:	d01f      	beq.n	100077ec <da_5>

100077ac <da_2>:
100077ac:	1924      	adds	r4, r4, r4
100077ae:	4140      	adcs	r0, r0
100077b0:	4149      	adcs	r1, r1
100077b2:	3a01      	subs	r2, #1
100077b4:	0d0d      	lsrs	r5, r1, #20
100077b6:	d0f9      	beq.n	100077ac <da_2>

100077b8 <da_1>:
100077b8:	0064      	lsls	r4, r4, #1
100077ba:	d306      	bcc.n	100077ca <da_3>

100077bc <da_4>:
100077bc:	3001      	adds	r0, #1
100077be:	d300      	bcc.n	100077c2 <da_4+0x6>
100077c0:	3101      	adds	r1, #1
100077c2:	2c00      	cmp	r4, #0
100077c4:	d101      	bne.n	100077ca <da_3>
100077c6:	0840      	lsrs	r0, r0, #1
100077c8:	0040      	lsls	r0, r0, #1

100077ca <da_3>:
100077ca:	3a01      	subs	r2, #1
100077cc:	d40b      	bmi.n	100077e6 <da_6>
100077ce:	1c94      	adds	r4, r2, #2
100077d0:	0ae4      	lsrs	r4, r4, #11
100077d2:	d104      	bne.n	100077de <da_7>
100077d4:	0512      	lsls	r2, r2, #20
100077d6:	4411      	add	r1, r2
100077d8:	07db      	lsls	r3, r3, #31
100077da:	4419      	add	r1, r3
100077dc:	bdf0      	pop	{r4, r5, r6, r7, pc}

100077de <da_7>:
100077de:	07d9      	lsls	r1, r3, #31
100077e0:	4b20      	ldr	r3, [pc, #128]	@ (10007864 <da_xmgty+0x4>)
100077e2:	4319      	orrs	r1, r3
100077e4:	e000      	b.n	100077e8 <da_6+0x2>

100077e6 <da_6>:
100077e6:	07d9      	lsls	r1, r3, #31
100077e8:	2000      	movs	r0, #0
100077ea:	bdf0      	pop	{r4, r5, r6, r7, pc}

100077ec <da_5>:
100077ec:	2900      	cmp	r1, #0
100077ee:	d1dd      	bne.n	100077ac <da_2>
100077f0:	2c00      	cmp	r4, #0
100077f2:	d1db      	bne.n	100077ac <da_2>
100077f4:	bdf0      	pop	{r4, r5, r6, r7, pc}

100077f6 <da_0>:
100077f6:	3201      	adds	r2, #1
100077f8:	07c6      	lsls	r6, r0, #31
100077fa:	0840      	lsrs	r0, r0, #1
100077fc:	07cd      	lsls	r5, r1, #31
100077fe:	4328      	orrs	r0, r5
10007800:	0849      	lsrs	r1, r1, #1
10007802:	2e00      	cmp	r6, #0
10007804:	d0e1      	beq.n	100077ca <da_3>
10007806:	e7d9      	b.n	100077bc <da_4>

10007808 <da_xrgty>:
10007808:	2e3c      	cmp	r6, #60	@ 0x3c
1000780a:	da29      	bge.n	10007860 <da_xmgty>
1000780c:	3e20      	subs	r6, #32
1000780e:	3740      	adds	r7, #64	@ 0x40
10007810:	0014      	movs	r4, r2
10007812:	40bc      	lsls	r4, r7
10007814:	d000      	beq.n	10007818 <da_xrgty+0x10>
10007816:	2401      	movs	r4, #1
10007818:	40f2      	lsrs	r2, r6
1000781a:	4314      	orrs	r4, r2
1000781c:	001a      	movs	r2, r3
1000781e:	40bb      	lsls	r3, r7
10007820:	431c      	orrs	r4, r3
10007822:	17d3      	asrs	r3, r2, #31
10007824:	e7ac      	b.n	10007780 <da_xgty0>

10007826 <da_ygtx>:
10007826:	46ac      	mov	ip, r5
10007828:	2f20      	cmp	r7, #32
1000782a:	da08      	bge.n	1000783e <da_yrgtx>
1000782c:	3620      	adds	r6, #32
1000782e:	0004      	movs	r4, r0
10007830:	40b4      	lsls	r4, r6

10007832 <da_ygtx0>:
10007832:	000d      	movs	r5, r1
10007834:	40b5      	lsls	r5, r6
10007836:	40f8      	lsrs	r0, r7
10007838:	4139      	asrs	r1, r7
1000783a:	4328      	orrs	r0, r5
1000783c:	e7a5      	b.n	1000778a <da_add>

1000783e <da_yrgtx>:
1000783e:	2f3c      	cmp	r7, #60	@ 0x3c
10007840:	da0c      	bge.n	1000785c <da_ymgtx>
10007842:	3f20      	subs	r7, #32
10007844:	3640      	adds	r6, #64	@ 0x40
10007846:	0004      	movs	r4, r0
10007848:	40b4      	lsls	r4, r6
1000784a:	d000      	beq.n	1000784e <da_yrgtx+0x10>
1000784c:	2401      	movs	r4, #1
1000784e:	40f8      	lsrs	r0, r7
10007850:	4304      	orrs	r4, r0
10007852:	0008      	movs	r0, r1
10007854:	40b1      	lsls	r1, r6
10007856:	430c      	orrs	r4, r1
10007858:	17c1      	asrs	r1, r0, #31
1000785a:	e7ea      	b.n	10007832 <da_ygtx0>

1000785c <da_ymgtx>:
1000785c:	0010      	movs	r0, r2
1000785e:	0019      	movs	r1, r3

10007860 <da_xmgty>:
10007860:	2400      	movs	r4, #0
10007862:	e794      	b.n	1000778e <da_pack>
10007864:	7ff00000 	.word	0x7ff00000

10007868 <dmul_shim>:
10007868:	b5f0      	push	{r4, r5, r6, r7, lr}
1000786a:	0d0c      	lsrs	r4, r1, #20
1000786c:	1e66      	subs	r6, r4, #1
1000786e:	0536      	lsls	r6, r6, #20
10007870:	1b89      	subs	r1, r1, r6
10007872:	0ae6      	lsrs	r6, r4, #11
10007874:	0564      	lsls	r4, r4, #21
10007876:	0d64      	lsrs	r4, r4, #21
10007878:	d002      	beq.n	10007880 <l12_1>
1000787a:	1c65      	adds	r5, r4, #1
1000787c:	0aed      	lsrs	r5, r5, #11
1000787e:	d004      	beq.n	1000788a <l12_2>

10007880 <l12_1>:
10007880:	2000      	movs	r0, #0
10007882:	2101      	movs	r1, #1
10007884:	0509      	lsls	r1, r1, #20
10007886:	3c80      	subs	r4, #128	@ 0x80
10007888:	0324      	lsls	r4, r4, #12

1000788a <l12_2>:
1000788a:	46a4      	mov	ip, r4
1000788c:	0d1c      	lsrs	r4, r3, #20
1000788e:	1e67      	subs	r7, r4, #1
10007890:	053f      	lsls	r7, r7, #20
10007892:	1bdb      	subs	r3, r3, r7
10007894:	0ae7      	lsrs	r7, r4, #11
10007896:	0564      	lsls	r4, r4, #21
10007898:	0d64      	lsrs	r4, r4, #21
1000789a:	d002      	beq.n	100078a2 <l13_1>
1000789c:	1c65      	adds	r5, r4, #1
1000789e:	0aed      	lsrs	r5, r5, #11
100078a0:	d004      	beq.n	100078ac <l13_2>

100078a2 <l13_1>:
100078a2:	2200      	movs	r2, #0
100078a4:	2301      	movs	r3, #1
100078a6:	051b      	lsls	r3, r3, #20
100078a8:	3c80      	subs	r4, #128	@ 0x80
100078aa:	0324      	lsls	r4, r4, #12

100078ac <l13_2>:
100078ac:	4077      	eors	r7, r6
100078ae:	4464      	add	r4, ip
100078b0:	b497      	push	{r0, r1, r2, r4, r7}
100078b2:	b284      	uxth	r4, r0
100078b4:	b296      	uxth	r6, r2
100078b6:	4374      	muls	r4, r6
100078b8:	0c07      	lsrs	r7, r0, #16
100078ba:	437e      	muls	r6, r7
100078bc:	0c15      	lsrs	r5, r2, #16
100078be:	436f      	muls	r7, r5
100078c0:	b280      	uxth	r0, r0
100078c2:	4368      	muls	r0, r5
100078c4:	1836      	adds	r6, r6, r0
100078c6:	d302      	bcc.n	100078ce <l14_1>
100078c8:	2001      	movs	r0, #1
100078ca:	0400      	lsls	r0, r0, #16
100078cc:	183f      	adds	r7, r7, r0

100078ce <l14_1>:
100078ce:	0430      	lsls	r0, r6, #16
100078d0:	0c35      	lsrs	r5, r6, #16
100078d2:	1900      	adds	r0, r0, r4
100078d4:	417d      	adcs	r5, r7
100078d6:	4684      	mov	ip, r0
100078d8:	b288      	uxth	r0, r1
100078da:	b29a      	uxth	r2, r3
100078dc:	4350      	muls	r0, r2
100078de:	0c0c      	lsrs	r4, r1, #16
100078e0:	4362      	muls	r2, r4
100078e2:	0c1f      	lsrs	r7, r3, #16
100078e4:	437c      	muls	r4, r7
100078e6:	b28e      	uxth	r6, r1
100078e8:	437e      	muls	r6, r7
100078ea:	1992      	adds	r2, r2, r6
100078ec:	d302      	bcc.n	100078f4 <l15_1>
100078ee:	2601      	movs	r6, #1
100078f0:	0436      	lsls	r6, r6, #16
100078f2:	19a4      	adds	r4, r4, r6

100078f4 <l15_1>:
100078f4:	0416      	lsls	r6, r2, #16
100078f6:	0c17      	lsrs	r7, r2, #16
100078f8:	1836      	adds	r6, r6, r0
100078fa:	4167      	adcs	r7, r4
100078fc:	bc01      	pop	{r0}
100078fe:	b281      	uxth	r1, r0
10007900:	b29a      	uxth	r2, r3
10007902:	4351      	muls	r1, r2
10007904:	0c04      	lsrs	r4, r0, #16
10007906:	4362      	muls	r2, r4
10007908:	0c1b      	lsrs	r3, r3, #16
1000790a:	435c      	muls	r4, r3
1000790c:	b280      	uxth	r0, r0
1000790e:	4358      	muls	r0, r3
10007910:	1812      	adds	r2, r2, r0
10007912:	d302      	bcc.n	1000791a <l16_1>
10007914:	2001      	movs	r0, #1
10007916:	0400      	lsls	r0, r0, #16
10007918:	1824      	adds	r4, r4, r0

1000791a <l16_1>:
1000791a:	0410      	lsls	r0, r2, #16
1000791c:	0c13      	lsrs	r3, r2, #16
1000791e:	1840      	adds	r0, r0, r1
10007920:	4163      	adcs	r3, r4
10007922:	182d      	adds	r5, r5, r0
10007924:	415e      	adcs	r6, r3
10007926:	2000      	movs	r0, #0
10007928:	4147      	adcs	r7, r0
1000792a:	bc06      	pop	{r1, r2}
1000792c:	b288      	uxth	r0, r1
1000792e:	b293      	uxth	r3, r2
10007930:	4358      	muls	r0, r3
10007932:	0c0c      	lsrs	r4, r1, #16
10007934:	4363      	muls	r3, r4
10007936:	0c12      	lsrs	r2, r2, #16
10007938:	4354      	muls	r4, r2
1000793a:	b289      	uxth	r1, r1
1000793c:	4351      	muls	r1, r2
1000793e:	185b      	adds	r3, r3, r1
10007940:	d302      	bcc.n	10007948 <l17_1>
10007942:	2101      	movs	r1, #1
10007944:	0409      	lsls	r1, r1, #16
10007946:	1864      	adds	r4, r4, r1

10007948 <l17_1>:
10007948:	0419      	lsls	r1, r3, #16
1000794a:	0c1a      	lsrs	r2, r3, #16
1000794c:	1809      	adds	r1, r1, r0
1000794e:	4162      	adcs	r2, r4
10007950:	186d      	adds	r5, r5, r1
10007952:	4156      	adcs	r6, r2
10007954:	2000      	movs	r0, #0
10007956:	4147      	adcs	r7, r0
10007958:	bc18      	pop	{r3, r4}
1000795a:	02f9      	lsls	r1, r7, #11
1000795c:	0d72      	lsrs	r2, r6, #21
1000795e:	4311      	orrs	r1, r2
10007960:	02f0      	lsls	r0, r6, #11
10007962:	0d6a      	lsrs	r2, r5, #21
10007964:	4310      	orrs	r0, r2
10007966:	02ed      	lsls	r5, r5, #11
10007968:	0d0a      	lsrs	r2, r1, #20
1000796a:	d103      	bne.n	10007974 <l17_1+0x2c>
1000796c:	196d      	adds	r5, r5, r5
1000796e:	4140      	adcs	r0, r0
10007970:	4149      	adcs	r1, r1
10007972:	3b01      	subs	r3, #1
10007974:	4e12      	ldr	r6, [pc, #72]	@ (100079c0 <dm_1+0xa>)
10007976:	1b9b      	subs	r3, r3, r6
10007978:	0076      	lsls	r6, r6, #1
1000797a:	42b3      	cmp	r3, r6
1000797c:	d20e      	bcs.n	1000799c <dm_0>
1000797e:	006d      	lsls	r5, r5, #1
10007980:	d307      	bcc.n	10007992 <l17_1+0x4a>
10007982:	3001      	adds	r0, #1
10007984:	2600      	movs	r6, #0
10007986:	4171      	adcs	r1, r6
10007988:	4666      	mov	r6, ip
1000798a:	4335      	orrs	r5, r6
1000798c:	d101      	bne.n	10007992 <l17_1+0x4a>
1000798e:	0840      	lsrs	r0, r0, #1
10007990:	0040      	lsls	r0, r0, #1
10007992:	051b      	lsls	r3, r3, #20
10007994:	18c9      	adds	r1, r1, r3

10007996 <dm_2>:
10007996:	07e4      	lsls	r4, r4, #31
10007998:	4421      	add	r1, r4
1000799a:	bdf0      	pop	{r4, r5, r6, r7, pc}

1000799c <dm_0>:
1000799c:	da0b      	bge.n	100079b6 <dm_1>
1000799e:	3301      	adds	r3, #1
100079a0:	d106      	bne.n	100079b0 <dm_0+0x14>
100079a2:	3001      	adds	r0, #1
100079a4:	d104      	bne.n	100079b0 <dm_0+0x14>
100079a6:	3101      	adds	r1, #1
100079a8:	0d4f      	lsrs	r7, r1, #21
100079aa:	d001      	beq.n	100079b0 <dm_0+0x14>
100079ac:	0849      	lsrs	r1, r1, #1
100079ae:	e7f2      	b.n	10007996 <dm_2>
100079b0:	07e1      	lsls	r1, r4, #31
100079b2:	2000      	movs	r0, #0
100079b4:	bdf0      	pop	{r4, r5, r6, r7, pc}

100079b6 <dm_1>:
100079b6:	3601      	adds	r6, #1
100079b8:	0531      	lsls	r1, r6, #20
100079ba:	2000      	movs	r0, #0
100079bc:	e7eb      	b.n	10007996 <dm_2>
100079be:	0000      	.short	0x0000
100079c0:	000003ff 	.word	0x000003ff

100079c4 <ddiv_shim>:
100079c4:	b5f0      	push	{r4, r5, r6, r7, lr}

100079c6 <ddiv0>:
100079c6:	0d1c      	lsrs	r4, r3, #20
100079c8:	1e67      	subs	r7, r4, #1
100079ca:	053f      	lsls	r7, r7, #20
100079cc:	1bdb      	subs	r3, r3, r7
100079ce:	0ae7      	lsrs	r7, r4, #11
100079d0:	0564      	lsls	r4, r4, #21
100079d2:	0d64      	lsrs	r4, r4, #21
100079d4:	d002      	beq.n	100079dc <l20_1>
100079d6:	1c66      	adds	r6, r4, #1
100079d8:	0af6      	lsrs	r6, r6, #11
100079da:	d004      	beq.n	100079e6 <l20_2>

100079dc <l20_1>:
100079dc:	2200      	movs	r2, #0
100079de:	2301      	movs	r3, #1
100079e0:	051b      	lsls	r3, r3, #20
100079e2:	3c80      	subs	r4, #128	@ 0x80
100079e4:	0324      	lsls	r4, r4, #12

100079e6 <l20_2>:
100079e6:	25d0      	movs	r5, #208	@ 0xd0
100079e8:	062d      	lsls	r5, r5, #24
100079ea:	2600      	movs	r6, #0
100079ec:	43f6      	mvns	r6, r6
100079ee:	662e      	str	r6, [r5, #96]	@ 0x60
100079f0:	091e      	lsrs	r6, r3, #4
100079f2:	666e      	str	r6, [r5, #100]	@ 0x64
100079f4:	0fce      	lsrs	r6, r1, #31
100079f6:	19f6      	adds	r6, r6, r7
100079f8:	46b4      	mov	ip, r6
100079fa:	0049      	lsls	r1, r1, #1
100079fc:	0d4f      	lsrs	r7, r1, #21
100079fe:	d002      	beq.n	10007a06 <l20_2+0x20>
10007a00:	1c7e      	adds	r6, r7, #1
10007a02:	0af6      	lsrs	r6, r6, #11
10007a04:	d003      	beq.n	10007a0e <l20_2+0x28>
10007a06:	2000      	movs	r0, #0
10007a08:	2100      	movs	r1, #0
10007a0a:	3f40      	subs	r7, #64	@ 0x40
10007a0c:	033f      	lsls	r7, r7, #12
10007a0e:	1b3e      	subs	r6, r7, r4
10007a10:	00b6      	lsls	r6, r6, #2
10007a12:	44b4      	add	ip, r6
10007a14:	3f01      	subs	r7, #1
10007a16:	057f      	lsls	r7, r7, #21
10007a18:	1bc9      	subs	r1, r1, r7
10007a1a:	0849      	lsrs	r1, r1, #1
10007a1c:	6f2e      	ldr	r6, [r5, #112]	@ 0x70
10007a1e:	3601      	adds	r6, #1
10007a20:	0876      	lsrs	r6, r6, #1
10007a22:	029c      	lsls	r4, r3, #10
10007a24:	0d95      	lsrs	r5, r2, #22
10007a26:	4325      	orrs	r5, r4
10007a28:	4375      	muls	r5, r6
10007a2a:	13ed      	asrs	r5, r5, #15
10007a2c:	4375      	muls	r5, r6
10007a2e:	13ad      	asrs	r5, r5, #14
10007a30:	3501      	adds	r5, #1
10007a32:	106d      	asrs	r5, r5, #1
10007a34:	03f6      	lsls	r6, r6, #15
10007a36:	1b76      	subs	r6, r6, r5
10007a38:	b40c      	push	{r2, r3}
10007a3a:	02cc      	lsls	r4, r1, #11
10007a3c:	0d45      	lsrs	r5, r0, #21
10007a3e:	432c      	orrs	r4, r5
10007a40:	b2a2      	uxth	r2, r4
10007a42:	b2b3      	uxth	r3, r6
10007a44:	435a      	muls	r2, r3
10007a46:	0c27      	lsrs	r7, r4, #16
10007a48:	437b      	muls	r3, r7
10007a4a:	0c35      	lsrs	r5, r6, #16
10007a4c:	436f      	muls	r7, r5
10007a4e:	b2a4      	uxth	r4, r4
10007a50:	436c      	muls	r4, r5
10007a52:	191b      	adds	r3, r3, r4
10007a54:	d302      	bcc.n	10007a5c <l21_1>
10007a56:	2401      	movs	r4, #1
10007a58:	0424      	lsls	r4, r4, #16
10007a5a:	193f      	adds	r7, r7, r4

10007a5c <l21_1>:
10007a5c:	041c      	lsls	r4, r3, #16
10007a5e:	0c1d      	lsrs	r5, r3, #16
10007a60:	18a4      	adds	r4, r4, r2
10007a62:	417d      	adcs	r5, r7
10007a64:	1924      	adds	r4, r4, r4
10007a66:	416d      	adcs	r5, r5
10007a68:	9a00      	ldr	r2, [sp, #0]
10007a6a:	b291      	uxth	r1, r2
10007a6c:	b2ac      	uxth	r4, r5
10007a6e:	4361      	muls	r1, r4
10007a70:	0c17      	lsrs	r7, r2, #16
10007a72:	437c      	muls	r4, r7
10007a74:	0c2b      	lsrs	r3, r5, #16
10007a76:	435f      	muls	r7, r3
10007a78:	b292      	uxth	r2, r2
10007a7a:	435a      	muls	r2, r3
10007a7c:	18a4      	adds	r4, r4, r2
10007a7e:	d302      	bcc.n	10007a86 <l22_1>
10007a80:	2201      	movs	r2, #1
10007a82:	0412      	lsls	r2, r2, #16
10007a84:	18bf      	adds	r7, r7, r2

10007a86 <l22_1>:
10007a86:	0422      	lsls	r2, r4, #16
10007a88:	0c23      	lsrs	r3, r4, #16
10007a8a:	1852      	adds	r2, r2, r1
10007a8c:	417b      	adcs	r3, r7
10007a8e:	9c01      	ldr	r4, [sp, #4]
10007a90:	436c      	muls	r4, r5
10007a92:	191b      	adds	r3, r3, r4
10007a94:	0e52      	lsrs	r2, r2, #25
10007a96:	01d9      	lsls	r1, r3, #7
10007a98:	430a      	orrs	r2, r1
10007a9a:	0144      	lsls	r4, r0, #5
10007a9c:	1aa0      	subs	r0, r4, r2
10007a9e:	b281      	uxth	r1, r0
10007aa0:	b2b2      	uxth	r2, r6
10007aa2:	4351      	muls	r1, r2
10007aa4:	1403      	asrs	r3, r0, #16
10007aa6:	435a      	muls	r2, r3
10007aa8:	0c36      	lsrs	r6, r6, #16
10007aaa:	4373      	muls	r3, r6
10007aac:	b287      	uxth	r7, r0
10007aae:	4377      	muls	r7, r6
10007ab0:	17d6      	asrs	r6, r2, #31
10007ab2:	19d2      	adds	r2, r2, r7
10007ab4:	2700      	movs	r7, #0
10007ab6:	417e      	adcs	r6, r7
10007ab8:	0436      	lsls	r6, r6, #16
10007aba:	199b      	adds	r3, r3, r6
10007abc:	0417      	lsls	r7, r2, #16
10007abe:	0c16      	lsrs	r6, r2, #16
10007ac0:	187f      	adds	r7, r7, r1
10007ac2:	415e      	adcs	r6, r3
10007ac4:	1673      	asrs	r3, r6, #25
10007ac6:	18ed      	adds	r5, r5, r3
10007ac8:	01f3      	lsls	r3, r6, #7
10007aca:	2600      	movs	r6, #0
10007acc:	3380      	adds	r3, #128	@ 0x80
10007ace:	4175      	adcs	r5, r6
10007ad0:	0fa9      	lsrs	r1, r5, #30
10007ad2:	d106      	bne.n	10007ae2 <dd_0>
10007ad4:	0064      	lsls	r4, r4, #1
10007ad6:	0a69      	lsrs	r1, r5, #9
10007ad8:	05e8      	lsls	r0, r5, #23
10007ada:	0a5b      	lsrs	r3, r3, #9
10007adc:	4318      	orrs	r0, r3
10007ade:	d209      	bcs.n	10007af4 <dd_1>
10007ae0:	e02f      	b.n	10007b42 <dd_2>

10007ae2 <dd_0>:
10007ae2:	2204      	movs	r2, #4
10007ae4:	4494      	add	ip, r2
10007ae6:	3380      	adds	r3, #128	@ 0x80
10007ae8:	4175      	adcs	r5, r6
10007aea:	0aa9      	lsrs	r1, r5, #10
10007aec:	05a8      	lsls	r0, r5, #22
10007aee:	0a9b      	lsrs	r3, r3, #10
10007af0:	4318      	orrs	r0, r3
10007af2:	d326      	bcc.n	10007b42 <dd_2>

10007af4 <dd_1>:
10007af4:	4140      	adcs	r0, r0
10007af6:	4149      	adcs	r1, r1
10007af8:	0424      	lsls	r4, r4, #16
10007afa:	9a00      	ldr	r2, [sp, #0]
10007afc:	9b01      	ldr	r3, [sp, #4]
10007afe:	000d      	movs	r5, r1
10007b00:	4355      	muls	r5, r2
10007b02:	1b64      	subs	r4, r4, r5
10007b04:	4343      	muls	r3, r0
10007b06:	1ae4      	subs	r4, r4, r3
10007b08:	b295      	uxth	r5, r2
10007b0a:	b286      	uxth	r6, r0
10007b0c:	4375      	muls	r5, r6
10007b0e:	0c17      	lsrs	r7, r2, #16
10007b10:	437e      	muls	r6, r7
10007b12:	0c03      	lsrs	r3, r0, #16
10007b14:	435f      	muls	r7, r3
10007b16:	b292      	uxth	r2, r2
10007b18:	435a      	muls	r2, r3
10007b1a:	18b6      	adds	r6, r6, r2
10007b1c:	d302      	bcc.n	10007b24 <l24_1>
10007b1e:	2201      	movs	r2, #1
10007b20:	0412      	lsls	r2, r2, #16
10007b22:	18bf      	adds	r7, r7, r2

10007b24 <l24_1>:
10007b24:	0432      	lsls	r2, r6, #16
10007b26:	0c33      	lsrs	r3, r6, #16
10007b28:	1952      	adds	r2, r2, r5
10007b2a:	417b      	adcs	r3, r7
10007b2c:	4252      	negs	r2, r2
10007b2e:	419c      	sbcs	r4, r3
10007b30:	2c00      	cmp	r4, #0
10007b32:	d402      	bmi.n	10007b3a <l24_1+0x16>
10007b34:	2200      	movs	r2, #0
10007b36:	3001      	adds	r0, #1
10007b38:	4151      	adcs	r1, r2
10007b3a:	0840      	lsrs	r0, r0, #1
10007b3c:	07ca      	lsls	r2, r1, #31
10007b3e:	4310      	orrs	r0, r2
10007b40:	0849      	lsrs	r1, r1, #1

10007b42 <dd_2>:
10007b42:	b002      	add	sp, #8
10007b44:	4662      	mov	r2, ip
10007b46:	07d7      	lsls	r7, r2, #31
10007b48:	1092      	asrs	r2, r2, #2
10007b4a:	4b08      	ldr	r3, [pc, #32]	@ (10007b6c <dd_4+0x6>)
10007b4c:	18d2      	adds	r2, r2, r3
10007b4e:	4b08      	ldr	r3, [pc, #32]	@ (10007b70 <dd_4+0xa>)
10007b50:	429a      	cmp	r2, r3
10007b52:	d203      	bcs.n	10007b5c <dd_3>
10007b54:	0512      	lsls	r2, r2, #20
10007b56:	1889      	adds	r1, r1, r2

10007b58 <dd_5>:
10007b58:	19c9      	adds	r1, r1, r7
10007b5a:	bdf0      	pop	{r4, r5, r6, r7, pc}

10007b5c <dd_3>:
10007b5c:	2000      	movs	r0, #0
10007b5e:	2a00      	cmp	r2, #0
10007b60:	dc01      	bgt.n	10007b66 <dd_4>
10007b62:	0039      	movs	r1, r7
10007b64:	bdf0      	pop	{r4, r5, r6, r7, pc}

10007b66 <dd_4>:
10007b66:	3301      	adds	r3, #1
10007b68:	0519      	lsls	r1, r3, #20
10007b6a:	e7f5      	b.n	10007b58 <dd_5>
10007b6c:	000003fd 	.word	0x000003fd
10007b70:	000007fe 	.word	0x000007fe

10007b74 <double2uint_shim>:
10007b74:	2200      	movs	r2, #0

10007b76 <double2ufix_shim>:
10007b76:	b500      	push	{lr}
10007b78:	3220      	adds	r2, #32
10007b7a:	f000 f804 	bl	10007b86 <double2ufix64_shim>
10007b7e:	0008      	movs	r0, r1
10007b80:	bd00      	pop	{pc}
	...

10007b84 <double2uint64_shim>:
10007b84:	2200      	movs	r2, #0

10007b86 <double2ufix64_shim>:
10007b86:	150b      	asrs	r3, r1, #20
10007b88:	d40a      	bmi.n	10007ba0 <ret_dzero>

10007b8a <d2fix>:
10007b8a:	b510      	push	{r4, lr}
10007b8c:	4694      	mov	ip, r2
10007b8e:	f000 f8a7 	bl	10007ce0 <dunpacks>
10007b92:	1414      	asrs	r4, r2, #16
10007b94:	3401      	adds	r4, #1
10007b96:	da00      	bge.n	10007b9a <d2fix+0x10>
10007b98:	2100      	movs	r1, #0
10007b9a:	17cb      	asrs	r3, r1, #31
10007b9c:	4c14      	ldr	r4, [pc, #80]	@ (10007bf0 <d2fix_a+0x4a>)
10007b9e:	4720      	bx	r4

10007ba0 <ret_dzero>:
10007ba0:	2000      	movs	r0, #0
10007ba2:	2100      	movs	r1, #0
10007ba4:	4770      	bx	lr

10007ba6 <d2fix_a>:
10007ba6:	4462      	add	r2, ip
10007ba8:	3a34      	subs	r2, #52	@ 0x34
10007baa:	d40c      	bmi.n	10007bc6 <d2fix_a+0x20>
10007bac:	2a0c      	cmp	r2, #12
10007bae:	da07      	bge.n	10007bc0 <d2fix_a+0x1a>
10007bb0:	0004      	movs	r4, r0
10007bb2:	4091      	lsls	r1, r2
10007bb4:	4090      	lsls	r0, r2
10007bb6:	4252      	negs	r2, r2
10007bb8:	3220      	adds	r2, #32
10007bba:	40d4      	lsrs	r4, r2
10007bbc:	4321      	orrs	r1, r4
10007bbe:	bd10      	pop	{r4, pc}
10007bc0:	43d8      	mvns	r0, r3
10007bc2:	43d9      	mvns	r1, r3
10007bc4:	bd10      	pop	{r4, pc}
10007bc6:	3220      	adds	r2, #32
10007bc8:	d407      	bmi.n	10007bda <d2fix_a+0x34>
10007bca:	460c      	mov	r4, r1
10007bcc:	4094      	lsls	r4, r2
10007bce:	4252      	negs	r2, r2
10007bd0:	3220      	adds	r2, #32
10007bd2:	4111      	asrs	r1, r2
10007bd4:	40d0      	lsrs	r0, r2
10007bd6:	4320      	orrs	r0, r4
10007bd8:	bd10      	pop	{r4, pc}
10007bda:	0008      	movs	r0, r1
10007bdc:	17c9      	asrs	r1, r1, #31
10007bde:	3220      	adds	r2, #32
10007be0:	d403      	bmi.n	10007bea <d2fix_a+0x44>
10007be2:	4252      	negs	r2, r2
10007be4:	3220      	adds	r2, #32
10007be6:	4110      	asrs	r0, r2
10007be8:	bd10      	pop	{r4, pc}
10007bea:	0018      	movs	r0, r3
10007bec:	0019      	movs	r1, r3
10007bee:	bd10      	pop	{r4, pc}
10007bf0:	10007ba7 	.word	0x10007ba7

10007bf4 <double2float_shim>:
10007bf4:	004a      	lsls	r2, r1, #1
10007bf6:	0d52      	lsrs	r2, r2, #21
10007bf8:	4b14      	ldr	r3, [pc, #80]	@ (10007c4c <double2float_shim+0x58>)
10007bfa:	1ad2      	subs	r2, r2, r3
10007bfc:	dd13      	ble.n	10007c26 <double2float_shim+0x32>
10007bfe:	2aff      	cmp	r2, #255	@ 0xff
10007c00:	da1e      	bge.n	10007c40 <double2float_shim+0x4c>
10007c02:	05d2      	lsls	r2, r2, #23
10007c04:	0fcb      	lsrs	r3, r1, #31
10007c06:	07db      	lsls	r3, r3, #31
10007c08:	431a      	orrs	r2, r3
10007c0a:	00c3      	lsls	r3, r0, #3
10007c0c:	0f40      	lsrs	r0, r0, #29
10007c0e:	0309      	lsls	r1, r1, #12
10007c10:	0a49      	lsrs	r1, r1, #9
10007c12:	4308      	orrs	r0, r1
10007c14:	4310      	orrs	r0, r2
10007c16:	005b      	lsls	r3, r3, #1
10007c18:	d301      	bcc.n	10007c1e <double2float_shim+0x2a>
10007c1a:	d001      	beq.n	10007c20 <double2float_shim+0x2c>
10007c1c:	3001      	adds	r0, #1
10007c1e:	4770      	bx	lr
10007c20:	0843      	lsrs	r3, r0, #1
10007c22:	d2fb      	bcs.n	10007c1c <double2float_shim+0x28>
10007c24:	4770      	bx	lr
10007c26:	d002      	beq.n	10007c2e <double2float_shim+0x3a>
10007c28:	0fc8      	lsrs	r0, r1, #31
10007c2a:	07c0      	lsls	r0, r0, #31
10007c2c:	4770      	bx	lr
10007c2e:	030a      	lsls	r2, r1, #12
10007c30:	1312      	asrs	r2, r2, #12
10007c32:	3201      	adds	r2, #1
10007c34:	d1f8      	bne.n	10007c28 <double2float_shim+0x34>
10007c36:	0f42      	lsrs	r2, r0, #29
10007c38:	2a07      	cmp	r2, #7
10007c3a:	d1f5      	bne.n	10007c28 <double2float_shim+0x34>
10007c3c:	2201      	movs	r2, #1
10007c3e:	e000      	b.n	10007c42 <double2float_shim+0x4e>
10007c40:	22ff      	movs	r2, #255	@ 0xff
10007c42:	0fc8      	lsrs	r0, r1, #31
10007c44:	0200      	lsls	r0, r0, #8
10007c46:	1880      	adds	r0, r0, r2
10007c48:	05c0      	lsls	r0, r0, #23
10007c4a:	4770      	bx	lr
10007c4c:	00000380 	.word	0x00000380

10007c50 <uint2double_shim>:
10007c50:	2100      	movs	r1, #0

10007c52 <ufix2double_shim>:
10007c52:	000a      	movs	r2, r1
10007c54:	2100      	movs	r1, #0
10007c56:	e004      	b.n	10007c62 <ufix642double_shim>

10007c58 <int2double_shim>:
10007c58:	2100      	movs	r1, #0

10007c5a <fix2double_shim>:
10007c5a:	000a      	movs	r2, r1
10007c5c:	17c1      	asrs	r1, r0, #31
10007c5e:	e004      	b.n	10007c6a <fix642double_shim>

10007c60 <uint642double_shim>:
10007c60:	2200      	movs	r2, #0

10007c62 <ufix642double_shim>:
10007c62:	2300      	movs	r3, #0
10007c64:	e006      	b.n	10007c74 <uf2d>
10007c66:	46c0      	nop			@ (mov r8, r8)

10007c68 <int642double_shim>:
10007c68:	2200      	movs	r2, #0

10007c6a <fix642double_shim>:
10007c6a:	17cb      	asrs	r3, r1, #31
10007c6c:	4058      	eors	r0, r3
10007c6e:	4059      	eors	r1, r3
10007c70:	1ac0      	subs	r0, r0, r3
10007c72:	4199      	sbcs	r1, r3

10007c74 <uf2d>:
10007c74:	b530      	push	{r4, r5, lr}
10007c76:	4c18      	ldr	r4, [pc, #96]	@ (10007cd8 <uf2d+0x64>)
10007c78:	1aa2      	subs	r2, r4, r2
10007c7a:	2900      	cmp	r1, #0
10007c7c:	d103      	bne.n	10007c86 <uf2d+0x12>
10007c7e:	0001      	movs	r1, r0
10007c80:	d010      	beq.n	10007ca4 <uf2d+0x30>
10007c82:	2000      	movs	r0, #0
10007c84:	3a20      	subs	r2, #32
10007c86:	154c      	asrs	r4, r1, #21
10007c88:	d112      	bne.n	10007cb0 <uf2d+0x3c>
10007c8a:	d204      	bcs.n	10007c96 <uf2d+0x22>
10007c8c:	3a01      	subs	r2, #1
10007c8e:	1800      	adds	r0, r0, r0
10007c90:	4149      	adcs	r1, r1
10007c92:	0d4c      	lsrs	r4, r1, #21
10007c94:	d3fa      	bcc.n	10007c8c <uf2d+0x18>
10007c96:	4c11      	ldr	r4, [pc, #68]	@ (10007cdc <uf2d+0x68>)
10007c98:	42a2      	cmp	r2, r4
10007c9a:	d204      	bcs.n	10007ca6 <uf2d+0x32>
10007c9c:	0512      	lsls	r2, r2, #20
10007c9e:	1889      	adds	r1, r1, r2
10007ca0:	07db      	lsls	r3, r3, #31
10007ca2:	18c9      	adds	r1, r1, r3
10007ca4:	bd30      	pop	{r4, r5, pc}
10007ca6:	43d2      	mvns	r2, r2
10007ca8:	0d52      	lsrs	r2, r2, #21
10007caa:	2000      	movs	r0, #0
10007cac:	2100      	movs	r1, #0
10007cae:	e7f5      	b.n	10007c9c <uf2d+0x28>
10007cb0:	d403      	bmi.n	10007cba <uf2d+0x46>
10007cb2:	3a01      	subs	r2, #1
10007cb4:	1800      	adds	r0, r0, r0
10007cb6:	4149      	adcs	r1, r1
10007cb8:	d5fb      	bpl.n	10007cb2 <uf2d+0x3e>
10007cba:	320b      	adds	r2, #11
10007cbc:	0544      	lsls	r4, r0, #21
10007cbe:	0ac0      	lsrs	r0, r0, #11
10007cc0:	054d      	lsls	r5, r1, #21
10007cc2:	4328      	orrs	r0, r5
10007cc4:	0ac9      	lsrs	r1, r1, #11
10007cc6:	0064      	lsls	r4, r4, #1
10007cc8:	d003      	beq.n	10007cd2 <uf2d+0x5e>
10007cca:	2400      	movs	r4, #0
10007ccc:	4160      	adcs	r0, r4
10007cce:	4161      	adcs	r1, r4
10007cd0:	e7e1      	b.n	10007c96 <uf2d+0x22>
10007cd2:	d3e0      	bcc.n	10007c96 <uf2d+0x22>
10007cd4:	0844      	lsrs	r4, r0, #1
10007cd6:	e7f8      	b.n	10007cca <uf2d+0x56>
10007cd8:	00000432 	.word	0x00000432
10007cdc:	000007fe 	.word	0x000007fe

10007ce0 <dunpacks>:
10007ce0:	0d0a      	lsrs	r2, r1, #20
10007ce2:	0fcc      	lsrs	r4, r1, #31
10007ce4:	1e53      	subs	r3, r2, #1
10007ce6:	051b      	lsls	r3, r3, #20
10007ce8:	1ac9      	subs	r1, r1, r3
10007cea:	0552      	lsls	r2, r2, #21
10007cec:	d303      	bcc.n	10007cf6 <l60_1>
10007cee:	43c9      	mvns	r1, r1
10007cf0:	4240      	negs	r0, r0
10007cf2:	d300      	bcc.n	10007cf6 <l60_1>
10007cf4:	3101      	adds	r1, #1

10007cf6 <l60_1>:
10007cf6:	0d52      	lsrs	r2, r2, #21
10007cf8:	d003      	beq.n	10007d02 <l60_2>
10007cfa:	1c53      	adds	r3, r2, #1
10007cfc:	0adb      	lsrs	r3, r3, #11
10007cfe:	d007      	beq.n	10007d10 <l60_3>
10007d00:	1b12      	subs	r2, r2, r4

10007d02 <l60_2>:
10007d02:	2000      	movs	r0, #0
10007d04:	0064      	lsls	r4, r4, #1
10007d06:	1c61      	adds	r1, r4, #1
10007d08:	0789      	lsls	r1, r1, #30
10007d0a:	1289      	asrs	r1, r1, #10
10007d0c:	3a80      	subs	r2, #128	@ 0x80
10007d0e:	0312      	lsls	r2, r2, #12

10007d10 <l60_3>:
10007d10:	4b01      	ldr	r3, [pc, #4]	@ (10007d18 <l60_3+0x8>)
10007d12:	1ad2      	subs	r2, r2, r3
10007d14:	4770      	bx	lr
10007d16:	0000      	.short	0x0000
10007d18:	000003ff 	.word	0x000003ff

10007d1c <__wrap___aeabi_lmul>:
10007d1c:	4351      	muls	r1, r2
10007d1e:	4343      	muls	r3, r0
10007d20:	18c9      	adds	r1, r1, r3
10007d22:	468c      	mov	ip, r1
10007d24:	0c11      	lsrs	r1, r2, #16
10007d26:	b283      	uxth	r3, r0
10007d28:	434b      	muls	r3, r1
10007d2a:	b410      	push	{r4}
10007d2c:	0c04      	lsrs	r4, r0, #16
10007d2e:	4361      	muls	r1, r4
10007d30:	b292      	uxth	r2, r2
10007d32:	b280      	uxth	r0, r0
10007d34:	4350      	muls	r0, r2
10007d36:	4362      	muls	r2, r4
10007d38:	041c      	lsls	r4, r3, #16
10007d3a:	0c1b      	lsrs	r3, r3, #16
10007d3c:	1900      	adds	r0, r0, r4
10007d3e:	bc10      	pop	{r4}
10007d40:	4159      	adcs	r1, r3
10007d42:	0413      	lsls	r3, r2, #16
10007d44:	0c12      	lsrs	r2, r2, #16
10007d46:	18c0      	adds	r0, r0, r3
10007d48:	4151      	adcs	r1, r2
10007d4a:	4461      	add	r1, ip
10007d4c:	4770      	bx	lr
	...

10007d50 <__wrap___aeabi_frsub>:
10007d50:	4048      	eors	r0, r1
10007d52:	4041      	eors	r1, r0
10007d54:	4048      	eors	r0, r1

10007d56 <__wrap___aeabi_fsub>:
10007d56:	4b0e      	ldr	r3, [pc, #56]	@ (10007d90 <__wrap___aeabi_fmul+0x6>)
10007d58:	685b      	ldr	r3, [r3, #4]
10007d5a:	4718      	bx	r3

10007d5c <__wrap___aeabi_fadd>:
10007d5c:	4b0c      	ldr	r3, [pc, #48]	@ (10007d90 <__wrap___aeabi_fmul+0x6>)
10007d5e:	681b      	ldr	r3, [r3, #0]
10007d60:	4718      	bx	r3

10007d62 <__wrap___aeabi_fdiv>:
10007d62:	4a0c      	ldr	r2, [pc, #48]	@ (10007d94 <__wrap___aeabi_fmul+0xa>)
10007d64:	6f93      	ldr	r3, [r2, #120]	@ 0x78
10007d66:	089b      	lsrs	r3, r3, #2
10007d68:	d202      	bcs.n	10007d70 <fdiv_save_state>

10007d6a <fdiv_shim_call>:
10007d6a:	4b09      	ldr	r3, [pc, #36]	@ (10007d90 <__wrap___aeabi_fmul+0x6>)
10007d6c:	68db      	ldr	r3, [r3, #12]
10007d6e:	4718      	bx	r3

10007d70 <fdiv_save_state>:
10007d70:	b5f0      	push	{r4, r5, r6, r7, lr}
10007d72:	6e14      	ldr	r4, [r2, #96]	@ 0x60
10007d74:	6e55      	ldr	r5, [r2, #100]	@ 0x64
10007d76:	6f57      	ldr	r7, [r2, #116]	@ 0x74
10007d78:	6f16      	ldr	r6, [r2, #112]	@ 0x70
10007d7a:	f7ff fff6 	bl	10007d6a <fdiv_shim_call>
10007d7e:	4a05      	ldr	r2, [pc, #20]	@ (10007d94 <__wrap___aeabi_fmul+0xa>)
10007d80:	6614      	str	r4, [r2, #96]	@ 0x60
10007d82:	6655      	str	r5, [r2, #100]	@ 0x64
10007d84:	6757      	str	r7, [r2, #116]	@ 0x74
10007d86:	6716      	str	r6, [r2, #112]	@ 0x70
10007d88:	bdf0      	pop	{r4, r5, r6, r7, pc}

10007d8a <__wrap___aeabi_fmul>:
10007d8a:	4b01      	ldr	r3, [pc, #4]	@ (10007d90 <__wrap___aeabi_fmul+0x6>)
10007d8c:	689b      	ldr	r3, [r3, #8]
10007d8e:	4718      	bx	r3
10007d90:	20001770 	.word	0x20001770
10007d94:	d0000000 	.word	0xd0000000

10007d98 <__wrap___aeabi_cfrcmple>:
10007d98:	b507      	push	{r0, r1, r2, lr}
10007d9a:	4048      	eors	r0, r1
10007d9c:	4041      	eors	r1, r0
10007d9e:	4048      	eors	r0, r1
10007da0:	e001      	b.n	10007da6 <__aeabi_cfcmple_guts>
10007da2:	46c0      	nop			@ (mov r8, r8)

10007da4 <__wrap___aeabi_cfcmpeq>:
10007da4:	b507      	push	{r0, r1, r2, lr}

10007da6 <__aeabi_cfcmple_guts>:
10007da6:	0042      	lsls	r2, r0, #1
10007da8:	0e12      	lsrs	r2, r2, #24
10007daa:	d003      	beq.n	10007db4 <__aeabi_cfcmple_guts+0xe>
10007dac:	2aff      	cmp	r2, #255	@ 0xff
10007dae:	d103      	bne.n	10007db8 <__aeabi_cfcmple_guts+0x12>
10007db0:	0242      	lsls	r2, r0, #9
10007db2:	d818      	bhi.n	10007de6 <__aeabi_cfcmple_guts+0x40>
10007db4:	0dc0      	lsrs	r0, r0, #23
10007db6:	05c0      	lsls	r0, r0, #23
10007db8:	004a      	lsls	r2, r1, #1
10007dba:	0e12      	lsrs	r2, r2, #24
10007dbc:	d003      	beq.n	10007dc6 <__aeabi_cfcmple_guts+0x20>
10007dbe:	2aff      	cmp	r2, #255	@ 0xff
10007dc0:	d103      	bne.n	10007dca <__aeabi_cfcmple_guts+0x24>
10007dc2:	024a      	lsls	r2, r1, #9
10007dc4:	d80f      	bhi.n	10007de6 <__aeabi_cfcmple_guts+0x40>
10007dc6:	0dc9      	lsrs	r1, r1, #23
10007dc8:	05c9      	lsls	r1, r1, #23
10007dca:	2201      	movs	r2, #1
10007dcc:	4041      	eors	r1, r0
10007dce:	d405      	bmi.n	10007ddc <__aeabi_cfcmple_guts+0x36>
10007dd0:	4041      	eors	r1, r0
10007dd2:	d501      	bpl.n	10007dd8 <__aeabi_cfcmple_guts+0x32>
10007dd4:	4281      	cmp	r1, r0
10007dd6:	bd07      	pop	{r0, r1, r2, pc}
10007dd8:	4288      	cmp	r0, r1
10007dda:	bd07      	pop	{r0, r1, r2, pc}
10007ddc:	4301      	orrs	r1, r0
10007dde:	1849      	adds	r1, r1, r1
10007de0:	d001      	beq.n	10007de6 <__aeabi_cfcmple_guts+0x40>
10007de2:	43c0      	mvns	r0, r0
10007de4:	1800      	adds	r0, r0, r0
10007de6:	bd07      	pop	{r0, r1, r2, pc}

10007de8 <__wrap___aeabi_fcmpeq>:
10007de8:	b500      	push	{lr}
10007dea:	f7ff ffdb 	bl	10007da4 <__wrap___aeabi_cfcmpeq>
10007dee:	d001      	beq.n	10007df4 <__wrap___aeabi_fcmpeq+0xc>
10007df0:	2000      	movs	r0, #0
10007df2:	bd00      	pop	{pc}
10007df4:	2001      	movs	r0, #1
10007df6:	bd00      	pop	{pc}

10007df8 <__wrap___aeabi_fcmple>:
10007df8:	b500      	push	{lr}
10007dfa:	f7ff ffd3 	bl	10007da4 <__wrap___aeabi_cfcmpeq>
10007dfe:	d901      	bls.n	10007e04 <__wrap___aeabi_fcmple+0xc>
10007e00:	2000      	movs	r0, #0
10007e02:	bd00      	pop	{pc}
10007e04:	2001      	movs	r0, #1
10007e06:	bd00      	pop	{pc}

10007e08 <__wrap___aeabi_fcmpge>:
10007e08:	b500      	push	{lr}
10007e0a:	f7ff ffc5 	bl	10007d98 <__wrap___aeabi_cfrcmple>
10007e0e:	d901      	bls.n	10007e14 <__wrap___aeabi_fcmpge+0xc>
10007e10:	2000      	movs	r0, #0
10007e12:	bd00      	pop	{pc}
10007e14:	2001      	movs	r0, #1
10007e16:	bd00      	pop	{pc}

10007e18 <__wrap___aeabi_f2d>:
10007e18:	4b03      	ldr	r3, [pc, #12]	@ (10007e28 <__wrap___aeabi_f2d+0x10>)
10007e1a:	6fdb      	ldr	r3, [r3, #124]	@ 0x7c
10007e1c:	46fc      	mov	ip, pc
10007e1e:	4718      	bx	r3
10007e20:	7ebddf7c 	.word	0x7ebddf7c
10007e24:	00001000 	.word	0x00001000
10007e28:	20001770 	.word	0x20001770

10007e2c <__aeabi_float_init>:
10007e2c:	2313      	movs	r3, #19
10007e2e:	b510      	push	{r4, lr}
10007e30:	4812      	ldr	r0, [pc, #72]	@ (10007e7c <__aeabi_float_init+0x50>)
10007e32:	781c      	ldrb	r4, [r3, #0]
10007e34:	f7ff f82c 	bl	10006e90 <rom_data_lookup>
10007e38:	0001      	movs	r1, r0
10007e3a:	2c01      	cmp	r4, #1
10007e3c:	d00a      	beq.n	10007e54 <__aeabi_float_init+0x28>
10007e3e:	dd03      	ble.n	10007e48 <__aeabi_float_init+0x1c>
10007e40:	2280      	movs	r2, #128	@ 0x80
10007e42:	480f      	ldr	r0, [pc, #60]	@ (10007e80 <__aeabi_float_init+0x54>)
10007e44:	f000 f860 	bl	10007f08 <__wrap___aeabi_memcpy>
10007e48:	480e      	ldr	r0, [pc, #56]	@ (10007e84 <__aeabi_float_init+0x58>)
10007e4a:	f7ff f819 	bl	10006e80 <rom_func_lookup>
10007e4e:	4b0e      	ldr	r3, [pc, #56]	@ (10007e88 <__aeabi_float_init+0x5c>)
10007e50:	6018      	str	r0, [r3, #0]
10007e52:	bd10      	pop	{r4, pc}
10007e54:	4c0a      	ldr	r4, [pc, #40]	@ (10007e80 <__aeabi_float_init+0x54>)
10007e56:	2254      	movs	r2, #84	@ 0x54
10007e58:	0020      	movs	r0, r4
10007e5a:	f000 f855 	bl	10007f08 <__wrap___aeabi_memcpy>
10007e5e:	4b0b      	ldr	r3, [pc, #44]	@ (10007e8c <__aeabi_float_init+0x60>)
10007e60:	6563      	str	r3, [r4, #84]	@ 0x54
10007e62:	65a3      	str	r3, [r4, #88]	@ 0x58
10007e64:	65e3      	str	r3, [r4, #92]	@ 0x5c
10007e66:	6623      	str	r3, [r4, #96]	@ 0x60
10007e68:	6663      	str	r3, [r4, #100]	@ 0x64
10007e6a:	66a3      	str	r3, [r4, #104]	@ 0x68
10007e6c:	66e3      	str	r3, [r4, #108]	@ 0x6c
10007e6e:	6723      	str	r3, [r4, #112]	@ 0x70
10007e70:	6763      	str	r3, [r4, #116]	@ 0x74
10007e72:	67a3      	str	r3, [r4, #120]	@ 0x78
10007e74:	67e3      	str	r3, [r4, #124]	@ 0x7c
10007e76:	6223      	str	r3, [r4, #32]
10007e78:	61e3      	str	r3, [r4, #28]
10007e7a:	e7e5      	b.n	10007e48 <__aeabi_float_init+0x1c>
10007e7c:	00004653 	.word	0x00004653
10007e80:	20001770 	.word	0x20001770
10007e84:	0000334c 	.word	0x0000334c
10007e88:	2003f39c 	.word	0x2003f39c
10007e8c:	10007e91 	.word	0x10007e91

10007e90 <float_table_shim_on_use_helper>:
10007e90:	b507      	push	{r0, r1, r2, lr}
10007e92:	4660      	mov	r0, ip
10007e94:	8801      	ldrh	r1, [r0, #0]
10007e96:	0a0a      	lsrs	r2, r1, #8
10007e98:	3002      	adds	r0, #2
10007e9a:	2adf      	cmp	r2, #223	@ 0xdf
10007e9c:	d1fa      	bne.n	10007e94 <float_table_shim_on_use_helper+0x4>
10007e9e:	b2c9      	uxtb	r1, r1
10007ea0:	0882      	lsrs	r2, r0, #2
10007ea2:	d304      	bcc.n	10007eae <float_table_shim_on_use_helper+0x1e>
10007ea4:	8802      	ldrh	r2, [r0, #0]
10007ea6:	8840      	ldrh	r0, [r0, #2]
10007ea8:	0400      	lsls	r0, r0, #16
10007eaa:	4310      	orrs	r0, r2
10007eac:	e000      	b.n	10007eb0 <float_table_shim_on_use_helper+0x20>
10007eae:	6800      	ldr	r0, [r0, #0]
10007eb0:	4a01      	ldr	r2, [pc, #4]	@ (10007eb8 <float_table_shim_on_use_helper+0x28>)
10007eb2:	5050      	str	r0, [r2, r1]
10007eb4:	9003      	str	r0, [sp, #12]
10007eb6:	bd07      	pop	{r0, r1, r2, pc}
10007eb8:	20001770 	.word	0x20001770

10007ebc <float2double_shim>:
10007ebc:	0fc3      	lsrs	r3, r0, #31
10007ebe:	07db      	lsls	r3, r3, #31
10007ec0:	0041      	lsls	r1, r0, #1
10007ec2:	0e0a      	lsrs	r2, r1, #24
10007ec4:	d007      	beq.n	10007ed6 <float2double_shim+0x1a>
10007ec6:	2aff      	cmp	r2, #255	@ 0xff
10007ec8:	d008      	beq.n	10007edc <float2double_shim+0x20>
10007eca:	0909      	lsrs	r1, r1, #4
10007ecc:	4a05      	ldr	r2, [pc, #20]	@ (10007ee4 <float2double_shim+0x28>)
10007ece:	1889      	adds	r1, r1, r2
10007ed0:	4319      	orrs	r1, r3
10007ed2:	0740      	lsls	r0, r0, #29
10007ed4:	4770      	bx	lr
10007ed6:	0019      	movs	r1, r3
10007ed8:	2000      	movs	r0, #0
10007eda:	4770      	bx	lr
10007edc:	4902      	ldr	r1, [pc, #8]	@ (10007ee8 <float2double_shim+0x2c>)
10007ede:	18c9      	adds	r1, r1, r3
10007ee0:	e7fa      	b.n	10007ed8 <float2double_shim+0x1c>
10007ee2:	0000      	.short	0x0000
10007ee4:	38000000 	.word	0x38000000
10007ee8:	7ff00000 	.word	0x7ff00000

10007eec <__aeabi_mem_init>:
10007eec:	4801      	ldr	r0, [pc, #4]	@ (10007ef4 <__aeabi_mem_init+0x8>)
10007eee:	2104      	movs	r1, #4
10007ef0:	4b01      	ldr	r3, [pc, #4]	@ (10007ef8 <__aeabi_mem_init+0xc>)
10007ef2:	4718      	bx	r3
10007ef4:	20001080 	.word	0x20001080
10007ef8:	10006ea1 	.word	0x10006ea1

10007efc <__wrap_memset>:
10007efc:	4b01      	ldr	r3, [pc, #4]	@ (10007f04 <__wrap_memset+0x8>)
10007efe:	681b      	ldr	r3, [r3, #0]
10007f00:	4718      	bx	r3
10007f02:	0000      	.short	0x0000
10007f04:	20001080 	.word	0x20001080

10007f08 <__wrap___aeabi_memcpy>:
10007f08:	4b01      	ldr	r3, [pc, #4]	@ (10007f10 <__wrap___aeabi_memcpy+0x8>)
10007f0a:	685b      	ldr	r3, [r3, #4]
10007f0c:	4718      	bx	r3
10007f0e:	0000      	.short	0x0000
10007f10:	20001080 	.word	0x20001080

10007f14 <stdio_out_chars_crlf>:
10007f14:	b5f0      	push	{r4, r5, r6, r7, lr}
10007f16:	46c6      	mov	lr, r8
10007f18:	b500      	push	{lr}
10007f1a:	7d43      	ldrb	r3, [r0, #21]
10007f1c:	0007      	movs	r7, r0
10007f1e:	000d      	movs	r5, r1
10007f20:	0016      	movs	r6, r2
10007f22:	2b00      	cmp	r3, #0
10007f24:	d038      	beq.n	10007f98 <stdio_out_chars_crlf+0x84>
10007f26:	2a00      	cmp	r2, #0
10007f28:	dd2e      	ble.n	10007f88 <stdio_out_chars_crlf+0x74>
10007f2a:	2100      	movs	r1, #0
10007f2c:	1e6a      	subs	r2, r5, #1
10007f2e:	4690      	mov	r8, r2
10007f30:	5c6a      	ldrb	r2, [r5, r1]
10007f32:	7d03      	ldrb	r3, [r0, #20]
10007f34:	1c4c      	adds	r4, r1, #1
10007f36:	2000      	movs	r0, #0
10007f38:	2a0a      	cmp	r2, #10
10007f3a:	d00c      	beq.n	10007f56 <stdio_out_chars_crlf+0x42>
10007f3c:	42a6      	cmp	r6, r4
10007f3e:	d016      	beq.n	10007f6e <stdio_out_chars_crlf+0x5a>
10007f40:	4643      	mov	r3, r8
10007f42:	5d1b      	ldrb	r3, [r3, r4]
10007f44:	0021      	movs	r1, r4
10007f46:	3b0d      	subs	r3, #13
10007f48:	425a      	negs	r2, r3
10007f4a:	4153      	adcs	r3, r2
10007f4c:	5c6a      	ldrb	r2, [r5, r1]
10007f4e:	b2db      	uxtb	r3, r3
10007f50:	1c4c      	adds	r4, r1, #1
10007f52:	2a0a      	cmp	r2, #10
10007f54:	d1f2      	bne.n	10007f3c <stdio_out_chars_crlf+0x28>
10007f56:	2b00      	cmp	r3, #0
10007f58:	d1f0      	bne.n	10007f3c <stdio_out_chars_crlf+0x28>
10007f5a:	4281      	cmp	r1, r0
10007f5c:	dc17      	bgt.n	10007f8e <stdio_out_chars_crlf+0x7a>
10007f5e:	2102      	movs	r1, #2
10007f60:	4810      	ldr	r0, [pc, #64]	@ (10007fa4 <stdio_out_chars_crlf+0x90>)
10007f62:	683b      	ldr	r3, [r7, #0]
10007f64:	4798      	blx	r3
10007f66:	42a6      	cmp	r6, r4
10007f68:	d007      	beq.n	10007f7a <stdio_out_chars_crlf+0x66>
10007f6a:	0020      	movs	r0, r4
10007f6c:	e7e8      	b.n	10007f40 <stdio_out_chars_crlf+0x2c>
10007f6e:	4286      	cmp	r6, r0
10007f70:	dd03      	ble.n	10007f7a <stdio_out_chars_crlf+0x66>
10007f72:	1a31      	subs	r1, r6, r0
10007f74:	683b      	ldr	r3, [r7, #0]
10007f76:	1828      	adds	r0, r5, r0
10007f78:	4798      	blx	r3
10007f7a:	19ad      	adds	r5, r5, r6
10007f7c:	3d01      	subs	r5, #1
10007f7e:	782b      	ldrb	r3, [r5, #0]
10007f80:	3b0d      	subs	r3, #13
10007f82:	425a      	negs	r2, r3
10007f84:	4153      	adcs	r3, r2
10007f86:	753b      	strb	r3, [r7, #20]
10007f88:	bc80      	pop	{r7}
10007f8a:	46b8      	mov	r8, r7
10007f8c:	bdf0      	pop	{r4, r5, r6, r7, pc}
10007f8e:	1a09      	subs	r1, r1, r0
10007f90:	683b      	ldr	r3, [r7, #0]
10007f92:	1828      	adds	r0, r5, r0
10007f94:	4798      	blx	r3
10007f96:	e7e2      	b.n	10007f5e <stdio_out_chars_crlf+0x4a>
10007f98:	6803      	ldr	r3, [r0, #0]
10007f9a:	0011      	movs	r1, r2
10007f9c:	0028      	movs	r0, r5
10007f9e:	4798      	blx	r3
10007fa0:	e7f2      	b.n	10007f88 <stdio_out_chars_crlf+0x74>
10007fa2:	46c0      	nop			@ (mov r8, r8)
10007fa4:	1000b654 	.word	0x1000b654

10007fa8 <stdio_buffered_printer>:
10007fa8:	b5f0      	push	{r4, r5, r6, r7, lr}
10007faa:	46c6      	mov	lr, r8
10007fac:	680b      	ldr	r3, [r1, #0]
10007fae:	0006      	movs	r6, r0
10007fb0:	000c      	movs	r4, r1
10007fb2:	b500      	push	{lr}
10007fb4:	2b80      	cmp	r3, #128	@ 0x80
10007fb6:	d006      	beq.n	10007fc6 <stdio_buffered_printer+0x1e>
10007fb8:	1c5a      	adds	r2, r3, #1
10007fba:	6022      	str	r2, [r4, #0]
10007fbc:	18e4      	adds	r4, r4, r3
10007fbe:	7126      	strb	r6, [r4, #4]
10007fc0:	bc80      	pop	{r7}
10007fc2:	46b8      	mov	r8, r7
10007fc4:	bdf0      	pop	{r4, r5, r6, r7, pc}
10007fc6:	4b0f      	ldr	r3, [pc, #60]	@ (10008004 <stdio_buffered_printer+0x5c>)
10007fc8:	681d      	ldr	r5, [r3, #0]
10007fca:	2d00      	cmp	r5, #0
10007fcc:	d016      	beq.n	10007ffc <stdio_buffered_printer+0x54>
10007fce:	1d0b      	adds	r3, r1, #4
10007fd0:	4698      	mov	r8, r3
10007fd2:	4f0d      	ldr	r7, [pc, #52]	@ (10008008 <stdio_buffered_printer+0x60>)
10007fd4:	e002      	b.n	10007fdc <stdio_buffered_printer+0x34>
10007fd6:	692d      	ldr	r5, [r5, #16]
10007fd8:	2d00      	cmp	r5, #0
10007fda:	d00f      	beq.n	10007ffc <stdio_buffered_printer+0x54>
10007fdc:	682b      	ldr	r3, [r5, #0]
10007fde:	2b00      	cmp	r3, #0
10007fe0:	d0f9      	beq.n	10007fd6 <stdio_buffered_printer+0x2e>
10007fe2:	683b      	ldr	r3, [r7, #0]
10007fe4:	2b00      	cmp	r3, #0
10007fe6:	d001      	beq.n	10007fec <stdio_buffered_printer+0x44>
10007fe8:	42ab      	cmp	r3, r5
10007fea:	d1f4      	bne.n	10007fd6 <stdio_buffered_printer+0x2e>
10007fec:	0028      	movs	r0, r5
10007fee:	4641      	mov	r1, r8
10007ff0:	6822      	ldr	r2, [r4, #0]
10007ff2:	f7ff ff8f 	bl	10007f14 <stdio_out_chars_crlf>
10007ff6:	692d      	ldr	r5, [r5, #16]
10007ff8:	2d00      	cmp	r5, #0
10007ffa:	d1ef      	bne.n	10007fdc <stdio_buffered_printer+0x34>
10007ffc:	2201      	movs	r2, #1
10007ffe:	2300      	movs	r3, #0
10008000:	e7db      	b.n	10007fba <stdio_buffered_printer+0x12>
10008002:	46c0      	nop			@ (mov r8, r8)
10008004:	20001e64 	.word	0x20001e64
10008008:	20001e6c 	.word	0x20001e6c

1000800c <__wrap_putchar>:
1000800c:	b5f0      	push	{r4, r5, r6, r7, lr}
1000800e:	46ce      	mov	lr, r9
10008010:	4647      	mov	r7, r8
10008012:	b580      	push	{r7, lr}
10008014:	b083      	sub	sp, #12
10008016:	466b      	mov	r3, sp
10008018:	0006      	movs	r6, r0
1000801a:	1ddd      	adds	r5, r3, #7
1000801c:	7028      	strb	r0, [r5, #0]
1000801e:	f7fc fcff 	bl	10004a20 <time_us_64>
10008022:	2300      	movs	r3, #0
10008024:	4a1a      	ldr	r2, [pc, #104]	@ (10008090 <__wrap_putchar+0x84>)
10008026:	1812      	adds	r2, r2, r0
10008028:	414b      	adcs	r3, r1
1000802a:	2180      	movs	r1, #128	@ 0x80
1000802c:	0609      	lsls	r1, r1, #24
1000802e:	428b      	cmp	r3, r1
10008030:	d302      	bcc.n	10008038 <__wrap_putchar+0x2c>
10008032:	2201      	movs	r2, #1
10008034:	4b17      	ldr	r3, [pc, #92]	@ (10008094 <__wrap_putchar+0x88>)
10008036:	4252      	negs	r2, r2
10008038:	4917      	ldr	r1, [pc, #92]	@ (10008098 <__wrap_putchar+0x8c>)
1000803a:	0008      	movs	r0, r1
1000803c:	4688      	mov	r8, r1
1000803e:	f002 ff3b 	bl	1000aeb8 <__mutex_try_enter_block_until_veneer>
10008042:	4b16      	ldr	r3, [pc, #88]	@ (1000809c <__wrap_putchar+0x90>)
10008044:	4681      	mov	r9, r0
10008046:	681c      	ldr	r4, [r3, #0]
10008048:	2c00      	cmp	r4, #0
1000804a:	d014      	beq.n	10008076 <__wrap_putchar+0x6a>
1000804c:	4f14      	ldr	r7, [pc, #80]	@ (100080a0 <__wrap_putchar+0x94>)
1000804e:	e002      	b.n	10008056 <__wrap_putchar+0x4a>
10008050:	6924      	ldr	r4, [r4, #16]
10008052:	2c00      	cmp	r4, #0
10008054:	d00f      	beq.n	10008076 <__wrap_putchar+0x6a>
10008056:	6823      	ldr	r3, [r4, #0]
10008058:	2b00      	cmp	r3, #0
1000805a:	d0f9      	beq.n	10008050 <__wrap_putchar+0x44>
1000805c:	683b      	ldr	r3, [r7, #0]
1000805e:	2b00      	cmp	r3, #0
10008060:	d001      	beq.n	10008066 <__wrap_putchar+0x5a>
10008062:	42a3      	cmp	r3, r4
10008064:	d1f4      	bne.n	10008050 <__wrap_putchar+0x44>
10008066:	0020      	movs	r0, r4
10008068:	2201      	movs	r2, #1
1000806a:	0029      	movs	r1, r5
1000806c:	f7ff ff52 	bl	10007f14 <stdio_out_chars_crlf>
10008070:	6924      	ldr	r4, [r4, #16]
10008072:	2c00      	cmp	r4, #0
10008074:	d1ef      	bne.n	10008056 <__wrap_putchar+0x4a>
10008076:	464b      	mov	r3, r9
10008078:	2b00      	cmp	r3, #0
1000807a:	d105      	bne.n	10008088 <__wrap_putchar+0x7c>
1000807c:	0030      	movs	r0, r6
1000807e:	b003      	add	sp, #12
10008080:	bcc0      	pop	{r6, r7}
10008082:	46b9      	mov	r9, r7
10008084:	46b0      	mov	r8, r6
10008086:	bdf0      	pop	{r4, r5, r6, r7, pc}
10008088:	4640      	mov	r0, r8
1000808a:	f002 febd 	bl	1000ae08 <__mutex_exit_veneer>
1000808e:	e7f5      	b.n	1000807c <__wrap_putchar+0x70>
10008090:	000f4240 	.word	0x000f4240
10008094:	7fffffff 	.word	0x7fffffff
10008098:	20001504 	.word	0x20001504
1000809c:	20001e64 	.word	0x20001e64
100080a0:	20001e6c 	.word	0x20001e6c

100080a4 <__wrap_puts>:
100080a4:	b5f0      	push	{r4, r5, r6, r7, lr}
100080a6:	46de      	mov	lr, fp
100080a8:	4657      	mov	r7, sl
100080aa:	464e      	mov	r6, r9
100080ac:	4645      	mov	r5, r8
100080ae:	b5e0      	push	{r5, r6, r7, lr}
100080b0:	b085      	sub	sp, #20
100080b2:	0007      	movs	r7, r0
100080b4:	f002 fdc8 	bl	1000ac48 <strlen>
100080b8:	0006      	movs	r6, r0
100080ba:	f7fc fcb1 	bl	10004a20 <time_us_64>
100080be:	2300      	movs	r3, #0
100080c0:	4a2b      	ldr	r2, [pc, #172]	@ (10008170 <__wrap_puts+0xcc>)
100080c2:	1812      	adds	r2, r2, r0
100080c4:	414b      	adcs	r3, r1
100080c6:	2180      	movs	r1, #128	@ 0x80
100080c8:	0609      	lsls	r1, r1, #24
100080ca:	428b      	cmp	r3, r1
100080cc:	d302      	bcc.n	100080d4 <__wrap_puts+0x30>
100080ce:	2201      	movs	r2, #1
100080d0:	4b28      	ldr	r3, [pc, #160]	@ (10008174 <__wrap_puts+0xd0>)
100080d2:	4252      	negs	r2, r2
100080d4:	4928      	ldr	r1, [pc, #160]	@ (10008178 <__wrap_puts+0xd4>)
100080d6:	0008      	movs	r0, r1
100080d8:	468b      	mov	fp, r1
100080da:	f002 feed 	bl	1000aeb8 <__mutex_try_enter_block_until_veneer>
100080de:	4b27      	ldr	r3, [pc, #156]	@ (1000817c <__wrap_puts+0xd8>)
100080e0:	9001      	str	r0, [sp, #4]
100080e2:	681c      	ldr	r4, [r3, #0]
100080e4:	469a      	mov	sl, r3
100080e6:	2c00      	cmp	r4, #0
100080e8:	d03b      	beq.n	10008162 <__wrap_puts+0xbe>
100080ea:	4b25      	ldr	r3, [pc, #148]	@ (10008180 <__wrap_puts+0xdc>)
100080ec:	4698      	mov	r8, r3
100080ee:	ab02      	add	r3, sp, #8
100080f0:	1ddd      	adds	r5, r3, #7
100080f2:	230a      	movs	r3, #10
100080f4:	4699      	mov	r9, r3
100080f6:	e002      	b.n	100080fe <__wrap_puts+0x5a>
100080f8:	6924      	ldr	r4, [r4, #16]
100080fa:	2c00      	cmp	r4, #0
100080fc:	d017      	beq.n	1000812e <__wrap_puts+0x8a>
100080fe:	6823      	ldr	r3, [r4, #0]
10008100:	2b00      	cmp	r3, #0
10008102:	d0f9      	beq.n	100080f8 <__wrap_puts+0x54>
10008104:	4643      	mov	r3, r8
10008106:	681b      	ldr	r3, [r3, #0]
10008108:	2b00      	cmp	r3, #0
1000810a:	d001      	beq.n	10008110 <__wrap_puts+0x6c>
1000810c:	42a3      	cmp	r3, r4
1000810e:	d1f3      	bne.n	100080f8 <__wrap_puts+0x54>
10008110:	0020      	movs	r0, r4
10008112:	0032      	movs	r2, r6
10008114:	0039      	movs	r1, r7
10008116:	f7ff fefd 	bl	10007f14 <stdio_out_chars_crlf>
1000811a:	464b      	mov	r3, r9
1000811c:	0020      	movs	r0, r4
1000811e:	2201      	movs	r2, #1
10008120:	0029      	movs	r1, r5
10008122:	702b      	strb	r3, [r5, #0]
10008124:	f7ff fef6 	bl	10007f14 <stdio_out_chars_crlf>
10008128:	6924      	ldr	r4, [r4, #16]
1000812a:	2c00      	cmp	r4, #0
1000812c:	d1e7      	bne.n	100080fe <__wrap_puts+0x5a>
1000812e:	9b01      	ldr	r3, [sp, #4]
10008130:	2b00      	cmp	r3, #0
10008132:	d118      	bne.n	10008166 <__wrap_puts+0xc2>
10008134:	4653      	mov	r3, sl
10008136:	681c      	ldr	r4, [r3, #0]
10008138:	2c00      	cmp	r4, #0
1000813a:	d006      	beq.n	1000814a <__wrap_puts+0xa6>
1000813c:	6863      	ldr	r3, [r4, #4]
1000813e:	2b00      	cmp	r3, #0
10008140:	d00b      	beq.n	1000815a <__wrap_puts+0xb6>
10008142:	4798      	blx	r3
10008144:	6924      	ldr	r4, [r4, #16]
10008146:	2c00      	cmp	r4, #0
10008148:	d1f8      	bne.n	1000813c <__wrap_puts+0x98>
1000814a:	0030      	movs	r0, r6
1000814c:	b005      	add	sp, #20
1000814e:	bcf0      	pop	{r4, r5, r6, r7}
10008150:	46bb      	mov	fp, r7
10008152:	46b2      	mov	sl, r6
10008154:	46a9      	mov	r9, r5
10008156:	46a0      	mov	r8, r4
10008158:	bdf0      	pop	{r4, r5, r6, r7, pc}
1000815a:	6924      	ldr	r4, [r4, #16]
1000815c:	2c00      	cmp	r4, #0
1000815e:	d1ed      	bne.n	1000813c <__wrap_puts+0x98>
10008160:	e7f3      	b.n	1000814a <__wrap_puts+0xa6>
10008162:	2800      	cmp	r0, #0
10008164:	d0f1      	beq.n	1000814a <__wrap_puts+0xa6>
10008166:	4658      	mov	r0, fp
10008168:	f002 fe4e 	bl	1000ae08 <__mutex_exit_veneer>
1000816c:	e7e2      	b.n	10008134 <__wrap_puts+0x90>
1000816e:	46c0      	nop			@ (mov r8, r8)
10008170:	000f4240 	.word	0x000f4240
10008174:	7fffffff 	.word	0x7fffffff
10008178:	20001504 	.word	0x20001504
1000817c:	20001e64 	.word	0x20001e64
10008180:	20001e6c 	.word	0x20001e6c

10008184 <stdio_set_driver_enabled>:
10008184:	4a0a      	ldr	r2, [pc, #40]	@ (100081b0 <stdio_set_driver_enabled+0x2c>)
10008186:	6813      	ldr	r3, [r2, #0]
10008188:	2b00      	cmp	r3, #0
1000818a:	d105      	bne.n	10008198 <stdio_set_driver_enabled+0x14>
1000818c:	e00c      	b.n	100081a8 <stdio_set_driver_enabled+0x24>
1000818e:	001a      	movs	r2, r3
10008190:	691b      	ldr	r3, [r3, #16]
10008192:	3210      	adds	r2, #16
10008194:	2b00      	cmp	r3, #0
10008196:	d007      	beq.n	100081a8 <stdio_set_driver_enabled+0x24>
10008198:	4298      	cmp	r0, r3
1000819a:	d1f8      	bne.n	1000818e <stdio_set_driver_enabled+0xa>
1000819c:	2900      	cmp	r1, #0
1000819e:	d102      	bne.n	100081a6 <stdio_set_driver_enabled+0x22>
100081a0:	6903      	ldr	r3, [r0, #16]
100081a2:	6013      	str	r3, [r2, #0]
100081a4:	6101      	str	r1, [r0, #16]
100081a6:	4770      	bx	lr
100081a8:	2900      	cmp	r1, #0
100081aa:	d0fc      	beq.n	100081a6 <stdio_set_driver_enabled+0x22>
100081ac:	6010      	str	r0, [r2, #0]
100081ae:	e7fa      	b.n	100081a6 <stdio_set_driver_enabled+0x22>
100081b0:	20001e64 	.word	0x20001e64

100081b4 <__wrap_vprintf>:
100081b4:	b5f0      	push	{r4, r5, r6, r7, lr}
100081b6:	46ce      	mov	lr, r9
100081b8:	4647      	mov	r7, r8
100081ba:	b580      	push	{r7, lr}
100081bc:	b0a3      	sub	sp, #140	@ 0x8c
100081be:	0004      	movs	r4, r0
100081c0:	000d      	movs	r5, r1
100081c2:	f7fc fc2d 	bl	10004a20 <time_us_64>
100081c6:	2300      	movs	r3, #0
100081c8:	4a29      	ldr	r2, [pc, #164]	@ (10008270 <__wrap_vprintf+0xbc>)
100081ca:	1812      	adds	r2, r2, r0
100081cc:	414b      	adcs	r3, r1
100081ce:	2180      	movs	r1, #128	@ 0x80
100081d0:	0609      	lsls	r1, r1, #24
100081d2:	428b      	cmp	r3, r1
100081d4:	d302      	bcc.n	100081dc <__wrap_vprintf+0x28>
100081d6:	2201      	movs	r2, #1
100081d8:	4b26      	ldr	r3, [pc, #152]	@ (10008274 <__wrap_vprintf+0xc0>)
100081da:	4252      	negs	r2, r2
100081dc:	4f26      	ldr	r7, [pc, #152]	@ (10008278 <__wrap_vprintf+0xc4>)
100081de:	0038      	movs	r0, r7
100081e0:	f002 fe6a 	bl	1000aeb8 <__mutex_try_enter_block_until_veneer>
100081e4:	2300      	movs	r3, #0
100081e6:	0006      	movs	r6, r0
100081e8:	9301      	str	r3, [sp, #4]
100081ea:	0022      	movs	r2, r4
100081ec:	002b      	movs	r3, r5
100081ee:	4823      	ldr	r0, [pc, #140]	@ (1000827c <__wrap_vprintf+0xc8>)
100081f0:	a901      	add	r1, sp, #4
100081f2:	f7fe fe0f 	bl	10006e14 <vfctprintf>
100081f6:	9b01      	ldr	r3, [sp, #4]
100081f8:	4680      	mov	r8, r0
100081fa:	2b00      	cmp	r3, #0
100081fc:	d114      	bne.n	10008228 <__wrap_vprintf+0x74>
100081fe:	4b20      	ldr	r3, [pc, #128]	@ (10008280 <__wrap_vprintf+0xcc>)
10008200:	681c      	ldr	r4, [r3, #0]
10008202:	2c00      	cmp	r4, #0
10008204:	d006      	beq.n	10008214 <__wrap_vprintf+0x60>
10008206:	6863      	ldr	r3, [r4, #4]
10008208:	2b00      	cmp	r3, #0
1000820a:	d00b      	beq.n	10008224 <__wrap_vprintf+0x70>
1000820c:	4798      	blx	r3
1000820e:	6924      	ldr	r4, [r4, #16]
10008210:	2c00      	cmp	r4, #0
10008212:	d1f8      	bne.n	10008206 <__wrap_vprintf+0x52>
10008214:	2e00      	cmp	r6, #0
10008216:	d125      	bne.n	10008264 <__wrap_vprintf+0xb0>
10008218:	4640      	mov	r0, r8
1000821a:	b023      	add	sp, #140	@ 0x8c
1000821c:	bcc0      	pop	{r6, r7}
1000821e:	46b9      	mov	r9, r7
10008220:	46b0      	mov	r8, r6
10008222:	bdf0      	pop	{r4, r5, r6, r7, pc}
10008224:	6924      	ldr	r4, [r4, #16]
10008226:	e7ec      	b.n	10008202 <__wrap_vprintf+0x4e>
10008228:	4b15      	ldr	r3, [pc, #84]	@ (10008280 <__wrap_vprintf+0xcc>)
1000822a:	681d      	ldr	r5, [r3, #0]
1000822c:	4699      	mov	r9, r3
1000822e:	2d00      	cmp	r5, #0
10008230:	d01c      	beq.n	1000826c <__wrap_vprintf+0xb8>
10008232:	4c14      	ldr	r4, [pc, #80]	@ (10008284 <__wrap_vprintf+0xd0>)
10008234:	e002      	b.n	1000823c <__wrap_vprintf+0x88>
10008236:	692d      	ldr	r5, [r5, #16]
10008238:	2d00      	cmp	r5, #0
1000823a:	d00f      	beq.n	1000825c <__wrap_vprintf+0xa8>
1000823c:	682b      	ldr	r3, [r5, #0]
1000823e:	2b00      	cmp	r3, #0
10008240:	d0f9      	beq.n	10008236 <__wrap_vprintf+0x82>
10008242:	6823      	ldr	r3, [r4, #0]
10008244:	2b00      	cmp	r3, #0
10008246:	d001      	beq.n	1000824c <__wrap_vprintf+0x98>
10008248:	42ab      	cmp	r3, r5
1000824a:	d1f4      	bne.n	10008236 <__wrap_vprintf+0x82>
1000824c:	0028      	movs	r0, r5
1000824e:	9a01      	ldr	r2, [sp, #4]
10008250:	a902      	add	r1, sp, #8
10008252:	f7ff fe5f 	bl	10007f14 <stdio_out_chars_crlf>
10008256:	692d      	ldr	r5, [r5, #16]
10008258:	2d00      	cmp	r5, #0
1000825a:	d1ef      	bne.n	1000823c <__wrap_vprintf+0x88>
1000825c:	464b      	mov	r3, r9
1000825e:	9501      	str	r5, [sp, #4]
10008260:	681c      	ldr	r4, [r3, #0]
10008262:	e7ce      	b.n	10008202 <__wrap_vprintf+0x4e>
10008264:	0038      	movs	r0, r7
10008266:	f002 fdcf 	bl	1000ae08 <__mutex_exit_veneer>
1000826a:	e7d5      	b.n	10008218 <__wrap_vprintf+0x64>
1000826c:	9501      	str	r5, [sp, #4]
1000826e:	e7d1      	b.n	10008214 <__wrap_vprintf+0x60>
10008270:	000f4240 	.word	0x000f4240
10008274:	7fffffff 	.word	0x7fffffff
10008278:	20001504 	.word	0x20001504
1000827c:	10007fa9 	.word	0x10007fa9
10008280:	20001e64 	.word	0x20001e64
10008284:	20001e6c 	.word	0x20001e6c

10008288 <__wrap_printf>:
10008288:	b40f      	push	{r0, r1, r2, r3}
1000828a:	b500      	push	{lr}
1000828c:	b083      	sub	sp, #12
1000828e:	a904      	add	r1, sp, #16
10008290:	c901      	ldmia	r1!, {r0}
10008292:	9101      	str	r1, [sp, #4]
10008294:	f7ff ff8e 	bl	100081b4 <__wrap_vprintf>
10008298:	b003      	add	sp, #12
1000829a:	bc08      	pop	{r3}
1000829c:	b004      	add	sp, #16
1000829e:	4718      	bx	r3

100082a0 <stdio_init_all>:
100082a0:	b510      	push	{r4, lr}
100082a2:	f000 fa17 	bl	100086d4 <stdio_usb_init>
100082a6:	bd10      	pop	{r4, pc}

100082a8 <__wrap_getchar>:
100082a8:	b5f0      	push	{r4, r5, r6, r7, lr}
100082aa:	46c6      	mov	lr, r8
100082ac:	4b19      	ldr	r3, [pc, #100]	@ (10008314 <__wrap_getchar+0x6c>)
100082ae:	b500      	push	{lr}
100082b0:	681a      	ldr	r2, [r3, #0]
100082b2:	685f      	ldr	r7, [r3, #4]
100082b4:	4690      	mov	r8, r2
100082b6:	4e18      	ldr	r6, [pc, #96]	@ (10008318 <__wrap_getchar+0x70>)
100082b8:	4d18      	ldr	r5, [pc, #96]	@ (1000831c <__wrap_getchar+0x74>)
100082ba:	b082      	sub	sp, #8
100082bc:	6834      	ldr	r4, [r6, #0]
100082be:	2c00      	cmp	r4, #0
100082c0:	d103      	bne.n	100082ca <__wrap_getchar+0x22>
100082c2:	e015      	b.n	100082f0 <__wrap_getchar+0x48>
100082c4:	6924      	ldr	r4, [r4, #16]
100082c6:	2c00      	cmp	r4, #0
100082c8:	d012      	beq.n	100082f0 <__wrap_getchar+0x48>
100082ca:	682b      	ldr	r3, [r5, #0]
100082cc:	2b00      	cmp	r3, #0
100082ce:	d001      	beq.n	100082d4 <__wrap_getchar+0x2c>
100082d0:	42a3      	cmp	r3, r4
100082d2:	d1f7      	bne.n	100082c4 <__wrap_getchar+0x1c>
100082d4:	68a3      	ldr	r3, [r4, #8]
100082d6:	2b00      	cmp	r3, #0
100082d8:	d0f4      	beq.n	100082c4 <__wrap_getchar+0x1c>
100082da:	2101      	movs	r1, #1
100082dc:	a801      	add	r0, sp, #4
100082de:	4798      	blx	r3
100082e0:	2800      	cmp	r0, #0
100082e2:	ddef      	ble.n	100082c4 <__wrap_getchar+0x1c>
100082e4:	466b      	mov	r3, sp
100082e6:	7918      	ldrb	r0, [r3, #4]
100082e8:	b002      	add	sp, #8
100082ea:	bc80      	pop	{r7}
100082ec:	46b8      	mov	r8, r7
100082ee:	bdf0      	pop	{r4, r5, r6, r7, pc}
100082f0:	4b0b      	ldr	r3, [pc, #44]	@ (10008320 <__wrap_getchar+0x78>)
100082f2:	6a5a      	ldr	r2, [r3, #36]	@ 0x24
100082f4:	4297      	cmp	r7, r2
100082f6:	d807      	bhi.n	10008308 <__wrap_getchar+0x60>
100082f8:	6a9b      	ldr	r3, [r3, #40]	@ 0x28
100082fa:	4543      	cmp	r3, r8
100082fc:	d302      	bcc.n	10008304 <__wrap_getchar+0x5c>
100082fe:	2001      	movs	r0, #1
10008300:	4240      	negs	r0, r0
10008302:	e7f1      	b.n	100082e8 <__wrap_getchar+0x40>
10008304:	4297      	cmp	r7, r2
10008306:	d1fa      	bne.n	100082fe <__wrap_getchar+0x56>
10008308:	2001      	movs	r0, #1
1000830a:	2100      	movs	r1, #0
1000830c:	f7fc fb92 	bl	10004a34 <busy_wait_us>
10008310:	e7d4      	b.n	100082bc <__wrap_getchar+0x14>
10008312:	46c0      	nop			@ (mov r8, r8)
10008314:	1000b3a0 	.word	0x1000b3a0
10008318:	20001e64 	.word	0x20001e64
1000831c:	20001e6c 	.word	0x20001e6c
10008320:	40054000 	.word	0x40054000

10008324 <resetd_init>:
10008324:	4770      	bx	lr
10008326:	46c0      	nop			@ (mov r8, r8)

10008328 <resetd_reset>:
10008328:	2200      	movs	r2, #0
1000832a:	4b01      	ldr	r3, [pc, #4]	@ (10008330 <resetd_reset+0x8>)
1000832c:	701a      	strb	r2, [r3, #0]
1000832e:	4770      	bx	lr
10008330:	2003f3f3 	.word	0x2003f3f3

10008334 <resetd_open>:
10008334:	794b      	ldrb	r3, [r1, #5]
10008336:	2000      	movs	r0, #0
10008338:	2bff      	cmp	r3, #255	@ 0xff
1000833a:	d10b      	bne.n	10008354 <resetd_open+0x20>
1000833c:	798b      	ldrb	r3, [r1, #6]
1000833e:	2b00      	cmp	r3, #0
10008340:	d108      	bne.n	10008354 <resetd_open+0x20>
10008342:	79cb      	ldrb	r3, [r1, #7]
10008344:	2b01      	cmp	r3, #1
10008346:	d105      	bne.n	10008354 <resetd_open+0x20>
10008348:	2a08      	cmp	r2, #8
1000834a:	d903      	bls.n	10008354 <resetd_open+0x20>
1000834c:	4b02      	ldr	r3, [pc, #8]	@ (10008358 <resetd_open+0x24>)
1000834e:	788a      	ldrb	r2, [r1, #2]
10008350:	3009      	adds	r0, #9
10008352:	701a      	strb	r2, [r3, #0]
10008354:	4770      	bx	lr
10008356:	46c0      	nop			@ (mov r8, r8)
10008358:	2003f3f3 	.word	0x2003f3f3

1000835c <resetd_xfer_cb>:
1000835c:	2001      	movs	r0, #1
1000835e:	4770      	bx	lr

10008360 <resetd_control_xfer_cb>:
10008360:	b570      	push	{r4, r5, r6, lr}
10008362:	2901      	cmp	r1, #1
10008364:	d001      	beq.n	1000836a <resetd_control_xfer_cb+0xa>
10008366:	2001      	movs	r0, #1
10008368:	bd70      	pop	{r4, r5, r6, pc}
1000836a:	4913      	ldr	r1, [pc, #76]	@ (100083b8 <resetd_control_xfer_cb+0x58>)
1000836c:	7953      	ldrb	r3, [r2, #5]
1000836e:	7910      	ldrb	r0, [r2, #4]
10008370:	7809      	ldrb	r1, [r1, #0]
10008372:	021b      	lsls	r3, r3, #8
10008374:	4303      	orrs	r3, r0
10008376:	2000      	movs	r0, #0
10008378:	4299      	cmp	r1, r3
1000837a:	d1f5      	bne.n	10008368 <resetd_control_xfer_cb+0x8>
1000837c:	7853      	ldrb	r3, [r2, #1]
1000837e:	2b01      	cmp	r3, #1
10008380:	d008      	beq.n	10008394 <resetd_control_xfer_cb+0x34>
10008382:	2b02      	cmp	r3, #2
10008384:	d1f0      	bne.n	10008368 <resetd_control_xfer_cb+0x8>
10008386:	2000      	movs	r0, #0
10008388:	2264      	movs	r2, #100	@ 0x64
1000838a:	2100      	movs	r1, #0
1000838c:	f7fd f8c8 	bl	10005520 <watchdog_reboot>
10008390:	2001      	movs	r0, #1
10008392:	e7e9      	b.n	10008368 <resetd_control_xfer_cb+0x8>
10008394:	7894      	ldrb	r4, [r2, #2]
10008396:	78d2      	ldrb	r2, [r2, #3]
10008398:	0005      	movs	r5, r0
1000839a:	0212      	lsls	r2, r2, #8
1000839c:	4314      	orrs	r4, r2
1000839e:	05d2      	lsls	r2, r2, #23
100083a0:	d502      	bpl.n	100083a8 <resetd_control_xfer_cb+0x48>
100083a2:	0a62      	lsrs	r2, r4, #9
100083a4:	4093      	lsls	r3, r2
100083a6:	001d      	movs	r5, r3
100083a8:	4804      	ldr	r0, [pc, #16]	@ (100083bc <resetd_control_xfer_cb+0x5c>)
100083aa:	f7fe fd69 	bl	10006e80 <rom_func_lookup>
100083ae:	217f      	movs	r1, #127	@ 0x7f
100083b0:	0003      	movs	r3, r0
100083b2:	4021      	ands	r1, r4
100083b4:	0028      	movs	r0, r5
100083b6:	4798      	blx	r3
100083b8:	2003f3f3 	.word	0x2003f3f3
100083bc:	00004255 	.word	0x00004255

100083c0 <usbd_app_driver_get_cb>:
100083c0:	2301      	movs	r3, #1
100083c2:	7003      	strb	r3, [r0, #0]
100083c4:	4800      	ldr	r0, [pc, #0]	@ (100083c8 <usbd_app_driver_get_cb+0x8>)
100083c6:	4770      	bx	lr
100083c8:	1000b658 	.word	0x1000b658

100083cc <tud_cdc_line_coding_cb>:
100083cc:	784b      	ldrb	r3, [r1, #1]
100083ce:	780a      	ldrb	r2, [r1, #0]
100083d0:	021b      	lsls	r3, r3, #8
100083d2:	4313      	orrs	r3, r2
100083d4:	788a      	ldrb	r2, [r1, #2]
100083d6:	b510      	push	{r4, lr}
100083d8:	0412      	lsls	r2, r2, #16
100083da:	431a      	orrs	r2, r3
100083dc:	78cb      	ldrb	r3, [r1, #3]
100083de:	061b      	lsls	r3, r3, #24
100083e0:	4313      	orrs	r3, r2
100083e2:	2296      	movs	r2, #150	@ 0x96
100083e4:	00d2      	lsls	r2, r2, #3
100083e6:	4293      	cmp	r3, r2
100083e8:	d000      	beq.n	100083ec <tud_cdc_line_coding_cb+0x20>
100083ea:	bd10      	pop	{r4, pc}
100083ec:	4803      	ldr	r0, [pc, #12]	@ (100083fc <tud_cdc_line_coding_cb+0x30>)
100083ee:	f7fe fd47 	bl	10006e80 <rom_func_lookup>
100083f2:	2100      	movs	r1, #0
100083f4:	0003      	movs	r3, r0
100083f6:	0008      	movs	r0, r1
100083f8:	4798      	blx	r3
100083fa:	46c0      	nop			@ (mov r8, r8)
100083fc:	00004255 	.word	0x00004255

10008400 <stdio_usb_set_chars_available_callback>:
10008400:	4b02      	ldr	r3, [pc, #8]	@ (1000840c <stdio_usb_set_chars_available_callback+0xc>)
10008402:	6018      	str	r0, [r3, #0]
10008404:	4b02      	ldr	r3, [pc, #8]	@ (10008410 <stdio_usb_set_chars_available_callback+0x10>)
10008406:	6019      	str	r1, [r3, #0]
10008408:	4770      	bx	lr
1000840a:	46c0      	nop			@ (mov r8, r8)
1000840c:	20001df0 	.word	0x20001df0
10008410:	20001df4 	.word	0x20001df4

10008414 <usb_irq>:
10008414:	b510      	push	{r4, lr}
10008416:	4b02      	ldr	r3, [pc, #8]	@ (10008420 <usb_irq+0xc>)
10008418:	7818      	ldrb	r0, [r3, #0]
1000841a:	f7fb fc4b 	bl	10003cb4 <irq_set_pending>
1000841e:	bd10      	pop	{r4, pc}
10008420:	2003f3f4 	.word	0x2003f3f4

10008424 <timer_task>:
10008424:	4b11      	ldr	r3, [pc, #68]	@ (1000846c <timer_task+0x48>)
10008426:	b570      	push	{r4, r5, r6, lr}
10008428:	681a      	ldr	r2, [r3, #0]
1000842a:	2a00      	cmp	r2, #0
1000842c:	d01a      	beq.n	10008464 <timer_task+0x40>
1000842e:	f3ef 8110 	mrs	r1, PRIMASK
10008432:	b672      	cpsid	i
10008434:	6810      	ldr	r0, [r2, #0]
10008436:	2800      	cmp	r0, #0
10008438:	d0fc      	beq.n	10008434 <timer_task+0x10>
1000843a:	f3bf 8f5f 	dmb	sy
1000843e:	2000      	movs	r0, #0
10008440:	4a0b      	ldr	r2, [pc, #44]	@ (10008470 <timer_task+0x4c>)
10008442:	6059      	str	r1, [r3, #4]
10008444:	7010      	strb	r0, [r2, #0]
10008446:	681b      	ldr	r3, [r3, #0]
10008448:	f3bf 8f5f 	dmb	sy
1000844c:	6018      	str	r0, [r3, #0]
1000844e:	f381 8810 	msr	PRIMASK, r1
10008452:	2400      	movs	r4, #0
10008454:	2500      	movs	r5, #0
10008456:	4b07      	ldr	r3, [pc, #28]	@ (10008474 <timer_task+0x50>)
10008458:	7818      	ldrb	r0, [r3, #0]
1000845a:	f7fb fc2b 	bl	10003cb4 <irq_set_pending>
1000845e:	0029      	movs	r1, r5
10008460:	0020      	movs	r0, r4
10008462:	bd70      	pop	{r4, r5, r6, pc}
10008464:	24fa      	movs	r4, #250	@ 0xfa
10008466:	2500      	movs	r5, #0
10008468:	00a4      	lsls	r4, r4, #2
1000846a:	e7f4      	b.n	10008456 <timer_task+0x32>
1000846c:	2003f27c 	.word	0x2003f27c
10008470:	2003f3f5 	.word	0x2003f3f5
10008474:	2003f3f4 	.word	0x2003f3f4

10008478 <stdio_usb_in_chars>:
10008478:	b570      	push	{r4, r5, r6, lr}
1000847a:	0004      	movs	r4, r0
1000847c:	2000      	movs	r0, #0
1000847e:	000e      	movs	r6, r1
10008480:	f001 fb12 	bl	10009aa8 <tud_cdc_n_connected>
10008484:	2800      	cmp	r0, #0
10008486:	d036      	beq.n	100084f6 <stdio_usb_in_chars+0x7e>
10008488:	2000      	movs	r0, #0
1000848a:	f001 fb25 	bl	10009ad8 <tud_cdc_n_available>
1000848e:	2800      	cmp	r0, #0
10008490:	d031      	beq.n	100084f6 <stdio_usb_in_chars+0x7e>
10008492:	f7fc fac5 	bl	10004a20 <time_us_64>
10008496:	2300      	movs	r3, #0
10008498:	4a18      	ldr	r2, [pc, #96]	@ (100084fc <stdio_usb_in_chars+0x84>)
1000849a:	1812      	adds	r2, r2, r0
1000849c:	414b      	adcs	r3, r1
1000849e:	2180      	movs	r1, #128	@ 0x80
100084a0:	0609      	lsls	r1, r1, #24
100084a2:	428b      	cmp	r3, r1
100084a4:	d216      	bcs.n	100084d4 <stdio_usb_in_chars+0x5c>
100084a6:	4d16      	ldr	r5, [pc, #88]	@ (10008500 <stdio_usb_in_chars+0x88>)
100084a8:	0028      	movs	r0, r5
100084aa:	f002 fd05 	bl	1000aeb8 <__mutex_try_enter_block_until_veneer>
100084ae:	2800      	cmp	r0, #0
100084b0:	d021      	beq.n	100084f6 <stdio_usb_in_chars+0x7e>
100084b2:	2000      	movs	r0, #0
100084b4:	f001 faf8 	bl	10009aa8 <tud_cdc_n_connected>
100084b8:	2800      	cmp	r0, #0
100084ba:	d10f      	bne.n	100084dc <stdio_usb_in_chars+0x64>
100084bc:	2001      	movs	r0, #1
100084be:	2100      	movs	r1, #0
100084c0:	4240      	negs	r0, r0
100084c2:	f000 fcc1 	bl	10008e48 <tud_task_ext>
100084c6:	2403      	movs	r4, #3
100084c8:	4264      	negs	r4, r4
100084ca:	0028      	movs	r0, r5
100084cc:	f002 fc9c 	bl	1000ae08 <__mutex_exit_veneer>
100084d0:	0020      	movs	r0, r4
100084d2:	bd70      	pop	{r4, r5, r6, pc}
100084d4:	2201      	movs	r2, #1
100084d6:	4b0b      	ldr	r3, [pc, #44]	@ (10008504 <stdio_usb_in_chars+0x8c>)
100084d8:	4252      	negs	r2, r2
100084da:	e7e4      	b.n	100084a6 <stdio_usb_in_chars+0x2e>
100084dc:	2000      	movs	r0, #0
100084de:	f001 fafb 	bl	10009ad8 <tud_cdc_n_available>
100084e2:	2800      	cmp	r0, #0
100084e4:	d0ea      	beq.n	100084bc <stdio_usb_in_chars+0x44>
100084e6:	0021      	movs	r1, r4
100084e8:	0032      	movs	r2, r6
100084ea:	2000      	movs	r0, #0
100084ec:	f001 fb00 	bl	10009af0 <tud_cdc_n_read>
100084f0:	1e04      	subs	r4, r0, #0
100084f2:	d1ea      	bne.n	100084ca <stdio_usb_in_chars+0x52>
100084f4:	e7e7      	b.n	100084c6 <stdio_usb_in_chars+0x4e>
100084f6:	2403      	movs	r4, #3
100084f8:	4264      	negs	r4, r4
100084fa:	e7e9      	b.n	100084d0 <stdio_usb_in_chars+0x58>
100084fc:	000f4240 	.word	0x000f4240
10008500:	2003f3b0 	.word	0x2003f3b0
10008504:	7fffffff 	.word	0x7fffffff

10008508 <stdio_usb_out_chars>:
10008508:	b5f8      	push	{r3, r4, r5, r6, r7, lr}
1000850a:	46de      	mov	lr, fp
1000850c:	4657      	mov	r7, sl
1000850e:	b580      	push	{r7, lr}
10008510:	0005      	movs	r5, r0
10008512:	000c      	movs	r4, r1
10008514:	f7fc fa84 	bl	10004a20 <time_us_64>
10008518:	2300      	movs	r3, #0
1000851a:	4a37      	ldr	r2, [pc, #220]	@ (100085f8 <stdio_usb_out_chars+0xf0>)
1000851c:	1812      	adds	r2, r2, r0
1000851e:	414b      	adcs	r3, r1
10008520:	2180      	movs	r1, #128	@ 0x80
10008522:	0609      	lsls	r1, r1, #24
10008524:	428b      	cmp	r3, r1
10008526:	d302      	bcc.n	1000852e <stdio_usb_out_chars+0x26>
10008528:	2201      	movs	r2, #1
1000852a:	4b34      	ldr	r3, [pc, #208]	@ (100085fc <stdio_usb_out_chars+0xf4>)
1000852c:	4252      	negs	r2, r2
1000852e:	4934      	ldr	r1, [pc, #208]	@ (10008600 <stdio_usb_out_chars+0xf8>)
10008530:	0008      	movs	r0, r1
10008532:	468a      	mov	sl, r1
10008534:	f002 fcc0 	bl	1000aeb8 <__mutex_try_enter_block_until_veneer>
10008538:	2800      	cmp	r0, #0
1000853a:	d103      	bne.n	10008544 <stdio_usb_out_chars+0x3c>
1000853c:	bcc0      	pop	{r6, r7}
1000853e:	46bb      	mov	fp, r7
10008540:	46b2      	mov	sl, r6
10008542:	bdf8      	pop	{r3, r4, r5, r6, r7, pc}
10008544:	2000      	movs	r0, #0
10008546:	f001 faaf 	bl	10009aa8 <tud_cdc_n_connected>
1000854a:	2800      	cmp	r0, #0
1000854c:	d04a      	beq.n	100085e4 <stdio_usb_out_chars+0xdc>
1000854e:	2600      	movs	r6, #0
10008550:	2c00      	cmp	r4, #0
10008552:	dd43      	ble.n	100085dc <stdio_usb_out_chars+0xd4>
10008554:	4b2b      	ldr	r3, [pc, #172]	@ (10008604 <stdio_usb_out_chars+0xfc>)
10008556:	469b      	mov	fp, r3
10008558:	e014      	b.n	10008584 <stdio_usb_out_chars+0x7c>
1000855a:	19a9      	adds	r1, r5, r6
1000855c:	2000      	movs	r0, #0
1000855e:	f001 fb3b 	bl	10009bd8 <tud_cdc_n_write>
10008562:	0007      	movs	r7, r0
10008564:	2001      	movs	r0, #1
10008566:	2100      	movs	r1, #0
10008568:	4240      	negs	r0, r0
1000856a:	f000 fc6d 	bl	10008e48 <tud_task_ext>
1000856e:	2000      	movs	r0, #0
10008570:	f001 faf6 	bl	10009b60 <tud_cdc_n_write_flush>
10008574:	f7fc fa54 	bl	10004a20 <time_us_64>
10008578:	4b22      	ldr	r3, [pc, #136]	@ (10008604 <stdio_usb_out_chars+0xfc>)
1000857a:	19f6      	adds	r6, r6, r7
1000857c:	6018      	str	r0, [r3, #0]
1000857e:	6059      	str	r1, [r3, #4]
10008580:	42b4      	cmp	r4, r6
10008582:	dd2b      	ble.n	100085dc <stdio_usb_out_chars+0xd4>
10008584:	2000      	movs	r0, #0
10008586:	f001 fb41 	bl	10009c0c <tud_cdc_n_write_available>
1000858a:	1ba7      	subs	r7, r4, r6
1000858c:	0002      	movs	r2, r0
1000858e:	42b8      	cmp	r0, r7
10008590:	dd00      	ble.n	10008594 <stdio_usb_out_chars+0x8c>
10008592:	003a      	movs	r2, r7
10008594:	2a00      	cmp	r2, #0
10008596:	d1e0      	bne.n	1000855a <stdio_usb_out_chars+0x52>
10008598:	2001      	movs	r0, #1
1000859a:	2100      	movs	r1, #0
1000859c:	4240      	negs	r0, r0
1000859e:	f000 fc53 	bl	10008e48 <tud_task_ext>
100085a2:	2000      	movs	r0, #0
100085a4:	f001 fadc 	bl	10009b60 <tud_cdc_n_write_flush>
100085a8:	2000      	movs	r0, #0
100085aa:	f001 fa7d 	bl	10009aa8 <tud_cdc_n_connected>
100085ae:	2800      	cmp	r0, #0
100085b0:	d014      	beq.n	100085dc <stdio_usb_out_chars+0xd4>
100085b2:	2000      	movs	r0, #0
100085b4:	f001 fb2a 	bl	10009c0c <tud_cdc_n_write_available>
100085b8:	2800      	cmp	r0, #0
100085ba:	d1e1      	bne.n	10008580 <stdio_usb_out_chars+0x78>
100085bc:	f7fc fa30 	bl	10004a20 <time_us_64>
100085c0:	465b      	mov	r3, fp
100085c2:	000f      	movs	r7, r1
100085c4:	681a      	ldr	r2, [r3, #0]
100085c6:	685b      	ldr	r3, [r3, #4]
100085c8:	2100      	movs	r1, #0
100085ca:	4684      	mov	ip, r0
100085cc:	480e      	ldr	r0, [pc, #56]	@ (10008608 <stdio_usb_out_chars+0x100>)
100085ce:	1812      	adds	r2, r2, r0
100085d0:	414b      	adcs	r3, r1
100085d2:	429f      	cmp	r7, r3
100085d4:	d802      	bhi.n	100085dc <stdio_usb_out_chars+0xd4>
100085d6:	d1d3      	bne.n	10008580 <stdio_usb_out_chars+0x78>
100085d8:	4594      	cmp	ip, r2
100085da:	d9d1      	bls.n	10008580 <stdio_usb_out_chars+0x78>
100085dc:	4650      	mov	r0, sl
100085de:	f002 fc13 	bl	1000ae08 <__mutex_exit_veneer>
100085e2:	e7ab      	b.n	1000853c <stdio_usb_out_chars+0x34>
100085e4:	2000      	movs	r0, #0
100085e6:	2100      	movs	r1, #0
100085e8:	4b06      	ldr	r3, [pc, #24]	@ (10008604 <stdio_usb_out_chars+0xfc>)
100085ea:	6018      	str	r0, [r3, #0]
100085ec:	6059      	str	r1, [r3, #4]
100085ee:	4650      	mov	r0, sl
100085f0:	f002 fc0a 	bl	1000ae08 <__mutex_exit_veneer>
100085f4:	e7a2      	b.n	1000853c <stdio_usb_out_chars+0x34>
100085f6:	46c0      	nop			@ (mov r8, r8)
100085f8:	000f4240 	.word	0x000f4240
100085fc:	7fffffff 	.word	0x7fffffff
10008600:	2003f3b0 	.word	0x2003f3b0
10008604:	20001668 	.word	0x20001668
10008608:	0007a120 	.word	0x0007a120

1000860c <low_priority_worker_irq>:
1000860c:	b510      	push	{r4, lr}
1000860e:	4c24      	ldr	r4, [pc, #144]	@ (100086a0 <low_priority_worker_irq+0x94>)
10008610:	b084      	sub	sp, #16
10008612:	2100      	movs	r1, #0
10008614:	0020      	movs	r0, r4
10008616:	f002 fc27 	bl	1000ae68 <__mutex_try_enter_veneer>
1000861a:	2800      	cmp	r0, #0
1000861c:	d11c      	bne.n	10008658 <low_priority_worker_irq+0x4c>
1000861e:	4b21      	ldr	r3, [pc, #132]	@ (100086a4 <low_priority_worker_irq+0x98>)
10008620:	681a      	ldr	r2, [r3, #0]
10008622:	2a00      	cmp	r2, #0
10008624:	d016      	beq.n	10008654 <low_priority_worker_irq+0x48>
10008626:	f3ef 8110 	mrs	r1, PRIMASK
1000862a:	b672      	cpsid	i
1000862c:	6810      	ldr	r0, [r2, #0]
1000862e:	2800      	cmp	r0, #0
10008630:	d0fc      	beq.n	1000862c <low_priority_worker_irq+0x20>
10008632:	f3bf 8f5f 	dmb	sy
10008636:	2401      	movs	r4, #1
10008638:	481b      	ldr	r0, [pc, #108]	@ (100086a8 <low_priority_worker_irq+0x9c>)
1000863a:	6059      	str	r1, [r3, #4]
1000863c:	7802      	ldrb	r2, [r0, #0]
1000863e:	681b      	ldr	r3, [r3, #0]
10008640:	b2d2      	uxtb	r2, r2
10008642:	7004      	strb	r4, [r0, #0]
10008644:	f3bf 8f5f 	dmb	sy
10008648:	2000      	movs	r0, #0
1000864a:	6018      	str	r0, [r3, #0]
1000864c:	f381 8810 	msr	PRIMASK, r1
10008650:	2a00      	cmp	r2, #0
10008652:	d00a      	beq.n	1000866a <low_priority_worker_irq+0x5e>
10008654:	b004      	add	sp, #16
10008656:	bd10      	pop	{r4, pc}
10008658:	2001      	movs	r0, #1
1000865a:	2100      	movs	r1, #0
1000865c:	4240      	negs	r0, r0
1000865e:	f000 fbf3 	bl	10008e48 <tud_task_ext>
10008662:	0020      	movs	r0, r4
10008664:	f002 fbd0 	bl	1000ae08 <__mutex_exit_veneer>
10008668:	e7f4      	b.n	10008654 <low_priority_worker_irq+0x48>
1000866a:	f7fb ffc7 	bl	100045fc <alarm_pool_get_default>
1000866e:	0004      	movs	r4, r0
10008670:	f7fc f9d6 	bl	10004a20 <time_us_64>
10008674:	22fa      	movs	r2, #250	@ 0xfa
10008676:	2300      	movs	r3, #0
10008678:	0092      	lsls	r2, r2, #2
1000867a:	1812      	adds	r2, r2, r0
1000867c:	414b      	adcs	r3, r1
1000867e:	2180      	movs	r1, #128	@ 0x80
10008680:	0609      	lsls	r1, r1, #24
10008682:	428b      	cmp	r3, r1
10008684:	d302      	bcc.n	1000868c <low_priority_worker_irq+0x80>
10008686:	2201      	movs	r2, #1
10008688:	4b08      	ldr	r3, [pc, #32]	@ (100086ac <low_priority_worker_irq+0xa0>)
1000868a:	4252      	negs	r2, r2
1000868c:	2101      	movs	r1, #1
1000868e:	9102      	str	r1, [sp, #8]
10008690:	2100      	movs	r1, #0
10008692:	9101      	str	r1, [sp, #4]
10008694:	4906      	ldr	r1, [pc, #24]	@ (100086b0 <low_priority_worker_irq+0xa4>)
10008696:	0020      	movs	r0, r4
10008698:	9100      	str	r1, [sp, #0]
1000869a:	f7fb ffb3 	bl	10004604 <alarm_pool_add_alarm_at>
1000869e:	e7d9      	b.n	10008654 <low_priority_worker_irq+0x48>
100086a0:	2003f3b0 	.word	0x2003f3b0
100086a4:	2003f27c 	.word	0x2003f27c
100086a8:	2003f3f5 	.word	0x2003f3f5
100086ac:	7fffffff 	.word	0x7fffffff
100086b0:	10008425 	.word	0x10008425

100086b4 <tud_cdc_rx_cb>:
100086b4:	4b05      	ldr	r3, [pc, #20]	@ (100086cc <tud_cdc_rx_cb+0x18>)
100086b6:	b510      	push	{r4, lr}
100086b8:	6818      	ldr	r0, [r3, #0]
100086ba:	2800      	cmp	r0, #0
100086bc:	d004      	beq.n	100086c8 <tud_cdc_rx_cb+0x14>
100086be:	4b04      	ldr	r3, [pc, #16]	@ (100086d0 <tud_cdc_rx_cb+0x1c>)
100086c0:	2200      	movs	r2, #0
100086c2:	6819      	ldr	r1, [r3, #0]
100086c4:	f001 f860 	bl	10009788 <usbd_defer_func>
100086c8:	bd10      	pop	{r4, pc}
100086ca:	46c0      	nop			@ (mov r8, r8)
100086cc:	20001df0 	.word	0x20001df0
100086d0:	20001df4 	.word	0x20001df4

100086d4 <stdio_usb_init>:
100086d4:	23d0      	movs	r3, #208	@ 0xd0
100086d6:	b510      	push	{r4, lr}
100086d8:	061b      	lsls	r3, r3, #24
100086da:	b084      	sub	sp, #16
100086dc:	681c      	ldr	r4, [r3, #0]
100086de:	f7fb ff8d 	bl	100045fc <alarm_pool_get_default>
100086e2:	f7fc f84d 	bl	10004780 <alarm_pool_core_num>
100086e6:	42a0      	cmp	r0, r4
100086e8:	d002      	beq.n	100086f0 <stdio_usb_init+0x1c>
100086ea:	2000      	movs	r0, #0
100086ec:	b004      	add	sp, #16
100086ee:	bd10      	pop	{r4, pc}
100086f0:	4b27      	ldr	r3, [pc, #156]	@ (10008790 <stdio_usb_init+0xbc>)
100086f2:	781b      	ldrb	r3, [r3, #0]
100086f4:	f001 fc6c 	bl	10009fd0 <tusb_init>
100086f8:	4826      	ldr	r0, [pc, #152]	@ (10008794 <stdio_usb_init+0xc0>)
100086fa:	f7fb fd87 	bl	1000420c <mutex_init>
100086fe:	2001      	movs	r0, #1
10008700:	f7fb fd66 	bl	100041d0 <user_irq_claim_unused>
10008704:	23ff      	movs	r3, #255	@ 0xff
10008706:	4c24      	ldr	r4, [pc, #144]	@ (10008798 <stdio_usb_init+0xc4>)
10008708:	4924      	ldr	r1, [pc, #144]	@ (1000879c <stdio_usb_init+0xc8>)
1000870a:	7020      	strb	r0, [r4, #0]
1000870c:	4018      	ands	r0, r3
1000870e:	f7fb faf7 	bl	10003d00 <irq_set_exclusive_handler>
10008712:	7820      	ldrb	r0, [r4, #0]
10008714:	2101      	movs	r1, #1
10008716:	f7fb faaf 	bl	10003c78 <irq_set_enabled>
1000871a:	2005      	movs	r0, #5
1000871c:	f7fb fad2 	bl	10003cc4 <irq_has_shared_handler>
10008720:	2800      	cmp	r0, #0
10008722:	d127      	bne.n	10008774 <stdio_usb_init+0xa0>
10008724:	f7fb ff6a 	bl	100045fc <alarm_pool_get_default>
10008728:	0004      	movs	r4, r0
1000872a:	f7fc f979 	bl	10004a20 <time_us_64>
1000872e:	22fa      	movs	r2, #250	@ 0xfa
10008730:	2300      	movs	r3, #0
10008732:	0092      	lsls	r2, r2, #2
10008734:	1812      	adds	r2, r2, r0
10008736:	414b      	adcs	r3, r1
10008738:	2180      	movs	r1, #128	@ 0x80
1000873a:	0609      	lsls	r1, r1, #24
1000873c:	428b      	cmp	r3, r1
1000873e:	d302      	bcc.n	10008746 <stdio_usb_init+0x72>
10008740:	2201      	movs	r2, #1
10008742:	4b17      	ldr	r3, [pc, #92]	@ (100087a0 <stdio_usb_init+0xcc>)
10008744:	4252      	negs	r2, r2
10008746:	2101      	movs	r1, #1
10008748:	9102      	str	r1, [sp, #8]
1000874a:	2100      	movs	r1, #0
1000874c:	9101      	str	r1, [sp, #4]
1000874e:	4915      	ldr	r1, [pc, #84]	@ (100087a4 <stdio_usb_init+0xd0>)
10008750:	0020      	movs	r0, r4
10008752:	9100      	str	r1, [sp, #0]
10008754:	f7fb ff56 	bl	10004604 <alarm_pool_add_alarm_at>
10008758:	2208      	movs	r2, #8
1000875a:	0004      	movs	r4, r0
1000875c:	2100      	movs	r1, #0
1000875e:	4812      	ldr	r0, [pc, #72]	@ (100087a8 <stdio_usb_init+0xd4>)
10008760:	f7ff fbcc 	bl	10007efc <__wrap_memset>
10008764:	2c00      	cmp	r4, #0
10008766:	dbc0      	blt.n	100086ea <stdio_usb_init+0x16>
10008768:	4810      	ldr	r0, [pc, #64]	@ (100087ac <stdio_usb_init+0xd8>)
1000876a:	2101      	movs	r1, #1
1000876c:	f7ff fd0a 	bl	10008184 <stdio_set_driver_enabled>
10008770:	2001      	movs	r0, #1
10008772:	e7bb      	b.n	100086ec <stdio_usb_init+0x18>
10008774:	2200      	movs	r2, #0
10008776:	490e      	ldr	r1, [pc, #56]	@ (100087b0 <stdio_usb_init+0xdc>)
10008778:	2005      	movs	r0, #5
1000877a:	f7fb faeb 	bl	10003d54 <irq_add_shared_handler>
1000877e:	f7fb fa5d 	bl	10003c3c <next_striped_spin_lock_num>
10008782:	4b09      	ldr	r3, [pc, #36]	@ (100087a8 <stdio_usb_init+0xd4>)
10008784:	0001      	movs	r1, r0
10008786:	0018      	movs	r0, r3
10008788:	f7fb fd6a 	bl	10004260 <critical_section_init_with_lock_num>
1000878c:	e7ec      	b.n	10008768 <stdio_usb_init+0x94>
1000878e:	46c0      	nop			@ (mov r8, r8)
10008790:	1000b89c 	.word	0x1000b89c
10008794:	2003f3b0 	.word	0x2003f3b0
10008798:	2003f3f4 	.word	0x2003f3f4
1000879c:	1000860d 	.word	0x1000860d
100087a0:	7fffffff 	.word	0x7fffffff
100087a4:	10008425 	.word	0x10008425
100087a8:	2003f27c 	.word	0x2003f27c
100087ac:	20001090 	.word	0x20001090
100087b0:	10008415 	.word	0x10008415

100087b4 <tud_descriptor_device_cb>:
100087b4:	4800      	ldr	r0, [pc, #0]	@ (100087b8 <tud_descriptor_device_cb+0x4>)
100087b6:	4770      	bx	lr
100087b8:	1000b728 	.word	0x1000b728

100087bc <tud_descriptor_configuration_cb>:
100087bc:	4800      	ldr	r0, [pc, #0]	@ (100087c0 <tud_descriptor_configuration_cb+0x4>)
100087be:	4770      	bx	lr
100087c0:	1000b6d4 	.word	0x1000b6d4

100087c4 <tud_descriptor_string_cb>:
100087c4:	b510      	push	{r4, lr}
100087c6:	0004      	movs	r4, r0
100087c8:	4817      	ldr	r0, [pc, #92]	@ (10008828 <tud_descriptor_string_cb+0x64>)
100087ca:	7803      	ldrb	r3, [r0, #0]
100087cc:	2b00      	cmp	r3, #0
100087ce:	d020      	beq.n	10008812 <tud_descriptor_string_cb+0x4e>
100087d0:	2c00      	cmp	r4, #0
100087d2:	d106      	bne.n	100087e2 <tud_descriptor_string_cb+0x1e>
100087d4:	4b15      	ldr	r3, [pc, #84]	@ (1000882c <tud_descriptor_string_cb+0x68>)
100087d6:	4816      	ldr	r0, [pc, #88]	@ (10008830 <tud_descriptor_string_cb+0x6c>)
100087d8:	8043      	strh	r3, [r0, #2]
100087da:	3b06      	subs	r3, #6
100087dc:	3bff      	subs	r3, #255	@ 0xff
100087de:	8003      	strh	r3, [r0, #0]
100087e0:	bd10      	pop	{r4, pc}
100087e2:	2c05      	cmp	r4, #5
100087e4:	d819      	bhi.n	1000881a <tud_descriptor_string_cb+0x56>
100087e6:	4b13      	ldr	r3, [pc, #76]	@ (10008834 <tud_descriptor_string_cb+0x70>)
100087e8:	00a4      	lsls	r4, r4, #2
100087ea:	58e0      	ldr	r0, [r4, r3]
100087ec:	4912      	ldr	r1, [pc, #72]	@ (10008838 <tud_descriptor_string_cb+0x74>)
100087ee:	2301      	movs	r3, #1
100087f0:	3801      	subs	r0, #1
100087f2:	e004      	b.n	100087fe <tud_descriptor_string_cb+0x3a>
100087f4:	3301      	adds	r3, #1
100087f6:	800a      	strh	r2, [r1, #0]
100087f8:	3102      	adds	r1, #2
100087fa:	2b14      	cmp	r3, #20
100087fc:	d00f      	beq.n	1000881e <tud_descriptor_string_cb+0x5a>
100087fe:	5cc2      	ldrb	r2, [r0, r3]
10008800:	2a00      	cmp	r2, #0
10008802:	d1f7      	bne.n	100087f4 <tud_descriptor_string_cb+0x30>
10008804:	22c0      	movs	r2, #192	@ 0xc0
10008806:	b2db      	uxtb	r3, r3
10008808:	005b      	lsls	r3, r3, #1
1000880a:	0092      	lsls	r2, r2, #2
1000880c:	4808      	ldr	r0, [pc, #32]	@ (10008830 <tud_descriptor_string_cb+0x6c>)
1000880e:	4313      	orrs	r3, r2
10008810:	e7e5      	b.n	100087de <tud_descriptor_string_cb+0x1a>
10008812:	2111      	movs	r1, #17
10008814:	f000 f81a 	bl	1000884c <pico_get_unique_board_id_string>
10008818:	e7da      	b.n	100087d0 <tud_descriptor_string_cb+0xc>
1000881a:	2000      	movs	r0, #0
1000881c:	e7e0      	b.n	100087e0 <tud_descriptor_string_cb+0x1c>
1000881e:	23ca      	movs	r3, #202	@ 0xca
10008820:	4803      	ldr	r0, [pc, #12]	@ (10008830 <tud_descriptor_string_cb+0x6c>)
10008822:	009b      	lsls	r3, r3, #2
10008824:	e7db      	b.n	100087de <tud_descriptor_string_cb+0x1a>
10008826:	46c0      	nop			@ (mov r8, r8)
10008828:	2003f3d0 	.word	0x2003f3d0
1000882c:	00000409 	.word	0x00000409
10008830:	20001e3c 	.word	0x20001e3c
10008834:	1000b6bc 	.word	0x1000b6bc
10008838:	20001e3e 	.word	0x20001e3e

1000883c <_retrieve_unique_id_on_boot>:
1000883c:	b510      	push	{r4, lr}
1000883e:	4802      	ldr	r0, [pc, #8]	@ (10008848 <_retrieve_unique_id_on_boot+0xc>)
10008840:	f000 f8d8 	bl	100089f4 <flash_get_unique_id>
10008844:	bd10      	pop	{r4, pc}
10008846:	46c0      	nop			@ (mov r8, r8)
10008848:	2003f394 	.word	0x2003f394

1000884c <pico_get_unique_board_id_string>:
1000884c:	b530      	push	{r4, r5, lr}
1000884e:	1e4b      	subs	r3, r1, #1
10008850:	2901      	cmp	r1, #1
10008852:	d100      	bne.n	10008856 <pico_get_unique_board_id_string+0xa>
10008854:	e0a7      	b.n	100089a6 <pico_get_unique_board_id_string+0x15a>
10008856:	4a66      	ldr	r2, [pc, #408]	@ (100089f0 <pico_get_unique_board_id_string+0x1a4>)
10008858:	7811      	ldrb	r1, [r2, #0]
1000885a:	090d      	lsrs	r5, r1, #4
1000885c:	002c      	movs	r4, r5
1000885e:	3430      	adds	r4, #48	@ 0x30
10008860:	299f      	cmp	r1, #159	@ 0x9f
10008862:	d900      	bls.n	10008866 <pico_get_unique_board_id_string+0x1a>
10008864:	e0a2      	b.n	100089ac <pico_get_unique_board_id_string+0x160>
10008866:	7004      	strb	r4, [r0, #0]
10008868:	2b01      	cmp	r3, #1
1000886a:	d100      	bne.n	1000886e <pico_get_unique_board_id_string+0x22>
1000886c:	e0be      	b.n	100089ec <pico_get_unique_board_id_string+0x1a0>
1000886e:	210f      	movs	r1, #15
10008870:	7814      	ldrb	r4, [r2, #0]
10008872:	4021      	ands	r1, r4
10008874:	000c      	movs	r4, r1
10008876:	3430      	adds	r4, #48	@ 0x30
10008878:	2909      	cmp	r1, #9
1000887a:	d900      	bls.n	1000887e <pico_get_unique_board_id_string+0x32>
1000887c:	e098      	b.n	100089b0 <pico_get_unique_board_id_string+0x164>
1000887e:	7044      	strb	r4, [r0, #1]
10008880:	2b02      	cmp	r3, #2
10008882:	d100      	bne.n	10008886 <pico_get_unique_board_id_string+0x3a>
10008884:	e0b2      	b.n	100089ec <pico_get_unique_board_id_string+0x1a0>
10008886:	7854      	ldrb	r4, [r2, #1]
10008888:	0925      	lsrs	r5, r4, #4
1000888a:	0029      	movs	r1, r5
1000888c:	3130      	adds	r1, #48	@ 0x30
1000888e:	2c9f      	cmp	r4, #159	@ 0x9f
10008890:	d900      	bls.n	10008894 <pico_get_unique_board_id_string+0x48>
10008892:	e090      	b.n	100089b6 <pico_get_unique_board_id_string+0x16a>
10008894:	7081      	strb	r1, [r0, #2]
10008896:	2b03      	cmp	r3, #3
10008898:	d100      	bne.n	1000889c <pico_get_unique_board_id_string+0x50>
1000889a:	e0a7      	b.n	100089ec <pico_get_unique_board_id_string+0x1a0>
1000889c:	210f      	movs	r1, #15
1000889e:	4021      	ands	r1, r4
100088a0:	000c      	movs	r4, r1
100088a2:	3430      	adds	r4, #48	@ 0x30
100088a4:	2909      	cmp	r1, #9
100088a6:	d900      	bls.n	100088aa <pico_get_unique_board_id_string+0x5e>
100088a8:	e087      	b.n	100089ba <pico_get_unique_board_id_string+0x16e>
100088aa:	70c4      	strb	r4, [r0, #3]
100088ac:	2b04      	cmp	r3, #4
100088ae:	d100      	bne.n	100088b2 <pico_get_unique_board_id_string+0x66>
100088b0:	e09c      	b.n	100089ec <pico_get_unique_board_id_string+0x1a0>
100088b2:	7894      	ldrb	r4, [r2, #2]
100088b4:	0925      	lsrs	r5, r4, #4
100088b6:	0029      	movs	r1, r5
100088b8:	3130      	adds	r1, #48	@ 0x30
100088ba:	2c9f      	cmp	r4, #159	@ 0x9f
100088bc:	d900      	bls.n	100088c0 <pico_get_unique_board_id_string+0x74>
100088be:	e07f      	b.n	100089c0 <pico_get_unique_board_id_string+0x174>
100088c0:	7101      	strb	r1, [r0, #4]
100088c2:	2b05      	cmp	r3, #5
100088c4:	d100      	bne.n	100088c8 <pico_get_unique_board_id_string+0x7c>
100088c6:	e091      	b.n	100089ec <pico_get_unique_board_id_string+0x1a0>
100088c8:	210f      	movs	r1, #15
100088ca:	4021      	ands	r1, r4
100088cc:	000c      	movs	r4, r1
100088ce:	3430      	adds	r4, #48	@ 0x30
100088d0:	2909      	cmp	r1, #9
100088d2:	d900      	bls.n	100088d6 <pico_get_unique_board_id_string+0x8a>
100088d4:	e076      	b.n	100089c4 <pico_get_unique_board_id_string+0x178>
100088d6:	7144      	strb	r4, [r0, #5]
100088d8:	2b06      	cmp	r3, #6
100088da:	d100      	bne.n	100088de <pico_get_unique_board_id_string+0x92>
100088dc:	e086      	b.n	100089ec <pico_get_unique_board_id_string+0x1a0>
100088de:	78d4      	ldrb	r4, [r2, #3]
100088e0:	0925      	lsrs	r5, r4, #4
100088e2:	0029      	movs	r1, r5
100088e4:	3130      	adds	r1, #48	@ 0x30
100088e6:	2c9f      	cmp	r4, #159	@ 0x9f
100088e8:	d900      	bls.n	100088ec <pico_get_unique_board_id_string+0xa0>
100088ea:	e06e      	b.n	100089ca <pico_get_unique_board_id_string+0x17e>
100088ec:	7181      	strb	r1, [r0, #6]
100088ee:	2b07      	cmp	r3, #7
100088f0:	d100      	bne.n	100088f4 <pico_get_unique_board_id_string+0xa8>
100088f2:	e07b      	b.n	100089ec <pico_get_unique_board_id_string+0x1a0>
100088f4:	210f      	movs	r1, #15
100088f6:	4021      	ands	r1, r4
100088f8:	000c      	movs	r4, r1
100088fa:	3430      	adds	r4, #48	@ 0x30
100088fc:	2909      	cmp	r1, #9
100088fe:	d866      	bhi.n	100089ce <pico_get_unique_board_id_string+0x182>
10008900:	71c4      	strb	r4, [r0, #7]
10008902:	2b08      	cmp	r3, #8
10008904:	d100      	bne.n	10008908 <pico_get_unique_board_id_string+0xbc>
10008906:	e071      	b.n	100089ec <pico_get_unique_board_id_string+0x1a0>
10008908:	7914      	ldrb	r4, [r2, #4]
1000890a:	0925      	lsrs	r5, r4, #4
1000890c:	0029      	movs	r1, r5
1000890e:	3130      	adds	r1, #48	@ 0x30
10008910:	2c9f      	cmp	r4, #159	@ 0x9f
10008912:	d85f      	bhi.n	100089d4 <pico_get_unique_board_id_string+0x188>
10008914:	7201      	strb	r1, [r0, #8]
10008916:	2b09      	cmp	r3, #9
10008918:	d068      	beq.n	100089ec <pico_get_unique_board_id_string+0x1a0>
1000891a:	210f      	movs	r1, #15
1000891c:	4021      	ands	r1, r4
1000891e:	000c      	movs	r4, r1
10008920:	3430      	adds	r4, #48	@ 0x30
10008922:	2909      	cmp	r1, #9
10008924:	d858      	bhi.n	100089d8 <pico_get_unique_board_id_string+0x18c>
10008926:	7244      	strb	r4, [r0, #9]
10008928:	2b0a      	cmp	r3, #10
1000892a:	d05f      	beq.n	100089ec <pico_get_unique_board_id_string+0x1a0>
1000892c:	7954      	ldrb	r4, [r2, #5]
1000892e:	0925      	lsrs	r5, r4, #4
10008930:	0029      	movs	r1, r5
10008932:	3130      	adds	r1, #48	@ 0x30
10008934:	2c9f      	cmp	r4, #159	@ 0x9f
10008936:	d852      	bhi.n	100089de <pico_get_unique_board_id_string+0x192>
10008938:	7281      	strb	r1, [r0, #10]
1000893a:	2b0b      	cmp	r3, #11
1000893c:	d056      	beq.n	100089ec <pico_get_unique_board_id_string+0x1a0>
1000893e:	210f      	movs	r1, #15
10008940:	4021      	ands	r1, r4
10008942:	000c      	movs	r4, r1
10008944:	3430      	adds	r4, #48	@ 0x30
10008946:	2909      	cmp	r1, #9
10008948:	d84b      	bhi.n	100089e2 <pico_get_unique_board_id_string+0x196>
1000894a:	72c4      	strb	r4, [r0, #11]
1000894c:	2b0c      	cmp	r3, #12
1000894e:	d04d      	beq.n	100089ec <pico_get_unique_board_id_string+0x1a0>
10008950:	7994      	ldrb	r4, [r2, #6]
10008952:	0925      	lsrs	r5, r4, #4
10008954:	0029      	movs	r1, r5
10008956:	3130      	adds	r1, #48	@ 0x30
10008958:	2c9f      	cmp	r4, #159	@ 0x9f
1000895a:	d900      	bls.n	1000895e <pico_get_unique_board_id_string+0x112>
1000895c:	3107      	adds	r1, #7
1000895e:	7301      	strb	r1, [r0, #12]
10008960:	2b0d      	cmp	r3, #13
10008962:	d043      	beq.n	100089ec <pico_get_unique_board_id_string+0x1a0>
10008964:	210f      	movs	r1, #15
10008966:	4021      	ands	r1, r4
10008968:	000c      	movs	r4, r1
1000896a:	3430      	adds	r4, #48	@ 0x30
1000896c:	2909      	cmp	r1, #9
1000896e:	d901      	bls.n	10008974 <pico_get_unique_board_id_string+0x128>
10008970:	3137      	adds	r1, #55	@ 0x37
10008972:	000c      	movs	r4, r1
10008974:	7344      	strb	r4, [r0, #13]
10008976:	2b0e      	cmp	r3, #14
10008978:	d038      	beq.n	100089ec <pico_get_unique_board_id_string+0x1a0>
1000897a:	79d1      	ldrb	r1, [r2, #7]
1000897c:	090c      	lsrs	r4, r1, #4
1000897e:	0022      	movs	r2, r4
10008980:	3230      	adds	r2, #48	@ 0x30
10008982:	299f      	cmp	r1, #159	@ 0x9f
10008984:	d900      	bls.n	10008988 <pico_get_unique_board_id_string+0x13c>
10008986:	3207      	adds	r2, #7
10008988:	7382      	strb	r2, [r0, #14]
1000898a:	2b0f      	cmp	r3, #15
1000898c:	d02e      	beq.n	100089ec <pico_get_unique_board_id_string+0x1a0>
1000898e:	220f      	movs	r2, #15
10008990:	400a      	ands	r2, r1
10008992:	0011      	movs	r1, r2
10008994:	3137      	adds	r1, #55	@ 0x37
10008996:	2a09      	cmp	r2, #9
10008998:	d801      	bhi.n	1000899e <pico_get_unique_board_id_string+0x152>
1000899a:	3230      	adds	r2, #48	@ 0x30
1000899c:	0011      	movs	r1, r2
1000899e:	73c1      	strb	r1, [r0, #15]
100089a0:	2b10      	cmp	r3, #16
100089a2:	d023      	beq.n	100089ec <pico_get_unique_board_id_string+0x1a0>
100089a4:	3010      	adds	r0, #16
100089a6:	2300      	movs	r3, #0
100089a8:	7003      	strb	r3, [r0, #0]
100089aa:	bd30      	pop	{r4, r5, pc}
100089ac:	3407      	adds	r4, #7
100089ae:	e75a      	b.n	10008866 <pico_get_unique_board_id_string+0x1a>
100089b0:	3137      	adds	r1, #55	@ 0x37
100089b2:	000c      	movs	r4, r1
100089b4:	e763      	b.n	1000887e <pico_get_unique_board_id_string+0x32>
100089b6:	3107      	adds	r1, #7
100089b8:	e76c      	b.n	10008894 <pico_get_unique_board_id_string+0x48>
100089ba:	3137      	adds	r1, #55	@ 0x37
100089bc:	000c      	movs	r4, r1
100089be:	e774      	b.n	100088aa <pico_get_unique_board_id_string+0x5e>
100089c0:	3107      	adds	r1, #7
100089c2:	e77d      	b.n	100088c0 <pico_get_unique_board_id_string+0x74>
100089c4:	3137      	adds	r1, #55	@ 0x37
100089c6:	000c      	movs	r4, r1
100089c8:	e785      	b.n	100088d6 <pico_get_unique_board_id_string+0x8a>
100089ca:	3107      	adds	r1, #7
100089cc:	e78e      	b.n	100088ec <pico_get_unique_board_id_string+0xa0>
100089ce:	3137      	adds	r1, #55	@ 0x37
100089d0:	000c      	movs	r4, r1
100089d2:	e795      	b.n	10008900 <pico_get_unique_board_id_string+0xb4>
100089d4:	3107      	adds	r1, #7
100089d6:	e79d      	b.n	10008914 <pico_get_unique_board_id_string+0xc8>
100089d8:	3137      	adds	r1, #55	@ 0x37
100089da:	000c      	movs	r4, r1
100089dc:	e7a3      	b.n	10008926 <pico_get_unique_board_id_string+0xda>
100089de:	3107      	adds	r1, #7
100089e0:	e7aa      	b.n	10008938 <pico_get_unique_board_id_string+0xec>
100089e2:	3137      	adds	r1, #55	@ 0x37
100089e4:	000c      	movs	r4, r1
100089e6:	72c4      	strb	r4, [r0, #11]
100089e8:	2b0c      	cmp	r3, #12
100089ea:	d1b1      	bne.n	10008950 <pico_get_unique_board_id_string+0x104>
100089ec:	18c0      	adds	r0, r0, r3
100089ee:	e7da      	b.n	100089a6 <pico_get_unique_board_id_string+0x15a>
100089f0:	2003f394 	.word	0x2003f394

100089f4 <flash_get_unique_id>:
100089f4:	b530      	push	{r4, r5, lr}
100089f6:	2500      	movs	r5, #0
100089f8:	b089      	sub	sp, #36	@ 0x24
100089fa:	0004      	movs	r4, r0
100089fc:	2209      	movs	r2, #9
100089fe:	2100      	movs	r1, #0
10008a00:	a801      	add	r0, sp, #4
10008a02:	9500      	str	r5, [sp, #0]
10008a04:	f7ff fa7a 	bl	10007efc <__wrap_memset>
10008a08:	2209      	movs	r2, #9
10008a0a:	2100      	movs	r1, #0
10008a0c:	a805      	add	r0, sp, #20
10008a0e:	9504      	str	r5, [sp, #16]
10008a10:	f7ff fa74 	bl	10007efc <__wrap_memset>
10008a14:	234b      	movs	r3, #75	@ 0x4b
10008a16:	466a      	mov	r2, sp
10008a18:	4668      	mov	r0, sp
10008a1a:	7013      	strb	r3, [r2, #0]
10008a1c:	a904      	add	r1, sp, #16
10008a1e:	220d      	movs	r2, #13
10008a20:	f002 f9e2 	bl	1000ade8 <__flash_do_cmd_veneer>
10008a24:	2115      	movs	r1, #21
10008a26:	2208      	movs	r2, #8
10008a28:	0020      	movs	r0, r4
10008a2a:	4469      	add	r1, sp
10008a2c:	f7ff fa6c 	bl	10007f08 <__wrap___aeabi_memcpy>
10008a30:	b009      	add	sp, #36	@ 0x24
10008a32:	bd30      	pop	{r4, r5, pc}

10008a34 <dcd_int_enable>:
10008a34:	b510      	push	{r4, lr}
10008a36:	2101      	movs	r1, #1
10008a38:	2005      	movs	r0, #5
10008a3a:	f7fb f91d 	bl	10003c78 <irq_set_enabled>
10008a3e:	bd10      	pop	{r4, pc}

10008a40 <dcd_set_address>:
10008a40:	b510      	push	{r4, lr}
10008a42:	2200      	movs	r2, #0
10008a44:	2100      	movs	r1, #0
10008a46:	4802      	ldr	r0, [pc, #8]	@ (10008a50 <dcd_set_address+0x10>)
10008a48:	f000 f958 	bl	10008cfc <hw_endpoint_xfer_start>
10008a4c:	bd10      	pop	{r4, pc}
10008a4e:	46c0      	nop			@ (mov r8, r8)
10008a50:	20001e90 	.word	0x20001e90

10008a54 <dcd_connect>:
10008a54:	2280      	movs	r2, #128	@ 0x80
10008a56:	4b02      	ldr	r3, [pc, #8]	@ (10008a60 <dcd_connect+0xc>)
10008a58:	0252      	lsls	r2, r2, #9
10008a5a:	64da      	str	r2, [r3, #76]	@ 0x4c
10008a5c:	4770      	bx	lr
10008a5e:	46c0      	nop			@ (mov r8, r8)
10008a60:	50112000 	.word	0x50112000

10008a64 <dcd_init>:
10008a64:	b5f0      	push	{r4, r5, r6, r7, lr}
10008a66:	46c6      	mov	lr, r8
10008a68:	b500      	push	{lr}
10008a6a:	0006      	movs	r6, r0
10008a6c:	f000 f920 	bl	10008cb0 <rp2040_usb_init>
10008a70:	230c      	movs	r3, #12
10008a72:	4d1b      	ldr	r5, [pc, #108]	@ (10008ae0 <dcd_init+0x7c>)
10008a74:	22ff      	movs	r2, #255	@ 0xff
10008a76:	67ab      	str	r3, [r5, #120]	@ 0x78
10008a78:	2005      	movs	r0, #5
10008a7a:	491a      	ldr	r1, [pc, #104]	@ (10008ae4 <dcd_init+0x80>)
10008a7c:	f7fb f96a 	bl	10003d54 <irq_add_shared_handler>
10008a80:	2340      	movs	r3, #64	@ 0x40
10008a82:	4698      	mov	r8, r3
10008a84:	4c18      	ldr	r4, [pc, #96]	@ (10008ae8 <dcd_init+0x84>)
10008a86:	2240      	movs	r2, #64	@ 0x40
10008a88:	2100      	movs	r1, #0
10008a8a:	0020      	movs	r0, r4
10008a8c:	f7ff fa36 	bl	10007efc <__wrap_memset>
10008a90:	4643      	mov	r3, r8
10008a92:	2701      	movs	r7, #1
10008a94:	8323      	strh	r3, [r4, #24]
10008a96:	2121      	movs	r1, #33	@ 0x21
10008a98:	2300      	movs	r3, #0
10008a9a:	4a14      	ldr	r2, [pc, #80]	@ (10008aec <dcd_init+0x88>)
10008a9c:	7067      	strb	r7, [r4, #1]
10008a9e:	60a2      	str	r2, [r4, #8]
10008aa0:	6013      	str	r3, [r2, #0]
10008aa2:	5463      	strb	r3, [r4, r1]
10008aa4:	315f      	adds	r1, #95	@ 0x5f
10008aa6:	8461      	strh	r1, [r4, #34]	@ 0x22
10008aa8:	4641      	mov	r1, r8
10008aaa:	8721      	strh	r1, [r4, #56]	@ 0x38
10008aac:	3905      	subs	r1, #5
10008aae:	5463      	strb	r3, [r4, r1]
10008ab0:	4a0f      	ldr	r2, [pc, #60]	@ (10008af0 <dcd_init+0x8c>)
10008ab2:	4910      	ldr	r1, [pc, #64]	@ (10008af4 <dcd_init+0x90>)
10008ab4:	6063      	str	r3, [r4, #4]
10008ab6:	60e2      	str	r2, [r4, #12]
10008ab8:	62a1      	str	r1, [r4, #40]	@ 0x28
10008aba:	600b      	str	r3, [r1, #0]
10008abc:	6263      	str	r3, [r4, #36]	@ 0x24
10008abe:	62e2      	str	r2, [r4, #44]	@ 0x2c
10008ac0:	f002 f9aa 	bl	1000ae18 <__reset_non_control_endpoints_veneer>
10008ac4:	2380      	movs	r3, #128	@ 0x80
10008ac6:	059b      	lsls	r3, r3, #22
10008ac8:	642f      	str	r7, [r5, #64]	@ 0x40
10008aca:	64eb      	str	r3, [r5, #76]	@ 0x4c
10008acc:	2390      	movs	r3, #144	@ 0x90
10008ace:	4a0a      	ldr	r2, [pc, #40]	@ (10008af8 <dcd_init+0x94>)
10008ad0:	0030      	movs	r0, r6
10008ad2:	50ea      	str	r2, [r5, r3]
10008ad4:	f7ff ffbe 	bl	10008a54 <dcd_connect>
10008ad8:	bc80      	pop	{r7}
10008ada:	46b8      	mov	r8, r7
10008adc:	bdf0      	pop	{r4, r5, r6, r7, pc}
10008ade:	46c0      	nop			@ (mov r8, r8)
10008ae0:	50110000 	.word	0x50110000
10008ae4:	200005e5 	.word	0x200005e5
10008ae8:	20001e70 	.word	0x20001e70
10008aec:	50100084 	.word	0x50100084
10008af0:	50100100 	.word	0x50100100
10008af4:	50100080 	.word	0x50100080
10008af8:	0001d010 	.word	0x0001d010

10008afc <dcd_edpt0_status_complete>:
10008afc:	780b      	ldrb	r3, [r1, #0]
10008afe:	065b      	lsls	r3, r3, #25
10008b00:	d102      	bne.n	10008b08 <dcd_edpt0_status_complete+0xc>
10008b02:	784b      	ldrb	r3, [r1, #1]
10008b04:	2b05      	cmp	r3, #5
10008b06:	d000      	beq.n	10008b0a <dcd_edpt0_status_complete+0xe>
10008b08:	4770      	bx	lr
10008b0a:	788a      	ldrb	r2, [r1, #2]
10008b0c:	4b01      	ldr	r3, [pc, #4]	@ (10008b14 <dcd_edpt0_status_complete+0x18>)
10008b0e:	601a      	str	r2, [r3, #0]
10008b10:	e7fa      	b.n	10008b08 <dcd_edpt0_status_complete+0xc>
10008b12:	46c0      	nop			@ (mov r8, r8)
10008b14:	50110000 	.word	0x50110000

10008b18 <dcd_edpt_open>:
10008b18:	b5f0      	push	{r4, r5, r6, r7, lr}
10008b1a:	46c6      	mov	lr, r8
10008b1c:	b500      	push	{lr}
10008b1e:	78cc      	ldrb	r4, [r1, #3]
10008b20:	7888      	ldrb	r0, [r1, #2]
10008b22:	790a      	ldrb	r2, [r1, #4]
10008b24:	794b      	ldrb	r3, [r1, #5]
10008b26:	217f      	movs	r1, #127	@ 0x7f
10008b28:	07a4      	lsls	r4, r4, #30
10008b2a:	4001      	ands	r1, r0
10008b2c:	021b      	lsls	r3, r3, #8
10008b2e:	09c5      	lsrs	r5, r0, #7
10008b30:	4313      	orrs	r3, r2
10008b32:	004f      	lsls	r7, r1, #1
10008b34:	0fa2      	lsrs	r2, r4, #30
10008b36:	0014      	movs	r4, r2
10008b38:	4e32      	ldr	r6, [pc, #200]	@ (10008c04 <dcd_edpt_open+0xec>)
10008b3a:	197a      	adds	r2, r7, r5
10008b3c:	0152      	lsls	r2, r2, #5
10008b3e:	18b2      	adds	r2, r6, r2
10008b40:	7090      	strb	r0, [r2, #2]
10008b42:	2001      	movs	r0, #1
10008b44:	4068      	eors	r0, r5
10008b46:	7050      	strb	r0, [r2, #1]
10008b48:	2000      	movs	r0, #0
10008b4a:	055b      	lsls	r3, r3, #21
10008b4c:	0d5b      	lsrs	r3, r3, #21
10008b4e:	70d0      	strb	r0, [r2, #3]
10008b50:	8313      	strh	r3, [r2, #24]
10008b52:	76d4      	strb	r4, [r2, #27]
10008b54:	4680      	mov	r8, r0
10008b56:	00ca      	lsls	r2, r1, #3
10008b58:	2d01      	cmp	r5, #1
10008b5a:	d033      	beq.n	10008bc4 <dcd_edpt_open+0xac>
10008b5c:	482a      	ldr	r0, [pc, #168]	@ (10008c08 <dcd_edpt_open+0xf0>)
10008b5e:	4684      	mov	ip, r0
10008b60:	0188      	lsls	r0, r1, #6
10008b62:	4462      	add	r2, ip
10008b64:	4684      	mov	ip, r0
10008b66:	44b4      	add	ip, r6
10008b68:	4660      	mov	r0, ip
10008b6a:	6082      	str	r2, [r0, #8]
10008b6c:	4640      	mov	r0, r8
10008b6e:	6010      	str	r0, [r2, #0]
10008b70:	2900      	cmp	r1, #0
10008b72:	d033      	beq.n	10008bdc <dcd_edpt_open+0xc4>
10008b74:	4a25      	ldr	r2, [pc, #148]	@ (10008c0c <dcd_edpt_open+0xf4>)
10008b76:	00c9      	lsls	r1, r1, #3
10008b78:	4690      	mov	r8, r2
10008b7a:	4662      	mov	r2, ip
10008b7c:	4441      	add	r1, r8
10008b7e:	6051      	str	r1, [r2, #4]
10008b80:	223f      	movs	r2, #63	@ 0x3f
10008b82:	333f      	adds	r3, #63	@ 0x3f
10008b84:	4393      	bics	r3, r2
10008b86:	2c02      	cmp	r4, #2
10008b88:	d100      	bne.n	10008b8c <dcd_edpt_open+0x74>
10008b8a:	005b      	lsls	r3, r3, #1
10008b8c:	4820      	ldr	r0, [pc, #128]	@ (10008c10 <dcd_edpt_open+0xf8>)
10008b8e:	197a      	adds	r2, r7, r5
10008b90:	6801      	ldr	r1, [r0, #0]
10008b92:	0152      	lsls	r2, r2, #5
10008b94:	18b2      	adds	r2, r6, r2
10008b96:	60d1      	str	r1, [r2, #12]
10008b98:	4a1e      	ldr	r2, [pc, #120]	@ (10008c14 <dcd_edpt_open+0xfc>)
10008b9a:	18cb      	adds	r3, r1, r3
10008b9c:	6003      	str	r3, [r0, #0]
10008b9e:	4051      	eors	r1, r2
10008ba0:	405a      	eors	r2, r3
10008ba2:	2380      	movs	r3, #128	@ 0x80
10008ba4:	4688      	mov	r8, r1
10008ba6:	015b      	lsls	r3, r3, #5
10008ba8:	429a      	cmp	r2, r3
10008baa:	d828      	bhi.n	10008bfe <dcd_edpt_open+0xe6>
10008bac:	4643      	mov	r3, r8
10008bae:	06a4      	lsls	r4, r4, #26
10008bb0:	431c      	orrs	r4, r3
10008bb2:	2380      	movs	r3, #128	@ 0x80
10008bb4:	197f      	adds	r7, r7, r5
10008bb6:	017f      	lsls	r7, r7, #5
10008bb8:	19f6      	adds	r6, r6, r7
10008bba:	6872      	ldr	r2, [r6, #4]
10008bbc:	061b      	lsls	r3, r3, #24
10008bbe:	4323      	orrs	r3, r4
10008bc0:	6013      	str	r3, [r2, #0]
10008bc2:	e011      	b.n	10008be8 <dcd_edpt_open+0xd0>
10008bc4:	4814      	ldr	r0, [pc, #80]	@ (10008c18 <dcd_edpt_open+0x100>)
10008bc6:	4684      	mov	ip, r0
10008bc8:	0188      	lsls	r0, r1, #6
10008bca:	4462      	add	r2, ip
10008bcc:	4684      	mov	ip, r0
10008bce:	44b4      	add	ip, r6
10008bd0:	4660      	mov	r0, ip
10008bd2:	6282      	str	r2, [r0, #40]	@ 0x28
10008bd4:	4640      	mov	r0, r8
10008bd6:	6010      	str	r0, [r2, #0]
10008bd8:	2900      	cmp	r1, #0
10008bda:	d109      	bne.n	10008bf0 <dcd_edpt_open+0xd8>
10008bdc:	2300      	movs	r3, #0
10008bde:	016d      	lsls	r5, r5, #5
10008be0:	1975      	adds	r5, r6, r5
10008be2:	606b      	str	r3, [r5, #4]
10008be4:	4b0d      	ldr	r3, [pc, #52]	@ (10008c1c <dcd_edpt_open+0x104>)
10008be6:	60eb      	str	r3, [r5, #12]
10008be8:	2001      	movs	r0, #1
10008bea:	bc80      	pop	{r7}
10008bec:	46b8      	mov	r8, r7
10008bee:	bdf0      	pop	{r4, r5, r6, r7, pc}
10008bf0:	4a08      	ldr	r2, [pc, #32]	@ (10008c14 <dcd_edpt_open+0xfc>)
10008bf2:	00c9      	lsls	r1, r1, #3
10008bf4:	4690      	mov	r8, r2
10008bf6:	4662      	mov	r2, ip
10008bf8:	4441      	add	r1, r8
10008bfa:	6251      	str	r1, [r2, #36]	@ 0x24
10008bfc:	e7c0      	b.n	10008b80 <dcd_edpt_open+0x68>
10008bfe:	f7fc fd85 	bl	1000570c <hard_assertion_failure>
10008c02:	e7d3      	b.n	10008bac <dcd_edpt_open+0x94>
10008c04:	20001e70 	.word	0x20001e70
10008c08:	50100084 	.word	0x50100084
10008c0c:	50100004 	.word	0x50100004
10008c10:	2003f278 	.word	0x2003f278
10008c14:	50100000 	.word	0x50100000
10008c18:	50100080 	.word	0x50100080
10008c1c:	50100100 	.word	0x50100100

10008c20 <dcd_edpt_close_all>:
10008c20:	b510      	push	{r4, lr}
10008c22:	f002 f8f9 	bl	1000ae18 <__reset_non_control_endpoints_veneer>
10008c26:	bd10      	pop	{r4, pc}

10008c28 <dcd_edpt_xfer>:
10008c28:	b510      	push	{r4, lr}
10008c2a:	207f      	movs	r0, #127	@ 0x7f
10008c2c:	000c      	movs	r4, r1
10008c2e:	4020      	ands	r0, r4
10008c30:	0040      	lsls	r0, r0, #1
10008c32:	09e4      	lsrs	r4, r4, #7
10008c34:	0011      	movs	r1, r2
10008c36:	1900      	adds	r0, r0, r4
10008c38:	001a      	movs	r2, r3
10008c3a:	4b03      	ldr	r3, [pc, #12]	@ (10008c48 <dcd_edpt_xfer+0x20>)
10008c3c:	0140      	lsls	r0, r0, #5
10008c3e:	18c0      	adds	r0, r0, r3
10008c40:	f000 f85c 	bl	10008cfc <hw_endpoint_xfer_start>
10008c44:	2001      	movs	r0, #1
10008c46:	bd10      	pop	{r4, pc}
10008c48:	20001e70 	.word	0x20001e70

10008c4c <dcd_edpt_stall>:
10008c4c:	237f      	movs	r3, #127	@ 0x7f
10008c4e:	0018      	movs	r0, r3
10008c50:	b510      	push	{r4, lr}
10008c52:	4008      	ands	r0, r1
10008c54:	09ca      	lsrs	r2, r1, #7
10008c56:	420b      	tst	r3, r1
10008c58:	d103      	bne.n	10008c62 <dcd_edpt_stall+0x16>
10008c5a:	4907      	ldr	r1, [pc, #28]	@ (10008c78 <dcd_edpt_stall+0x2c>)
10008c5c:	3b7d      	subs	r3, #125	@ 0x7d
10008c5e:	1a9b      	subs	r3, r3, r2
10008c60:	668b      	str	r3, [r1, #104]	@ 0x68
10008c62:	0040      	lsls	r0, r0, #1
10008c64:	1880      	adds	r0, r0, r2
10008c66:	2280      	movs	r2, #128	@ 0x80
10008c68:	4b04      	ldr	r3, [pc, #16]	@ (10008c7c <dcd_edpt_stall+0x30>)
10008c6a:	0140      	lsls	r0, r0, #5
10008c6c:	2100      	movs	r1, #0
10008c6e:	18c0      	adds	r0, r0, r3
10008c70:	0112      	lsls	r2, r2, #4
10008c72:	f002 f931 	bl	1000aed8 <___hw_endpoint_buffer_control_update32_veneer>
10008c76:	bd10      	pop	{r4, pc}
10008c78:	50112000 	.word	0x50112000
10008c7c:	20001e70 	.word	0x20001e70

10008c80 <dcd_edpt_clear_stall>:
10008c80:	227f      	movs	r2, #127	@ 0x7f
10008c82:	0013      	movs	r3, r2
10008c84:	b510      	push	{r4, lr}
10008c86:	400b      	ands	r3, r1
10008c88:	420a      	tst	r2, r1
10008c8a:	d100      	bne.n	10008c8e <dcd_edpt_clear_stall+0xe>
10008c8c:	bd10      	pop	{r4, pc}
10008c8e:	09c9      	lsrs	r1, r1, #7
10008c90:	005b      	lsls	r3, r3, #1
10008c92:	185b      	adds	r3, r3, r1
10008c94:	4804      	ldr	r0, [pc, #16]	@ (10008ca8 <dcd_edpt_clear_stall+0x28>)
10008c96:	015b      	lsls	r3, r3, #5
10008c98:	18c0      	adds	r0, r0, r3
10008c9a:	2300      	movs	r3, #0
10008c9c:	2200      	movs	r2, #0
10008c9e:	4903      	ldr	r1, [pc, #12]	@ (10008cac <dcd_edpt_clear_stall+0x2c>)
10008ca0:	70c3      	strb	r3, [r0, #3]
10008ca2:	f002 f919 	bl	1000aed8 <___hw_endpoint_buffer_control_update32_veneer>
10008ca6:	e7f1      	b.n	10008c8c <dcd_edpt_clear_stall+0xc>
10008ca8:	20001e70 	.word	0x20001e70
10008cac:	fffff7ff 	.word	0xfffff7ff

10008cb0 <rp2040_usb_init>:
10008cb0:	2280      	movs	r2, #128	@ 0x80
10008cb2:	4b0d      	ldr	r3, [pc, #52]	@ (10008ce8 <rp2040_usb_init+0x38>)
10008cb4:	0452      	lsls	r2, r2, #17
10008cb6:	b510      	push	{r4, lr}
10008cb8:	601a      	str	r2, [r3, #0]
10008cba:	4b0c      	ldr	r3, [pc, #48]	@ (10008cec <rp2040_usb_init+0x3c>)
10008cbc:	490c      	ldr	r1, [pc, #48]	@ (10008cf0 <rp2040_usb_init+0x40>)
10008cbe:	601a      	str	r2, [r3, #0]
10008cc0:	0010      	movs	r0, r2
10008cc2:	688b      	ldr	r3, [r1, #8]
10008cc4:	4398      	bics	r0, r3
10008cc6:	d1fb      	bne.n	10008cc0 <rp2040_usb_init+0x10>
10008cc8:	4c0a      	ldr	r4, [pc, #40]	@ (10008cf4 <rp2040_usb_init+0x44>)
10008cca:	229c      	movs	r2, #156	@ 0x9c
10008ccc:	2100      	movs	r1, #0
10008cce:	0020      	movs	r0, r4
10008cd0:	f7ff f914 	bl	10007efc <__wrap_memset>
10008cd4:	2280      	movs	r2, #128	@ 0x80
10008cd6:	2100      	movs	r1, #0
10008cd8:	0152      	lsls	r2, r2, #5
10008cda:	4807      	ldr	r0, [pc, #28]	@ (10008cf8 <rp2040_usb_init+0x48>)
10008cdc:	f7ff f90e 	bl	10007efc <__wrap_memset>
10008ce0:	2309      	movs	r3, #9
10008ce2:	6763      	str	r3, [r4, #116]	@ 0x74
10008ce4:	bd10      	pop	{r4, pc}
10008ce6:	46c0      	nop			@ (mov r8, r8)
10008ce8:	4000e000 	.word	0x4000e000
10008cec:	4000f000 	.word	0x4000f000
10008cf0:	4000c000 	.word	0x4000c000
10008cf4:	50110000 	.word	0x50110000
10008cf8:	50100000 	.word	0x50100000

10008cfc <hw_endpoint_xfer_start>:
10008cfc:	2300      	movs	r3, #0
10008cfe:	b510      	push	{r4, lr}
10008d00:	82c3      	strh	r3, [r0, #22]
10008d02:	3301      	adds	r3, #1
10008d04:	8282      	strh	r2, [r0, #20]
10008d06:	7683      	strb	r3, [r0, #26]
10008d08:	6101      	str	r1, [r0, #16]
10008d0a:	0004      	movs	r4, r0
10008d0c:	f002 f894 	bl	1000ae38 <__e15_is_bulkin_ep_veneer>
10008d10:	2800      	cmp	r0, #0
10008d12:	d004      	beq.n	10008d1e <hw_endpoint_xfer_start+0x22>
10008d14:	2180      	movs	r1, #128	@ 0x80
10008d16:	2390      	movs	r3, #144	@ 0x90
10008d18:	4a07      	ldr	r2, [pc, #28]	@ (10008d38 <hw_endpoint_xfer_start+0x3c>)
10008d1a:	0289      	lsls	r1, r1, #10
10008d1c:	50d1      	str	r1, [r2, r3]
10008d1e:	0020      	movs	r0, r4
10008d20:	f002 f8c2 	bl	1000aea8 <__e15_is_critical_frame_period_veneer>
10008d24:	2800      	cmp	r0, #0
10008d26:	d002      	beq.n	10008d2e <hw_endpoint_xfer_start+0x32>
10008d28:	2301      	movs	r3, #1
10008d2a:	7723      	strb	r3, [r4, #28]
10008d2c:	bd10      	pop	{r4, pc}
10008d2e:	0020      	movs	r0, r4
10008d30:	f002 f8ca 	bl	1000aec8 <__hw_endpoint_start_next_buffer_veneer>
10008d34:	e7fa      	b.n	10008d2c <hw_endpoint_xfer_start+0x30>
10008d36:	46c0      	nop			@ (mov r8, r8)
10008d38:	50112000 	.word	0x50112000

10008d3c <tud_mounted>:
10008d3c:	4b02      	ldr	r3, [pc, #8]	@ (10008d48 <tud_mounted+0xc>)
10008d3e:	7858      	ldrb	r0, [r3, #1]
10008d40:	1e43      	subs	r3, r0, #1
10008d42:	4198      	sbcs	r0, r3
10008d44:	b2c0      	uxtb	r0, r0
10008d46:	4770      	bx	lr
10008d48:	20001bbc 	.word	0x20001bbc

10008d4c <tud_suspended>:
10008d4c:	4b02      	ldr	r3, [pc, #8]	@ (10008d58 <tud_suspended+0xc>)
10008d4e:	7818      	ldrb	r0, [r3, #0]
10008d50:	0740      	lsls	r0, r0, #29
10008d52:	0fc0      	lsrs	r0, r0, #31
10008d54:	4770      	bx	lr
10008d56:	46c0      	nop			@ (mov r8, r8)
10008d58:	20001bbc 	.word	0x20001bbc

10008d5c <tud_inited>:
10008d5c:	4b03      	ldr	r3, [pc, #12]	@ (10008d6c <tud_inited+0x10>)
10008d5e:	7818      	ldrb	r0, [r3, #0]
10008d60:	38ff      	subs	r0, #255	@ 0xff
10008d62:	1e43      	subs	r3, r0, #1
10008d64:	4198      	sbcs	r0, r3
10008d66:	b2c0      	uxtb	r0, r0
10008d68:	4770      	bx	lr
10008d6a:	46c0      	nop			@ (mov r8, r8)
10008d6c:	200010cc 	.word	0x200010cc

10008d70 <tud_init>:
10008d70:	b5f0      	push	{r4, r5, r6, r7, lr}
10008d72:	46c6      	mov	lr, r8
10008d74:	b500      	push	{lr}
10008d76:	4e2a      	ldr	r6, [pc, #168]	@ (10008e20 <tud_init+0xb0>)
10008d78:	0005      	movs	r5, r0
10008d7a:	7833      	ldrb	r3, [r6, #0]
10008d7c:	2bff      	cmp	r3, #255	@ 0xff
10008d7e:	d001      	beq.n	10008d84 <tud_init+0x14>
10008d80:	2001      	movs	r0, #1
10008d82:	e03f      	b.n	10008e04 <tud_init+0x94>
10008d84:	2253      	movs	r2, #83	@ 0x53
10008d86:	2100      	movs	r1, #0
10008d88:	4826      	ldr	r0, [pc, #152]	@ (10008e24 <tud_init+0xb4>)
10008d8a:	f7ff f8b7 	bl	10007efc <__wrap_memset>
10008d8e:	4c26      	ldr	r4, [pc, #152]	@ (10008e28 <tud_init+0xb8>)
10008d90:	0020      	movs	r0, r4
10008d92:	f7fb fa3b 	bl	1000420c <mutex_init>
10008d96:	4b25      	ldr	r3, [pc, #148]	@ (10008e2c <tud_init+0xbc>)
10008d98:	601c      	str	r4, [r3, #0]
10008d9a:	4c25      	ldr	r4, [pc, #148]	@ (10008e30 <tud_init+0xc0>)
10008d9c:	0020      	movs	r0, r4
10008d9e:	3c14      	subs	r4, #20
10008da0:	f7fb fa50 	bl	10004244 <critical_section_init>
10008da4:	0020      	movs	r0, r4
10008da6:	f001 fbe5 	bl	1000a574 <tu_fifo_clear>
10008daa:	4b22      	ldr	r3, [pc, #136]	@ (10008e34 <tud_init+0xc4>)
10008dac:	4f22      	ldr	r7, [pc, #136]	@ (10008e38 <tud_init+0xc8>)
10008dae:	601c      	str	r4, [r3, #0]
10008db0:	4b22      	ldr	r3, [pc, #136]	@ (10008e3c <tud_init+0xcc>)
10008db2:	4698      	mov	r8, r3
10008db4:	2b00      	cmp	r3, #0
10008db6:	d01d      	beq.n	10008df4 <tud_init+0x84>
10008db8:	0038      	movs	r0, r7
10008dba:	f7ff fb01 	bl	100083c0 <usbd_app_driver_get_cb>
10008dbe:	4b20      	ldr	r3, [pc, #128]	@ (10008e40 <tud_init+0xd0>)
10008dc0:	6018      	str	r0, [r3, #0]
10008dc2:	783b      	ldrb	r3, [r7, #0]
10008dc4:	4642      	mov	r2, r8
10008dc6:	2400      	movs	r4, #0
10008dc8:	2a00      	cmp	r2, #0
10008dca:	d015      	beq.n	10008df8 <tud_init+0x88>
10008dcc:	4a1d      	ldr	r2, [pc, #116]	@ (10008e44 <tud_init+0xd4>)
10008dce:	4690      	mov	r8, r2
10008dd0:	4642      	mov	r2, r8
10008dd2:	429c      	cmp	r4, r3
10008dd4:	d319      	bcc.n	10008e0a <tud_init+0x9a>
10008dd6:	4790      	blx	r2
10008dd8:	3401      	adds	r4, #1
10008dda:	783b      	ldrb	r3, [r7, #0]
10008ddc:	b2e4      	uxtb	r4, r4
10008dde:	42a3      	cmp	r3, r4
10008de0:	d2f6      	bcs.n	10008dd0 <tud_init+0x60>
10008de2:	0028      	movs	r0, r5
10008de4:	7035      	strb	r5, [r6, #0]
10008de6:	f7ff fe3d 	bl	10008a64 <dcd_init>
10008dea:	0028      	movs	r0, r5
10008dec:	f7ff fe22 	bl	10008a34 <dcd_int_enable>
10008df0:	2001      	movs	r0, #1
10008df2:	e007      	b.n	10008e04 <tud_init+0x94>
10008df4:	783b      	ldrb	r3, [r7, #0]
10008df6:	e7e5      	b.n	10008dc4 <tud_init+0x54>
10008df8:	f000 ff14 	bl	10009c24 <cdcd_init>
10008dfc:	783b      	ldrb	r3, [r7, #0]
10008dfe:	2b00      	cmp	r3, #0
10008e00:	d0ef      	beq.n	10008de2 <tud_init+0x72>
10008e02:	2000      	movs	r0, #0
10008e04:	bc80      	pop	{r7}
10008e06:	46b8      	mov	r8, r7
10008e08:	bdf0      	pop	{r4, r5, r6, r7, pc}
10008e0a:	4a0d      	ldr	r2, [pc, #52]	@ (10008e40 <tud_init+0xd0>)
10008e0c:	0063      	lsls	r3, r4, #1
10008e0e:	6812      	ldr	r2, [r2, #0]
10008e10:	191b      	adds	r3, r3, r4
10008e12:	00db      	lsls	r3, r3, #3
10008e14:	18d3      	adds	r3, r2, r3
10008e16:	2b00      	cmp	r3, #0
10008e18:	d0f3      	beq.n	10008e02 <tud_init+0x92>
10008e1a:	681a      	ldr	r2, [r3, #0]
10008e1c:	e7db      	b.n	10008dd6 <tud_init+0x66>
10008e1e:	46c0      	nop			@ (mov r8, r8)
10008e20:	200010cc 	.word	0x200010cc
10008e24:	20001bbc 	.word	0x20001bbc
10008e28:	20001b74 	.word	0x20001b74
10008e2c:	20001c10 	.word	0x20001c10
10008e30:	200010c4 	.word	0x200010c4
10008e34:	20001c14 	.word	0x20001c14
10008e38:	2003f3ee 	.word	0x2003f3ee
10008e3c:	100083c1 	.word	0x100083c1
10008e40:	20001894 	.word	0x20001894
10008e44:	10009c25 	.word	0x10009c25

10008e48 <tud_task_ext>:
10008e48:	b5f0      	push	{r4, r5, r6, r7, lr}
10008e4a:	46de      	mov	lr, fp
10008e4c:	4657      	mov	r7, sl
10008e4e:	464e      	mov	r6, r9
10008e50:	4645      	mov	r5, r8
10008e52:	b5e0      	push	{r5, r6, r7, lr}
10008e54:	b091      	sub	sp, #68	@ 0x44
10008e56:	f001 f8c1 	bl	10009fdc <tusb_inited>
10008e5a:	2800      	cmp	r0, #0
10008e5c:	d100      	bne.n	10008e60 <tud_task_ext+0x18>
10008e5e:	e115      	b.n	1000908c <tud_task_ext+0x244>
10008e60:	4bca      	ldr	r3, [pc, #808]	@ (1000918c <tud_task_ext+0x344>)
10008e62:	4ecb      	ldr	r6, [pc, #812]	@ (10009190 <tud_task_ext+0x348>)
10008e64:	9301      	str	r3, [sp, #4]
10008e66:	4bcb      	ldr	r3, [pc, #812]	@ (10009194 <tud_task_ext+0x34c>)
10008e68:	ac0d      	add	r4, sp, #52	@ 0x34
10008e6a:	9302      	str	r3, [sp, #8]
10008e6c:	4bca      	ldr	r3, [pc, #808]	@ (10009198 <tud_task_ext+0x350>)
10008e6e:	469b      	mov	fp, r3
10008e70:	6835      	ldr	r5, [r6, #0]
10008e72:	696a      	ldr	r2, [r5, #20]
10008e74:	f3ef 8110 	mrs	r1, PRIMASK
10008e78:	b672      	cpsid	i
10008e7a:	6813      	ldr	r3, [r2, #0]
10008e7c:	2b00      	cmp	r3, #0
10008e7e:	d0fc      	beq.n	10008e7a <tud_task_ext+0x32>
10008e80:	f3bf 8f5f 	dmb	sy
10008e84:	61a9      	str	r1, [r5, #24]
10008e86:	0028      	movs	r0, r5
10008e88:	0021      	movs	r1, r4
10008e8a:	f001 f9b1 	bl	1000a1f0 <tu_fifo_read>
10008e8e:	696a      	ldr	r2, [r5, #20]
10008e90:	69ab      	ldr	r3, [r5, #24]
10008e92:	f3bf 8f5f 	dmb	sy
10008e96:	2100      	movs	r1, #0
10008e98:	6011      	str	r1, [r2, #0]
10008e9a:	f383 8810 	msr	PRIMASK, r3
10008e9e:	2800      	cmp	r0, #0
10008ea0:	d100      	bne.n	10008ea4 <tud_task_ext+0x5c>
10008ea2:	e0f3      	b.n	1000908c <tud_task_ext+0x244>
10008ea4:	7863      	ldrb	r3, [r4, #1]
10008ea6:	2b08      	cmp	r3, #8
10008ea8:	d8e2      	bhi.n	10008e70 <tud_task_ext+0x28>
10008eaa:	9a01      	ldr	r2, [sp, #4]
10008eac:	009b      	lsls	r3, r3, #2
10008eae:	58d3      	ldr	r3, [r2, r3]
10008eb0:	469f      	mov	pc, r3
10008eb2:	6863      	ldr	r3, [r4, #4]
10008eb4:	2b00      	cmp	r3, #0
10008eb6:	d0db      	beq.n	10008e70 <tud_task_ext+0x28>
10008eb8:	68a0      	ldr	r0, [r4, #8]
10008eba:	4798      	blx	r3
10008ebc:	e7d8      	b.n	10008e70 <tud_task_ext+0x28>
10008ebe:	227f      	movs	r2, #127	@ 0x7f
10008ec0:	7921      	ldrb	r1, [r4, #4]
10008ec2:	4db4      	ldr	r5, [pc, #720]	@ (10009194 <tud_task_ext+0x34c>)
10008ec4:	400a      	ands	r2, r1
10008ec6:	0053      	lsls	r3, r2, #1
10008ec8:	09c8      	lsrs	r0, r1, #7
10008eca:	18eb      	adds	r3, r5, r3
10008ecc:	181b      	adds	r3, r3, r0
10008ece:	0018      	movs	r0, r3
10008ed0:	2701      	movs	r7, #1
10008ed2:	3030      	adds	r0, #48	@ 0x30
10008ed4:	78c5      	ldrb	r5, [r0, #3]
10008ed6:	43bd      	bics	r5, r7
10008ed8:	70c5      	strb	r5, [r0, #3]
10008eda:	78c5      	ldrb	r5, [r0, #3]
10008edc:	3703      	adds	r7, #3
10008ede:	43bd      	bics	r5, r7
10008ee0:	70c5      	strb	r5, [r0, #3]
10008ee2:	2a00      	cmp	r2, #0
10008ee4:	d100      	bne.n	10008ee8 <tud_task_ext+0xa0>
10008ee6:	e0ee      	b.n	100090c6 <tud_task_ext+0x27e>
10008ee8:	4aac      	ldr	r2, [pc, #688]	@ (1000919c <tud_task_ext+0x354>)
10008eea:	7cdb      	ldrb	r3, [r3, #19]
10008eec:	2a00      	cmp	r2, #0
10008eee:	d006      	beq.n	10008efe <tud_task_ext+0xb6>
10008ef0:	4aab      	ldr	r2, [pc, #684]	@ (100091a0 <tud_task_ext+0x358>)
10008ef2:	7812      	ldrb	r2, [r2, #0]
10008ef4:	4293      	cmp	r3, r2
10008ef6:	d200      	bcs.n	10008efa <tud_task_ext+0xb2>
10008ef8:	e164      	b.n	100091c4 <tud_task_ext+0x37c>
10008efa:	1a9b      	subs	r3, r3, r2
10008efc:	b2db      	uxtb	r3, r3
10008efe:	2b00      	cmp	r3, #0
10008f00:	d000      	beq.n	10008f04 <tud_task_ext+0xbc>
10008f02:	e0c3      	b.n	1000908c <tud_task_ext+0x244>
10008f04:	4da7      	ldr	r5, [pc, #668]	@ (100091a4 <tud_task_ext+0x35c>)
10008f06:	68a3      	ldr	r3, [r4, #8]
10008f08:	7962      	ldrb	r2, [r4, #5]
10008f0a:	7820      	ldrb	r0, [r4, #0]
10008f0c:	47a8      	blx	r5
10008f0e:	e7af      	b.n	10008e70 <tud_task_ext+0x28>
10008f10:	2201      	movs	r2, #1
10008f12:	4da0      	ldr	r5, [pc, #640]	@ (10009194 <tud_task_ext+0x34c>)
10008f14:	2101      	movs	r1, #1
10008f16:	782b      	ldrb	r3, [r5, #0]
10008f18:	2004      	movs	r0, #4
10008f1a:	4313      	orrs	r3, r2
10008f1c:	702b      	strb	r3, [r5, #0]
10008f1e:	2333      	movs	r3, #51	@ 0x33
10008f20:	5cea      	ldrb	r2, [r5, r3]
10008f22:	438a      	bics	r2, r1
10008f24:	54ea      	strb	r2, [r5, r3]
10008f26:	5cea      	ldrb	r2, [r5, r3]
10008f28:	4382      	bics	r2, r0
10008f2a:	54ea      	strb	r2, [r5, r3]
10008f2c:	3301      	adds	r3, #1
10008f2e:	5cea      	ldrb	r2, [r5, r3]
10008f30:	438a      	bics	r2, r1
10008f32:	54ea      	strb	r2, [r5, r3]
10008f34:	5cea      	ldrb	r2, [r5, r3]
10008f36:	4382      	bics	r2, r0
10008f38:	54ea      	strb	r2, [r5, r3]
10008f3a:	7823      	ldrb	r3, [r4, #0]
10008f3c:	2000      	movs	r0, #0
10008f3e:	469a      	mov	sl, r3
10008f40:	f000 fd24 	bl	1000998c <usbd_control_set_complete_callback>
10008f44:	2260      	movs	r2, #96	@ 0x60
10008f46:	7923      	ldrb	r3, [r4, #4]
10008f48:	401a      	ands	r2, r3
10008f4a:	2a60      	cmp	r2, #96	@ 0x60
10008f4c:	d00d      	beq.n	10008f6a <tud_task_ext+0x122>
10008f4e:	2a40      	cmp	r2, #64	@ 0x40
10008f50:	d100      	bne.n	10008f54 <tud_task_ext+0x10c>
10008f52:	e0be      	b.n	100090d2 <tud_task_ext+0x28a>
10008f54:	06db      	lsls	r3, r3, #27
10008f56:	0edb      	lsrs	r3, r3, #27
10008f58:	2b01      	cmp	r3, #1
10008f5a:	d100      	bne.n	10008f5e <tud_task_ext+0x116>
10008f5c:	e13d      	b.n	100091da <tud_task_ext+0x392>
10008f5e:	2b02      	cmp	r3, #2
10008f60:	d100      	bne.n	10008f64 <tud_task_ext+0x11c>
10008f62:	e0d3      	b.n	1000910c <tud_task_ext+0x2c4>
10008f64:	2b00      	cmp	r3, #0
10008f66:	d100      	bne.n	10008f6a <tud_task_ext+0x122>
10008f68:	e0c2      	b.n	100090f0 <tud_task_ext+0x2a8>
10008f6a:	7820      	ldrb	r0, [r4, #0]
10008f6c:	2100      	movs	r1, #0
10008f6e:	f7ff fe6d 	bl	10008c4c <dcd_edpt_stall>
10008f72:	2180      	movs	r1, #128	@ 0x80
10008f74:	7820      	ldrb	r0, [r4, #0]
10008f76:	f7ff fe69 	bl	10008c4c <dcd_edpt_stall>
10008f7a:	e779      	b.n	10008e70 <tud_task_ext+0x28>
10008f7c:	9b02      	ldr	r3, [sp, #8]
10008f7e:	781b      	ldrb	r3, [r3, #0]
10008f80:	07db      	lsls	r3, r3, #31
10008f82:	d400      	bmi.n	10008f86 <tud_task_ext+0x13e>
10008f84:	e774      	b.n	10008e70 <tud_task_ext+0x28>
10008f86:	4b88      	ldr	r3, [pc, #544]	@ (100091a8 <tud_task_ext+0x360>)
10008f88:	2b00      	cmp	r3, #0
10008f8a:	d100      	bne.n	10008f8e <tud_task_ext+0x146>
10008f8c:	e770      	b.n	10008e70 <tud_task_ext+0x28>
10008f8e:	e000      	b.n	10008f92 <tud_task_ext+0x14a>
10008f90:	bf00      	nop
10008f92:	e76d      	b.n	10008e70 <tud_task_ext+0x28>
10008f94:	4d7f      	ldr	r5, [pc, #508]	@ (10009194 <tud_task_ext+0x34c>)
10008f96:	782b      	ldrb	r3, [r5, #0]
10008f98:	07db      	lsls	r3, r3, #31
10008f9a:	d400      	bmi.n	10008f9e <tud_task_ext+0x156>
10008f9c:	e768      	b.n	10008e70 <tud_task_ext+0x28>
10008f9e:	4b83      	ldr	r3, [pc, #524]	@ (100091ac <tud_task_ext+0x364>)
10008fa0:	2b00      	cmp	r3, #0
10008fa2:	d100      	bne.n	10008fa6 <tud_task_ext+0x15e>
10008fa4:	e764      	b.n	10008e70 <tud_task_ext+0x28>
10008fa6:	7828      	ldrb	r0, [r5, #0]
10008fa8:	0700      	lsls	r0, r0, #28
10008faa:	0fc0      	lsrs	r0, r0, #31
10008fac:	e000      	b.n	10008fb0 <tud_task_ext+0x168>
10008fae:	bf00      	nop
10008fb0:	e75e      	b.n	10008e70 <tud_task_ext+0x28>
10008fb2:	7823      	ldrb	r3, [r4, #0]
10008fb4:	4f7a      	ldr	r7, [pc, #488]	@ (100091a0 <tud_task_ext+0x358>)
10008fb6:	4a79      	ldr	r2, [pc, #484]	@ (1000919c <tud_task_ext+0x354>)
10008fb8:	4698      	mov	r8, r3
10008fba:	2500      	movs	r5, #0
10008fbc:	783b      	ldrb	r3, [r7, #0]
10008fbe:	2a00      	cmp	r2, #0
10008fc0:	d049      	beq.n	10009056 <tud_task_ext+0x20e>
10008fc2:	46b1      	mov	r9, r6
10008fc4:	003e      	movs	r6, r7
10008fc6:	465f      	mov	r7, fp
10008fc8:	003a      	movs	r2, r7
10008fca:	429d      	cmp	r5, r3
10008fcc:	d365      	bcc.n	1000909a <tud_task_ext+0x252>
10008fce:	4640      	mov	r0, r8
10008fd0:	4790      	blx	r2
10008fd2:	3501      	adds	r5, #1
10008fd4:	7833      	ldrb	r3, [r6, #0]
10008fd6:	b2ed      	uxtb	r5, r5
10008fd8:	42ab      	cmp	r3, r5
10008fda:	d2f5      	bcs.n	10008fc8 <tud_task_ext+0x180>
10008fdc:	464e      	mov	r6, r9
10008fde:	46bb      	mov	fp, r7
10008fe0:	4d6c      	ldr	r5, [pc, #432]	@ (10009194 <tud_task_ext+0x34c>)
10008fe2:	2253      	movs	r2, #83	@ 0x53
10008fe4:	2100      	movs	r1, #0
10008fe6:	0028      	movs	r0, r5
10008fe8:	f7fe ff88 	bl	10007efc <__wrap_memset>
10008fec:	2210      	movs	r2, #16
10008fee:	21ff      	movs	r1, #255	@ 0xff
10008ff0:	1ce8      	adds	r0, r5, #3
10008ff2:	f7fe ff83 	bl	10007efc <__wrap_memset>
10008ff6:	0028      	movs	r0, r5
10008ff8:	2220      	movs	r2, #32
10008ffa:	21ff      	movs	r1, #255	@ 0xff
10008ffc:	3013      	adds	r0, #19
10008ffe:	f7fe ff7d 	bl	10007efc <__wrap_memset>
10009002:	e02e      	b.n	10009062 <tud_task_ext+0x21a>
10009004:	7823      	ldrb	r3, [r4, #0]
10009006:	4f66      	ldr	r7, [pc, #408]	@ (100091a0 <tud_task_ext+0x358>)
10009008:	4a64      	ldr	r2, [pc, #400]	@ (1000919c <tud_task_ext+0x354>)
1000900a:	4698      	mov	r8, r3
1000900c:	2500      	movs	r5, #0
1000900e:	783b      	ldrb	r3, [r7, #0]
10009010:	2a00      	cmp	r2, #0
10009012:	d02f      	beq.n	10009074 <tud_task_ext+0x22c>
10009014:	46b1      	mov	r9, r6
10009016:	003e      	movs	r6, r7
10009018:	465f      	mov	r7, fp
1000901a:	003a      	movs	r2, r7
1000901c:	42ab      	cmp	r3, r5
1000901e:	d847      	bhi.n	100090b0 <tud_task_ext+0x268>
10009020:	4640      	mov	r0, r8
10009022:	4790      	blx	r2
10009024:	3501      	adds	r5, #1
10009026:	7833      	ldrb	r3, [r6, #0]
10009028:	b2ed      	uxtb	r5, r5
1000902a:	42ab      	cmp	r3, r5
1000902c:	d2f5      	bcs.n	1000901a <tud_task_ext+0x1d2>
1000902e:	464e      	mov	r6, r9
10009030:	46bb      	mov	fp, r7
10009032:	4d58      	ldr	r5, [pc, #352]	@ (10009194 <tud_task_ext+0x34c>)
10009034:	2253      	movs	r2, #83	@ 0x53
10009036:	2100      	movs	r1, #0
10009038:	0028      	movs	r0, r5
1000903a:	f7fe ff5f 	bl	10007efc <__wrap_memset>
1000903e:	2210      	movs	r2, #16
10009040:	21ff      	movs	r1, #255	@ 0xff
10009042:	1ce8      	adds	r0, r5, #3
10009044:	f7fe ff5a 	bl	10007efc <__wrap_memset>
10009048:	0028      	movs	r0, r5
1000904a:	2220      	movs	r2, #32
1000904c:	21ff      	movs	r1, #255	@ 0xff
1000904e:	3013      	adds	r0, #19
10009050:	f7fe ff54 	bl	10007efc <__wrap_memset>
10009054:	e015      	b.n	10009082 <tud_task_ext+0x23a>
10009056:	4640      	mov	r0, r8
10009058:	f000 fe22 	bl	10009ca0 <cdcd_reset>
1000905c:	783b      	ldrb	r3, [r7, #0]
1000905e:	2b00      	cmp	r3, #0
10009060:	d0be      	beq.n	10008fe0 <tud_task_ext+0x198>
10009062:	f000 fc89 	bl	10009978 <usbd_control_reset>
10009066:	4b52      	ldr	r3, [pc, #328]	@ (100091b0 <tud_task_ext+0x368>)
10009068:	2b00      	cmp	r3, #0
1000906a:	d100      	bne.n	1000906e <tud_task_ext+0x226>
1000906c:	e700      	b.n	10008e70 <tud_task_ext+0x28>
1000906e:	e000      	b.n	10009072 <tud_task_ext+0x22a>
10009070:	bf00      	nop
10009072:	e6fd      	b.n	10008e70 <tud_task_ext+0x28>
10009074:	4640      	mov	r0, r8
10009076:	f000 fe13 	bl	10009ca0 <cdcd_reset>
1000907a:	783b      	ldrb	r3, [r7, #0]
1000907c:	2b00      	cmp	r3, #0
1000907e:	d0d8      	beq.n	10009032 <tud_task_ext+0x1ea>
10009080:	4d44      	ldr	r5, [pc, #272]	@ (10009194 <tud_task_ext+0x34c>)
10009082:	f000 fc79 	bl	10009978 <usbd_control_reset>
10009086:	7923      	ldrb	r3, [r4, #4]
10009088:	70ab      	strb	r3, [r5, #2]
1000908a:	e6f1      	b.n	10008e70 <tud_task_ext+0x28>
1000908c:	b011      	add	sp, #68	@ 0x44
1000908e:	bcf0      	pop	{r4, r5, r6, r7}
10009090:	46bb      	mov	fp, r7
10009092:	46b2      	mov	sl, r6
10009094:	46a9      	mov	r9, r5
10009096:	46a0      	mov	r8, r4
10009098:	bdf0      	pop	{r4, r5, r6, r7, pc}
1000909a:	4a46      	ldr	r2, [pc, #280]	@ (100091b4 <tud_task_ext+0x36c>)
1000909c:	006b      	lsls	r3, r5, #1
1000909e:	6812      	ldr	r2, [r2, #0]
100090a0:	195b      	adds	r3, r3, r5
100090a2:	00db      	lsls	r3, r3, #3
100090a4:	18d3      	adds	r3, r2, r3
100090a6:	2b00      	cmp	r3, #0
100090a8:	d100      	bne.n	100090ac <tud_task_ext+0x264>
100090aa:	e1ae      	b.n	1000940a <tud_task_ext+0x5c2>
100090ac:	685a      	ldr	r2, [r3, #4]
100090ae:	e78e      	b.n	10008fce <tud_task_ext+0x186>
100090b0:	4a40      	ldr	r2, [pc, #256]	@ (100091b4 <tud_task_ext+0x36c>)
100090b2:	006b      	lsls	r3, r5, #1
100090b4:	6812      	ldr	r2, [r2, #0]
100090b6:	195b      	adds	r3, r3, r5
100090b8:	00db      	lsls	r3, r3, #3
100090ba:	18d3      	adds	r3, r2, r3
100090bc:	2b00      	cmp	r3, #0
100090be:	d100      	bne.n	100090c2 <tud_task_ext+0x27a>
100090c0:	e1a6      	b.n	10009410 <tud_task_ext+0x5c8>
100090c2:	685a      	ldr	r2, [r3, #4]
100090c4:	e7ac      	b.n	10009020 <tud_task_ext+0x1d8>
100090c6:	68a3      	ldr	r3, [r4, #8]
100090c8:	7962      	ldrb	r2, [r4, #5]
100090ca:	7820      	ldrb	r0, [r4, #0]
100090cc:	f000 fc72 	bl	100099b4 <usbd_control_xfer_cb>
100090d0:	e6ce      	b.n	10008e70 <tud_task_ext+0x28>
100090d2:	4839      	ldr	r0, [pc, #228]	@ (100091b8 <tud_task_ext+0x370>)
100090d4:	2800      	cmp	r0, #0
100090d6:	d100      	bne.n	100090da <tud_task_ext+0x292>
100090d8:	e747      	b.n	10008f6a <tud_task_ext+0x122>
100090da:	f000 fc57 	bl	1000998c <usbd_control_set_complete_callback>
100090de:	2101      	movs	r1, #1
100090e0:	4650      	mov	r0, sl
100090e2:	aa0e      	add	r2, sp, #56	@ 0x38
100090e4:	e000      	b.n	100090e8 <tud_task_ext+0x2a0>
100090e6:	bf00      	nop
100090e8:	2800      	cmp	r0, #0
100090ea:	d000      	beq.n	100090ee <tud_task_ext+0x2a6>
100090ec:	e6c0      	b.n	10008e70 <tud_task_ext+0x28>
100090ee:	e73c      	b.n	10008f6a <tud_task_ext+0x122>
100090f0:	2a20      	cmp	r2, #32
100090f2:	d100      	bne.n	100090f6 <tud_task_ext+0x2ae>
100090f4:	e0a6      	b.n	10009244 <tud_task_ext+0x3fc>
100090f6:	2a00      	cmp	r2, #0
100090f8:	d000      	beq.n	100090fc <tud_task_ext+0x2b4>
100090fa:	e736      	b.n	10008f6a <tud_task_ext+0x122>
100090fc:	7963      	ldrb	r3, [r4, #5]
100090fe:	2b09      	cmp	r3, #9
10009100:	d900      	bls.n	10009104 <tud_task_ext+0x2bc>
10009102:	e732      	b.n	10008f6a <tud_task_ext+0x122>
10009104:	4a2d      	ldr	r2, [pc, #180]	@ (100091bc <tud_task_ext+0x374>)
10009106:	009b      	lsls	r3, r3, #2
10009108:	58d3      	ldr	r3, [r2, r3]
1000910a:	469f      	mov	pc, r3
1000910c:	2370      	movs	r3, #112	@ 0x70
1000910e:	7a21      	ldrb	r1, [r4, #8]
10009110:	420b      	tst	r3, r1
10009112:	d000      	beq.n	10009116 <tud_task_ext+0x2ce>
10009114:	e729      	b.n	10008f6a <tud_task_ext+0x122>
10009116:	330f      	adds	r3, #15
10009118:	400b      	ands	r3, r1
1000911a:	005b      	lsls	r3, r3, #1
1000911c:	09cf      	lsrs	r7, r1, #7
1000911e:	18e8      	adds	r0, r5, r3
10009120:	19c0      	adds	r0, r0, r7
10009122:	7cc0      	ldrb	r0, [r0, #19]
10009124:	9303      	str	r3, [sp, #12]
10009126:	4684      	mov	ip, r0
10009128:	481c      	ldr	r0, [pc, #112]	@ (1000919c <tud_task_ext+0x354>)
1000912a:	2800      	cmp	r0, #0
1000912c:	d008      	beq.n	10009140 <tud_task_ext+0x2f8>
1000912e:	481c      	ldr	r0, [pc, #112]	@ (100091a0 <tud_task_ext+0x358>)
10009130:	7800      	ldrb	r0, [r0, #0]
10009132:	4584      	cmp	ip, r0
10009134:	d200      	bcs.n	10009138 <tud_task_ext+0x2f0>
10009136:	e0a8      	b.n	1000928a <tud_task_ext+0x442>
10009138:	4663      	mov	r3, ip
1000913a:	1a18      	subs	r0, r3, r0
1000913c:	b2c3      	uxtb	r3, r0
1000913e:	469c      	mov	ip, r3
10009140:	4660      	mov	r0, ip
10009142:	2800      	cmp	r0, #0
10009144:	d000      	beq.n	10009148 <tud_task_ext+0x300>
10009146:	e09a      	b.n	1000927e <tud_task_ext+0x436>
10009148:	2a00      	cmp	r2, #0
1000914a:	d000      	beq.n	1000914e <tud_task_ext+0x306>
1000914c:	e159      	b.n	10009402 <tud_task_ext+0x5ba>
1000914e:	4b1c      	ldr	r3, [pc, #112]	@ (100091c0 <tud_task_ext+0x378>)
10009150:	4698      	mov	r8, r3
10009152:	7963      	ldrb	r3, [r4, #5]
10009154:	001a      	movs	r2, r3
10009156:	4699      	mov	r9, r3
10009158:	2302      	movs	r3, #2
1000915a:	439a      	bics	r2, r3
1000915c:	2a01      	cmp	r2, #1
1000915e:	d100      	bne.n	10009162 <tud_task_ext+0x31a>
10009160:	e159      	b.n	10009416 <tud_task_ext+0x5ce>
10009162:	464b      	mov	r3, r9
10009164:	2b00      	cmp	r3, #0
10009166:	d000      	beq.n	1000916a <tud_task_ext+0x322>
10009168:	e6ff      	b.n	10008f6a <tud_task_ext+0x122>
1000916a:	9b03      	ldr	r3, [sp, #12]
1000916c:	aa0c      	add	r2, sp, #48	@ 0x30
1000916e:	18eb      	adds	r3, r5, r3
10009170:	19db      	adds	r3, r3, r7
10009172:	3330      	adds	r3, #48	@ 0x30
10009174:	78db      	ldrb	r3, [r3, #3]
10009176:	3202      	adds	r2, #2
10009178:	079b      	lsls	r3, r3, #30
1000917a:	0fdb      	lsrs	r3, r3, #31
1000917c:	8013      	strh	r3, [r2, #0]
1000917e:	4650      	mov	r0, sl
10009180:	2302      	movs	r3, #2
10009182:	a90e      	add	r1, sp, #56	@ 0x38
10009184:	f000 fba2 	bl	100098cc <tud_control_xfer>
10009188:	e672      	b.n	10008e70 <tud_task_ext+0x28>
1000918a:	46c0      	nop			@ (mov r8, r8)
1000918c:	1000b7a4 	.word	0x1000b7a4
10009190:	20001c14 	.word	0x20001c14
10009194:	20001bbc 	.word	0x20001bbc
10009198:	10009ca1 	.word	0x10009ca1
1000919c:	100083c1 	.word	0x100083c1
100091a0:	2003f3ee 	.word	0x2003f3ee
100091a4:	10009e95 	.word	0x10009e95
	...
100091b4:	20001894 	.word	0x20001894
100091b8:	00000000 	.word	0x00000000
100091bc:	1000b7c8 	.word	0x1000b7c8
100091c0:	1000b830 	.word	0x1000b830
100091c4:	4abf      	ldr	r2, [pc, #764]	@ (100094c4 <tud_task_ext+0x67c>)
100091c6:	0058      	lsls	r0, r3, #1
100091c8:	6812      	ldr	r2, [r2, #0]
100091ca:	18c3      	adds	r3, r0, r3
100091cc:	00db      	lsls	r3, r3, #3
100091ce:	18d3      	adds	r3, r2, r3
100091d0:	2b00      	cmp	r3, #0
100091d2:	d100      	bne.n	100091d6 <tud_task_ext+0x38e>
100091d4:	e75a      	b.n	1000908c <tud_task_ext+0x244>
100091d6:	691d      	ldr	r5, [r3, #16]
100091d8:	e695      	b.n	10008f06 <tud_task_ext+0xbe>
100091da:	7a23      	ldrb	r3, [r4, #8]
100091dc:	2b0f      	cmp	r3, #15
100091de:	d900      	bls.n	100091e2 <tud_task_ext+0x39a>
100091e0:	e6c3      	b.n	10008f6a <tud_task_ext+0x122>
100091e2:	4ab9      	ldr	r2, [pc, #740]	@ (100094c8 <tud_task_ext+0x680>)
100091e4:	18eb      	adds	r3, r5, r3
100091e6:	78db      	ldrb	r3, [r3, #3]
100091e8:	2a00      	cmp	r2, #0
100091ea:	d005      	beq.n	100091f8 <tud_task_ext+0x3b0>
100091ec:	4ab7      	ldr	r2, [pc, #732]	@ (100094cc <tud_task_ext+0x684>)
100091ee:	7812      	ldrb	r2, [r2, #0]
100091f0:	4293      	cmp	r3, r2
100091f2:	d365      	bcc.n	100092c0 <tud_task_ext+0x478>
100091f4:	1a9b      	subs	r3, r3, r2
100091f6:	b2db      	uxtb	r3, r3
100091f8:	2b00      	cmp	r3, #0
100091fa:	d000      	beq.n	100091fe <tud_task_ext+0x3b6>
100091fc:	e6b5      	b.n	10008f6a <tud_task_ext+0x122>
100091fe:	48b4      	ldr	r0, [pc, #720]	@ (100094d0 <tud_task_ext+0x688>)
10009200:	4db4      	ldr	r5, [pc, #720]	@ (100094d4 <tud_task_ext+0x68c>)
10009202:	f000 fbc3 	bl	1000998c <usbd_control_set_complete_callback>
10009206:	2101      	movs	r1, #1
10009208:	4650      	mov	r0, sl
1000920a:	68eb      	ldr	r3, [r5, #12]
1000920c:	aa0e      	add	r2, sp, #56	@ 0x38
1000920e:	4798      	blx	r3
10009210:	2800      	cmp	r0, #0
10009212:	d000      	beq.n	10009216 <tud_task_ext+0x3ce>
10009214:	e62c      	b.n	10008e70 <tud_task_ext+0x28>
10009216:	2260      	movs	r2, #96	@ 0x60
10009218:	0015      	movs	r5, r2
1000921a:	7923      	ldrb	r3, [r4, #4]
1000921c:	401d      	ands	r5, r3
1000921e:	421a      	tst	r2, r3
10009220:	d000      	beq.n	10009224 <tud_task_ext+0x3dc>
10009222:	e6a2      	b.n	10008f6a <tud_task_ext+0x122>
10009224:	7963      	ldrb	r3, [r4, #5]
10009226:	3b0a      	subs	r3, #10
10009228:	2b01      	cmp	r3, #1
1000922a:	d900      	bls.n	1000922e <tud_task_ext+0x3e6>
1000922c:	e69d      	b.n	10008f6a <tud_task_ext+0x122>
1000922e:	f000 fbad 	bl	1000998c <usbd_control_set_complete_callback>
10009232:	7963      	ldrb	r3, [r4, #5]
10009234:	2b0a      	cmp	r3, #10
10009236:	d100      	bne.n	1000923a <tud_task_ext+0x3f2>
10009238:	e12f      	b.n	1000949a <tud_task_ext+0x652>
1000923a:	4650      	mov	r0, sl
1000923c:	a90e      	add	r1, sp, #56	@ 0x38
1000923e:	f000 fb2f 	bl	100098a0 <tud_control_status>
10009242:	e615      	b.n	10008e70 <tud_task_ext+0x28>
10009244:	7a23      	ldrb	r3, [r4, #8]
10009246:	2b0f      	cmp	r3, #15
10009248:	d900      	bls.n	1000924c <tud_task_ext+0x404>
1000924a:	e68e      	b.n	10008f6a <tud_task_ext+0x122>
1000924c:	4a9e      	ldr	r2, [pc, #632]	@ (100094c8 <tud_task_ext+0x680>)
1000924e:	18eb      	adds	r3, r5, r3
10009250:	78db      	ldrb	r3, [r3, #3]
10009252:	2a00      	cmp	r2, #0
10009254:	d006      	beq.n	10009264 <tud_task_ext+0x41c>
10009256:	4a9d      	ldr	r2, [pc, #628]	@ (100094cc <tud_task_ext+0x684>)
10009258:	7812      	ldrb	r2, [r2, #0]
1000925a:	4293      	cmp	r3, r2
1000925c:	d200      	bcs.n	10009260 <tud_task_ext+0x418>
1000925e:	e0ff      	b.n	10009460 <tud_task_ext+0x618>
10009260:	1a9b      	subs	r3, r3, r2
10009262:	b2db      	uxtb	r3, r3
10009264:	2b00      	cmp	r3, #0
10009266:	d000      	beq.n	1000926a <tud_task_ext+0x422>
10009268:	e67f      	b.n	10008f6a <tud_task_ext+0x122>
1000926a:	4899      	ldr	r0, [pc, #612]	@ (100094d0 <tud_task_ext+0x688>)
1000926c:	4d99      	ldr	r5, [pc, #612]	@ (100094d4 <tud_task_ext+0x68c>)
1000926e:	f000 fb8d 	bl	1000998c <usbd_control_set_complete_callback>
10009272:	2101      	movs	r1, #1
10009274:	4650      	mov	r0, sl
10009276:	68eb      	ldr	r3, [r5, #12]
10009278:	aa0e      	add	r2, sp, #56	@ 0x38
1000927a:	4798      	blx	r3
1000927c:	e734      	b.n	100090e8 <tud_task_ext+0x2a0>
1000927e:	2a00      	cmp	r2, #0
10009280:	d000      	beq.n	10009284 <tud_task_ext+0x43c>
10009282:	e672      	b.n	10008f6a <tud_task_ext+0x122>
10009284:	2300      	movs	r3, #0
10009286:	4698      	mov	r8, r3
10009288:	e763      	b.n	10009152 <tud_task_ext+0x30a>
1000928a:	4663      	mov	r3, ip
1000928c:	005b      	lsls	r3, r3, #1
1000928e:	4698      	mov	r8, r3
10009290:	44c4      	add	ip, r8
10009292:	4663      	mov	r3, ip
10009294:	00db      	lsls	r3, r3, #3
10009296:	469c      	mov	ip, r3
10009298:	488a      	ldr	r0, [pc, #552]	@ (100094c4 <tud_task_ext+0x67c>)
1000929a:	6800      	ldr	r0, [r0, #0]
1000929c:	4460      	add	r0, ip
1000929e:	4680      	mov	r8, r0
100092a0:	2a00      	cmp	r2, #0
100092a2:	d100      	bne.n	100092a6 <tud_task_ext+0x45e>
100092a4:	e755      	b.n	10009152 <tud_task_ext+0x30a>
100092a6:	2800      	cmp	r0, #0
100092a8:	d100      	bne.n	100092ac <tud_task_ext+0x464>
100092aa:	e65e      	b.n	10008f6a <tud_task_ext+0x122>
100092ac:	68c0      	ldr	r0, [r0, #12]
100092ae:	f000 fb6d 	bl	1000998c <usbd_control_set_complete_callback>
100092b2:	4643      	mov	r3, r8
100092b4:	2101      	movs	r1, #1
100092b6:	4650      	mov	r0, sl
100092b8:	68db      	ldr	r3, [r3, #12]
100092ba:	aa0e      	add	r2, sp, #56	@ 0x38
100092bc:	4798      	blx	r3
100092be:	e713      	b.n	100090e8 <tud_task_ext+0x2a0>
100092c0:	4a80      	ldr	r2, [pc, #512]	@ (100094c4 <tud_task_ext+0x67c>)
100092c2:	0059      	lsls	r1, r3, #1
100092c4:	6815      	ldr	r5, [r2, #0]
100092c6:	18cb      	adds	r3, r1, r3
100092c8:	00db      	lsls	r3, r3, #3
100092ca:	18ed      	adds	r5, r5, r3
100092cc:	2d00      	cmp	r5, #0
100092ce:	d100      	bne.n	100092d2 <tud_task_ext+0x48a>
100092d0:	e64b      	b.n	10008f6a <tud_task_ext+0x122>
100092d2:	68e8      	ldr	r0, [r5, #12]
100092d4:	e795      	b.n	10009202 <tud_task_ext+0x3ba>
100092d6:	88e3      	ldrh	r3, [r4, #6]
100092d8:	2b01      	cmp	r3, #1
100092da:	d000      	beq.n	100092de <tud_task_ext+0x496>
100092dc:	e645      	b.n	10008f6a <tud_task_ext+0x122>
100092de:	2208      	movs	r2, #8
100092e0:	782b      	ldrb	r3, [r5, #0]
100092e2:	4650      	mov	r0, sl
100092e4:	4393      	bics	r3, r2
100092e6:	a90e      	add	r1, sp, #56	@ 0x38
100092e8:	702b      	strb	r3, [r5, #0]
100092ea:	f000 fad9 	bl	100098a0 <tud_control_status>
100092ee:	e5bf      	b.n	10008e70 <tud_task_ext+0x28>
100092f0:	2002      	movs	r0, #2
100092f2:	7829      	ldrb	r1, [r5, #0]
100092f4:	ab0c      	add	r3, sp, #48	@ 0x30
100092f6:	1c9a      	adds	r2, r3, #2
100092f8:	068b      	lsls	r3, r1, #26
100092fa:	0889      	lsrs	r1, r1, #2
100092fc:	0fdb      	lsrs	r3, r3, #31
100092fe:	4001      	ands	r1, r0
10009300:	430b      	orrs	r3, r1
10009302:	e73b      	b.n	1000917c <tud_task_ext+0x334>
10009304:	79a3      	ldrb	r3, [r4, #6]
10009306:	4699      	mov	r9, r3
10009308:	786b      	ldrb	r3, [r5, #1]
1000930a:	4599      	cmp	r9, r3
1000930c:	d007      	beq.n	1000931e <tud_task_ext+0x4d6>
1000930e:	786b      	ldrb	r3, [r5, #1]
10009310:	2b00      	cmp	r3, #0
10009312:	d000      	beq.n	10009316 <tud_task_ext+0x4ce>
10009314:	e148      	b.n	100095a8 <tud_task_ext+0x760>
10009316:	464b      	mov	r3, r9
10009318:	2b00      	cmp	r3, #0
1000931a:	d000      	beq.n	1000931e <tud_task_ext+0x4d6>
1000931c:	e0e6      	b.n	100094ec <tud_task_ext+0x6a4>
1000931e:	464b      	mov	r3, r9
10009320:	4650      	mov	r0, sl
10009322:	a90e      	add	r1, sp, #56	@ 0x38
10009324:	706b      	strb	r3, [r5, #1]
10009326:	f000 fabb 	bl	100098a0 <tud_control_status>
1000932a:	e5a1      	b.n	10008e70 <tud_task_ext+0x28>
1000932c:	786b      	ldrb	r3, [r5, #1]
1000932e:	aa0c      	add	r2, sp, #48	@ 0x30
10009330:	3202      	adds	r2, #2
10009332:	7013      	strb	r3, [r2, #0]
10009334:	4650      	mov	r0, sl
10009336:	2301      	movs	r3, #1
10009338:	a90e      	add	r1, sp, #56	@ 0x38
1000933a:	f000 fac7 	bl	100098cc <tud_control_xfer>
1000933e:	e597      	b.n	10008e70 <tud_task_ext+0x28>
10009340:	88e3      	ldrh	r3, [r4, #6]
10009342:	0a1a      	lsrs	r2, r3, #8
10009344:	b2d8      	uxtb	r0, r3
10009346:	2a0f      	cmp	r2, #15
10009348:	d900      	bls.n	1000934c <tud_task_ext+0x504>
1000934a:	e60e      	b.n	10008f6a <tud_task_ext+0x122>
1000934c:	4962      	ldr	r1, [pc, #392]	@ (100094d8 <tud_task_ext+0x690>)
1000934e:	0093      	lsls	r3, r2, #2
10009350:	58cb      	ldr	r3, [r1, r3]
10009352:	469f      	mov	pc, r3
10009354:	a80e      	add	r0, sp, #56	@ 0x38
10009356:	f000 fb1f 	bl	10009998 <usbd_control_set_request>
1000935a:	4650      	mov	r0, sl
1000935c:	79a1      	ldrb	r1, [r4, #6]
1000935e:	f7ff fb6f 	bl	10008a40 <dcd_set_address>
10009362:	2202      	movs	r2, #2
10009364:	782b      	ldrb	r3, [r5, #0]
10009366:	4313      	orrs	r3, r2
10009368:	702b      	strb	r3, [r5, #0]
1000936a:	e581      	b.n	10008e70 <tud_task_ext+0x28>
1000936c:	88e3      	ldrh	r3, [r4, #6]
1000936e:	2b01      	cmp	r3, #1
10009370:	d000      	beq.n	10009374 <tud_task_ext+0x52c>
10009372:	e5fa      	b.n	10008f6a <tud_task_ext+0x122>
10009374:	2208      	movs	r2, #8
10009376:	782b      	ldrb	r3, [r5, #0]
10009378:	4650      	mov	r0, sl
1000937a:	4313      	orrs	r3, r2
1000937c:	a90e      	add	r1, sp, #56	@ 0x38
1000937e:	702b      	strb	r3, [r5, #0]
10009380:	f000 fa8e 	bl	100098a0 <tud_control_status>
10009384:	e574      	b.n	10008e70 <tud_task_ext+0x28>
10009386:	4b55      	ldr	r3, [pc, #340]	@ (100094dc <tud_task_ext+0x694>)
10009388:	2b00      	cmp	r3, #0
1000938a:	d100      	bne.n	1000938e <tud_task_ext+0x546>
1000938c:	e5ed      	b.n	10008f6a <tud_task_ext+0x122>
1000938e:	e000      	b.n	10009392 <tud_task_ext+0x54a>
10009390:	bf00      	nop
10009392:	1e02      	subs	r2, r0, #0
10009394:	d100      	bne.n	10009398 <tud_task_ext+0x550>
10009396:	e5e8      	b.n	10008f6a <tud_task_ext+0x122>
10009398:	78d3      	ldrb	r3, [r2, #3]
1000939a:	7891      	ldrb	r1, [r2, #2]
1000939c:	021b      	lsls	r3, r3, #8
1000939e:	430b      	orrs	r3, r1
100093a0:	4650      	mov	r0, sl
100093a2:	a90e      	add	r1, sp, #56	@ 0x38
100093a4:	f000 fa92 	bl	100098cc <tud_control_xfer>
100093a8:	e69e      	b.n	100090e8 <tud_task_ext+0x2a0>
100093aa:	4b4d      	ldr	r3, [pc, #308]	@ (100094e0 <tud_task_ext+0x698>)
100093ac:	2b00      	cmp	r3, #0
100093ae:	d100      	bne.n	100093b2 <tud_task_ext+0x56a>
100093b0:	e5db      	b.n	10008f6a <tud_task_ext+0x122>
100093b2:	e000      	b.n	100093b6 <tud_task_ext+0x56e>
100093b4:	bf00      	nop
100093b6:	1e02      	subs	r2, r0, #0
100093b8:	d100      	bne.n	100093bc <tud_task_ext+0x574>
100093ba:	e5d6      	b.n	10008f6a <tud_task_ext+0x122>
100093bc:	4650      	mov	r0, sl
100093be:	7813      	ldrb	r3, [r2, #0]
100093c0:	a90e      	add	r1, sp, #56	@ 0x38
100093c2:	f000 fa83 	bl	100098cc <tud_control_xfer>
100093c6:	e68f      	b.n	100090e8 <tud_task_ext+0x2a0>
100093c8:	8921      	ldrh	r1, [r4, #8]
100093ca:	f7ff f9fb 	bl	100087c4 <tud_descriptor_string_cb>
100093ce:	1e02      	subs	r2, r0, #0
100093d0:	d1f4      	bne.n	100093bc <tud_task_ext+0x574>
100093d2:	e5ca      	b.n	10008f6a <tud_task_ext+0x122>
100093d4:	2a02      	cmp	r2, #2
100093d6:	d100      	bne.n	100093da <tud_task_ext+0x592>
100093d8:	e15d      	b.n	10009696 <tud_task_ext+0x84e>
100093da:	4b42      	ldr	r3, [pc, #264]	@ (100094e4 <tud_task_ext+0x69c>)
100093dc:	2b00      	cmp	r3, #0
100093de:	d100      	bne.n	100093e2 <tud_task_ext+0x59a>
100093e0:	e5c3      	b.n	10008f6a <tud_task_ext+0x122>
100093e2:	e000      	b.n	100093e6 <tud_task_ext+0x59e>
100093e4:	bf00      	nop
100093e6:	0002      	movs	r2, r0
100093e8:	2a00      	cmp	r2, #0
100093ea:	d100      	bne.n	100093ee <tud_task_ext+0x5a6>
100093ec:	e5bd      	b.n	10008f6a <tud_task_ext+0x122>
100093ee:	e7d3      	b.n	10009398 <tud_task_ext+0x550>
100093f0:	f7ff f9e0 	bl	100087b4 <tud_descriptor_device_cb>
100093f4:	2312      	movs	r3, #18
100093f6:	0002      	movs	r2, r0
100093f8:	a90e      	add	r1, sp, #56	@ 0x38
100093fa:	4650      	mov	r0, sl
100093fc:	f000 fa66 	bl	100098cc <tud_control_xfer>
10009400:	e672      	b.n	100090e8 <tud_task_ext+0x2a0>
10009402:	4b34      	ldr	r3, [pc, #208]	@ (100094d4 <tud_task_ext+0x68c>)
10009404:	4832      	ldr	r0, [pc, #200]	@ (100094d0 <tud_task_ext+0x688>)
10009406:	4698      	mov	r8, r3
10009408:	e751      	b.n	100092ae <tud_task_ext+0x466>
1000940a:	464e      	mov	r6, r9
1000940c:	46bb      	mov	fp, r7
1000940e:	e628      	b.n	10009062 <tud_task_ext+0x21a>
10009410:	464e      	mov	r6, r9
10009412:	46bb      	mov	fp, r7
10009414:	e634      	b.n	10009080 <tud_task_ext+0x238>
10009416:	88e2      	ldrh	r2, [r4, #6]
10009418:	2a00      	cmp	r2, #0
1000941a:	d10b      	bne.n	10009434 <tud_task_ext+0x5ec>
1000941c:	464b      	mov	r3, r9
1000941e:	4a32      	ldr	r2, [pc, #200]	@ (100094e8 <tud_task_ext+0x6a0>)
10009420:	7810      	ldrb	r0, [r2, #0]
10009422:	2b01      	cmp	r3, #1
10009424:	d027      	beq.n	10009476 <tud_task_ext+0x62e>
10009426:	9b03      	ldr	r3, [sp, #12]
10009428:	18eb      	adds	r3, r5, r3
1000942a:	19df      	adds	r7, r3, r7
1000942c:	3730      	adds	r7, #48	@ 0x30
1000942e:	78fb      	ldrb	r3, [r7, #3]
10009430:	079b      	lsls	r3, r3, #30
10009432:	d53b      	bpl.n	100094ac <tud_task_ext+0x664>
10009434:	4643      	mov	r3, r8
10009436:	2b00      	cmp	r3, #0
10009438:	d100      	bne.n	1000943c <tud_task_ext+0x5f4>
1000943a:	e519      	b.n	10008e70 <tud_task_ext+0x28>
1000943c:	68d8      	ldr	r0, [r3, #12]
1000943e:	f000 faa5 	bl	1000998c <usbd_control_set_complete_callback>
10009442:	4643      	mov	r3, r8
10009444:	2101      	movs	r1, #1
10009446:	68db      	ldr	r3, [r3, #12]
10009448:	aa0e      	add	r2, sp, #56	@ 0x38
1000944a:	4650      	mov	r0, sl
1000944c:	4798      	blx	r3
1000944e:	2000      	movs	r0, #0
10009450:	f000 fa9c 	bl	1000998c <usbd_control_set_complete_callback>
10009454:	2334      	movs	r3, #52	@ 0x34
10009456:	5ceb      	ldrb	r3, [r5, r3]
10009458:	07db      	lsls	r3, r3, #31
1000945a:	d500      	bpl.n	1000945e <tud_task_ext+0x616>
1000945c:	e508      	b.n	10008e70 <tud_task_ext+0x28>
1000945e:	e6ec      	b.n	1000923a <tud_task_ext+0x3f2>
10009460:	4a18      	ldr	r2, [pc, #96]	@ (100094c4 <tud_task_ext+0x67c>)
10009462:	0059      	lsls	r1, r3, #1
10009464:	6815      	ldr	r5, [r2, #0]
10009466:	18cb      	adds	r3, r1, r3
10009468:	00db      	lsls	r3, r3, #3
1000946a:	18ed      	adds	r5, r5, r3
1000946c:	2d00      	cmp	r5, #0
1000946e:	d100      	bne.n	10009472 <tud_task_ext+0x62a>
10009470:	e57b      	b.n	10008f6a <tud_task_ext+0x122>
10009472:	68e8      	ldr	r0, [r5, #12]
10009474:	e6fb      	b.n	1000926e <tud_task_ext+0x426>
10009476:	9b03      	ldr	r3, [sp, #12]
10009478:	18eb      	adds	r3, r5, r3
1000947a:	19df      	adds	r7, r3, r7
1000947c:	3730      	adds	r7, #48	@ 0x30
1000947e:	78fb      	ldrb	r3, [r7, #3]
10009480:	079b      	lsls	r3, r3, #30
10009482:	d5d7      	bpl.n	10009434 <tud_task_ext+0x5ec>
10009484:	f7ff fbfc 	bl	10008c80 <dcd_edpt_clear_stall>
10009488:	2202      	movs	r2, #2
1000948a:	78fb      	ldrb	r3, [r7, #3]
1000948c:	4393      	bics	r3, r2
1000948e:	464a      	mov	r2, r9
10009490:	70fb      	strb	r3, [r7, #3]
10009492:	78fb      	ldrb	r3, [r7, #3]
10009494:	4393      	bics	r3, r2
10009496:	70fb      	strb	r3, [r7, #3]
10009498:	e7cc      	b.n	10009434 <tud_task_ext+0x5ec>
1000949a:	ab0c      	add	r3, sp, #48	@ 0x30
1000949c:	1c9a      	adds	r2, r3, #2
1000949e:	4650      	mov	r0, sl
100094a0:	2301      	movs	r3, #1
100094a2:	a90e      	add	r1, sp, #56	@ 0x38
100094a4:	7015      	strb	r5, [r2, #0]
100094a6:	f000 fa11 	bl	100098cc <tud_control_xfer>
100094aa:	e4e1      	b.n	10008e70 <tud_task_ext+0x28>
100094ac:	f7ff fbce 	bl	10008c4c <dcd_edpt_stall>
100094b0:	2202      	movs	r2, #2
100094b2:	78fb      	ldrb	r3, [r7, #3]
100094b4:	4313      	orrs	r3, r2
100094b6:	2201      	movs	r2, #1
100094b8:	70fb      	strb	r3, [r7, #3]
100094ba:	78fb      	ldrb	r3, [r7, #3]
100094bc:	4313      	orrs	r3, r2
100094be:	70fb      	strb	r3, [r7, #3]
100094c0:	e7b8      	b.n	10009434 <tud_task_ext+0x5ec>
100094c2:	46c0      	nop			@ (mov r8, r8)
100094c4:	20001894 	.word	0x20001894
100094c8:	100083c1 	.word	0x100083c1
100094cc:	2003f3ee 	.word	0x2003f3ee
100094d0:	10009db1 	.word	0x10009db1
100094d4:	1000b830 	.word	0x1000b830
100094d8:	1000b7f0 	.word	0x1000b7f0
	...
100094e8:	200010cc 	.word	0x200010cc
100094ec:	1e58      	subs	r0, r3, #1
100094ee:	b2c0      	uxtb	r0, r0
100094f0:	f7ff f964 	bl	100087bc <tud_descriptor_configuration_cb>
100094f4:	2800      	cmp	r0, #0
100094f6:	d100      	bne.n	100094fa <tud_task_ext+0x6b2>
100094f8:	e537      	b.n	10008f6a <tud_task_ext+0x122>
100094fa:	7843      	ldrb	r3, [r0, #1]
100094fc:	9307      	str	r3, [sp, #28]
100094fe:	2b02      	cmp	r3, #2
10009500:	d000      	beq.n	10009504 <tud_task_ext+0x6bc>
10009502:	e532      	b.n	10008f6a <tud_task_ext+0x122>
10009504:	2101      	movs	r1, #1
10009506:	79c3      	ldrb	r3, [r0, #7]
10009508:	0007      	movs	r7, r0
1000950a:	119a      	asrs	r2, r3, #6
1000950c:	115b      	asrs	r3, r3, #5
1000950e:	400a      	ands	r2, r1
10009510:	400b      	ands	r3, r1
10009512:	0152      	lsls	r2, r2, #5
10009514:	011b      	lsls	r3, r3, #4
10009516:	4313      	orrs	r3, r2
10009518:	782a      	ldrb	r2, [r5, #0]
1000951a:	312f      	adds	r1, #47	@ 0x2f
1000951c:	438a      	bics	r2, r1
1000951e:	4313      	orrs	r3, r2
10009520:	702b      	strb	r3, [r5, #0]
10009522:	78c3      	ldrb	r3, [r0, #3]
10009524:	7882      	ldrb	r2, [r0, #2]
10009526:	021b      	lsls	r3, r3, #8
10009528:	4313      	orrs	r3, r2
1000952a:	18c3      	adds	r3, r0, r3
1000952c:	9306      	str	r3, [sp, #24]
1000952e:	4b66      	ldr	r3, [pc, #408]	@ (100096c8 <tud_task_ext+0x880>)
10009530:	46a8      	mov	r8, r5
10009532:	9305      	str	r3, [sp, #20]
10009534:	4b65      	ldr	r3, [pc, #404]	@ (100096cc <tud_task_ext+0x884>)
10009536:	3709      	adds	r7, #9
10009538:	930a      	str	r3, [sp, #40]	@ 0x28
1000953a:	464b      	mov	r3, r9
1000953c:	46b1      	mov	r9, r6
1000953e:	930b      	str	r3, [sp, #44]	@ 0x2c
10009540:	9b06      	ldr	r3, [sp, #24]
10009542:	42bb      	cmp	r3, r7
10009544:	d800      	bhi.n	10009548 <tud_task_ext+0x700>
10009546:	e0aa      	b.n	1000969e <tud_task_ext+0x856>
10009548:	2201      	movs	r2, #1
1000954a:	787b      	ldrb	r3, [r7, #1]
1000954c:	9203      	str	r2, [sp, #12]
1000954e:	2b0b      	cmp	r3, #11
10009550:	d103      	bne.n	1000955a <tud_task_ext+0x712>
10009552:	78fb      	ldrb	r3, [r7, #3]
10009554:	9303      	str	r3, [sp, #12]
10009556:	783b      	ldrb	r3, [r7, #0]
10009558:	18ff      	adds	r7, r7, r3
1000955a:	787b      	ldrb	r3, [r7, #1]
1000955c:	2b04      	cmp	r3, #4
1000955e:	d121      	bne.n	100095a4 <tud_task_ext+0x75c>
10009560:	2500      	movs	r5, #0
10009562:	9b06      	ldr	r3, [sp, #24]
10009564:	1bdb      	subs	r3, r3, r7
10009566:	b29b      	uxth	r3, r3
10009568:	9304      	str	r3, [sp, #16]
1000956a:	9b05      	ldr	r3, [sp, #20]
1000956c:	781a      	ldrb	r2, [r3, #0]
1000956e:	9b0a      	ldr	r3, [sp, #40]	@ 0x28
10009570:	42ab      	cmp	r3, r5
10009572:	d04d      	beq.n	10009610 <tud_task_ext+0x7c8>
10009574:	4b56      	ldr	r3, [pc, #344]	@ (100096d0 <tud_task_ext+0x888>)
10009576:	9308      	str	r3, [sp, #32]
10009578:	4b56      	ldr	r3, [pc, #344]	@ (100096d4 <tud_task_ext+0x88c>)
1000957a:	9309      	str	r3, [sp, #36]	@ 0x24
1000957c:	9b08      	ldr	r3, [sp, #32]
1000957e:	9e09      	ldr	r6, [sp, #36]	@ 0x24
10009580:	42aa      	cmp	r2, r5
10009582:	d87f      	bhi.n	10009684 <tud_task_ext+0x83c>
10009584:	0039      	movs	r1, r7
10009586:	4650      	mov	r0, sl
10009588:	9a04      	ldr	r2, [sp, #16]
1000958a:	4798      	blx	r3
1000958c:	4684      	mov	ip, r0
1000958e:	2808      	cmp	r0, #8
10009590:	d902      	bls.n	10009598 <tud_task_ext+0x750>
10009592:	9a04      	ldr	r2, [sp, #16]
10009594:	4282      	cmp	r2, r0
10009596:	d247      	bcs.n	10009628 <tud_task_ext+0x7e0>
10009598:	9b05      	ldr	r3, [sp, #20]
1000959a:	3501      	adds	r5, #1
1000959c:	781a      	ldrb	r2, [r3, #0]
1000959e:	b2ed      	uxtb	r5, r5
100095a0:	42aa      	cmp	r2, r5
100095a2:	d2eb      	bcs.n	1000957c <tud_task_ext+0x734>
100095a4:	464e      	mov	r6, r9
100095a6:	e4e0      	b.n	10008f6a <tud_task_ext+0x122>
100095a8:	4650      	mov	r0, sl
100095aa:	f7ff fb39 	bl	10008c20 <dcd_edpt_close_all>
100095ae:	78ab      	ldrb	r3, [r5, #2]
100095b0:	4f45      	ldr	r7, [pc, #276]	@ (100096c8 <tud_task_ext+0x880>)
100095b2:	4a46      	ldr	r2, [pc, #280]	@ (100096cc <tud_task_ext+0x884>)
100095b4:	9303      	str	r3, [sp, #12]
100095b6:	2100      	movs	r1, #0
100095b8:	783b      	ldrb	r3, [r7, #0]
100095ba:	2a00      	cmp	r2, #0
100095bc:	d01f      	beq.n	100095fe <tud_task_ext+0x7b6>
100095be:	4a46      	ldr	r2, [pc, #280]	@ (100096d8 <tud_task_ext+0x890>)
100095c0:	9204      	str	r2, [sp, #16]
100095c2:	002a      	movs	r2, r5
100095c4:	000d      	movs	r5, r1
100095c6:	4690      	mov	r8, r2
100095c8:	9a04      	ldr	r2, [sp, #16]
100095ca:	429d      	cmp	r5, r3
100095cc:	d350      	bcc.n	10009670 <tud_task_ext+0x828>
100095ce:	4650      	mov	r0, sl
100095d0:	4790      	blx	r2
100095d2:	3501      	adds	r5, #1
100095d4:	783b      	ldrb	r3, [r7, #0]
100095d6:	b2ed      	uxtb	r5, r5
100095d8:	42ab      	cmp	r3, r5
100095da:	d2f5      	bcs.n	100095c8 <tud_task_ext+0x780>
100095dc:	4645      	mov	r5, r8
100095de:	2253      	movs	r2, #83	@ 0x53
100095e0:	2100      	movs	r1, #0
100095e2:	0028      	movs	r0, r5
100095e4:	f7fe fc8a 	bl	10007efc <__wrap_memset>
100095e8:	2210      	movs	r2, #16
100095ea:	21ff      	movs	r1, #255	@ 0xff
100095ec:	483b      	ldr	r0, [pc, #236]	@ (100096dc <tud_task_ext+0x894>)
100095ee:	f7fe fc85 	bl	10007efc <__wrap_memset>
100095f2:	2220      	movs	r2, #32
100095f4:	21ff      	movs	r1, #255	@ 0xff
100095f6:	483a      	ldr	r0, [pc, #232]	@ (100096e0 <tud_task_ext+0x898>)
100095f8:	f7fe fc80 	bl	10007efc <__wrap_memset>
100095fc:	e005      	b.n	1000960a <tud_task_ext+0x7c2>
100095fe:	4650      	mov	r0, sl
10009600:	f000 fb4e 	bl	10009ca0 <cdcd_reset>
10009604:	783b      	ldrb	r3, [r7, #0]
10009606:	2b00      	cmp	r3, #0
10009608:	d0e9      	beq.n	100095de <tud_task_ext+0x796>
1000960a:	9b03      	ldr	r3, [sp, #12]
1000960c:	70ab      	strb	r3, [r5, #2]
1000960e:	e682      	b.n	10009316 <tud_task_ext+0x4ce>
10009610:	9e04      	ldr	r6, [sp, #16]
10009612:	0039      	movs	r1, r7
10009614:	0032      	movs	r2, r6
10009616:	4650      	mov	r0, sl
10009618:	f000 fb58 	bl	10009ccc <cdcd_open>
1000961c:	4684      	mov	ip, r0
1000961e:	2808      	cmp	r0, #8
10009620:	d9c0      	bls.n	100095a4 <tud_task_ext+0x75c>
10009622:	4286      	cmp	r6, r0
10009624:	d3be      	bcc.n	100095a4 <tud_task_ext+0x75c>
10009626:	4e2b      	ldr	r6, [pc, #172]	@ (100096d4 <tud_task_ext+0x88c>)
10009628:	9b03      	ldr	r3, [sp, #12]
1000962a:	2b01      	cmp	r3, #1
1000962c:	d044      	beq.n	100096b8 <tud_task_ext+0x870>
1000962e:	2200      	movs	r2, #0
10009630:	4640      	mov	r0, r8
10009632:	e009      	b.n	10009648 <tud_task_ext+0x800>
10009634:	78bb      	ldrb	r3, [r7, #2]
10009636:	18d3      	adds	r3, r2, r3
10009638:	b2db      	uxtb	r3, r3
1000963a:	18c3      	adds	r3, r0, r3
1000963c:	78d9      	ldrb	r1, [r3, #3]
1000963e:	29ff      	cmp	r1, #255	@ 0xff
10009640:	d1b0      	bne.n	100095a4 <tud_task_ext+0x75c>
10009642:	3201      	adds	r2, #1
10009644:	70dd      	strb	r5, [r3, #3]
10009646:	b2d2      	uxtb	r2, r2
10009648:	9b03      	ldr	r3, [sp, #12]
1000964a:	429a      	cmp	r2, r3
1000964c:	d1f2      	bne.n	10009634 <tud_task_ext+0x7ec>
1000964e:	4666      	mov	r6, ip
10009650:	002b      	movs	r3, r5
10009652:	0039      	movs	r1, r7
10009654:	4680      	mov	r8, r0
10009656:	0032      	movs	r2, r6
10009658:	4821      	ldr	r0, [pc, #132]	@ (100096e0 <tud_task_ext+0x898>)
1000965a:	f000 fd45 	bl	1000a0e8 <tu_edpt_bind_driver>
1000965e:	46b4      	mov	ip, r6
10009660:	9b05      	ldr	r3, [sp, #20]
10009662:	4467      	add	r7, ip
10009664:	781b      	ldrb	r3, [r3, #0]
10009666:	42ab      	cmp	r3, r5
10009668:	d300      	bcc.n	1000966c <tud_task_ext+0x824>
1000966a:	e769      	b.n	10009540 <tud_task_ext+0x6f8>
1000966c:	464e      	mov	r6, r9
1000966e:	e47c      	b.n	10008f6a <tud_task_ext+0x122>
10009670:	4a1c      	ldr	r2, [pc, #112]	@ (100096e4 <tud_task_ext+0x89c>)
10009672:	006b      	lsls	r3, r5, #1
10009674:	6812      	ldr	r2, [r2, #0]
10009676:	195b      	adds	r3, r3, r5
10009678:	00db      	lsls	r3, r3, #3
1000967a:	18d3      	adds	r3, r2, r3
1000967c:	2b00      	cmp	r3, #0
1000967e:	d019      	beq.n	100096b4 <tud_task_ext+0x86c>
10009680:	685a      	ldr	r2, [r3, #4]
10009682:	e7a4      	b.n	100095ce <tud_task_ext+0x786>
10009684:	2318      	movs	r3, #24
10009686:	4a17      	ldr	r2, [pc, #92]	@ (100096e4 <tud_task_ext+0x89c>)
10009688:	436b      	muls	r3, r5
1000968a:	6816      	ldr	r6, [r2, #0]
1000968c:	18f6      	adds	r6, r6, r3
1000968e:	2e00      	cmp	r6, #0
10009690:	d088      	beq.n	100095a4 <tud_task_ext+0x75c>
10009692:	68b3      	ldr	r3, [r6, #8]
10009694:	e776      	b.n	10009584 <tud_task_ext+0x73c>
10009696:	f7ff f891 	bl	100087bc <tud_descriptor_configuration_cb>
1000969a:	0002      	movs	r2, r0
1000969c:	e6a4      	b.n	100093e8 <tud_task_ext+0x5a0>
1000969e:	9b0b      	ldr	r3, [sp, #44]	@ 0x2c
100096a0:	464e      	mov	r6, r9
100096a2:	4699      	mov	r9, r3
100096a4:	4b10      	ldr	r3, [pc, #64]	@ (100096e8 <tud_task_ext+0x8a0>)
100096a6:	4645      	mov	r5, r8
100096a8:	2b00      	cmp	r3, #0
100096aa:	d100      	bne.n	100096ae <tud_task_ext+0x866>
100096ac:	e637      	b.n	1000931e <tud_task_ext+0x4d6>
100096ae:	e000      	b.n	100096b2 <tud_task_ext+0x86a>
100096b0:	bf00      	nop
100096b2:	e634      	b.n	1000931e <tud_task_ext+0x4d6>
100096b4:	4645      	mov	r5, r8
100096b6:	e7a8      	b.n	1000960a <tud_task_ext+0x7c2>
100096b8:	4b05      	ldr	r3, [pc, #20]	@ (100096d0 <tud_task_ext+0x888>)
100096ba:	68b2      	ldr	r2, [r6, #8]
100096bc:	429a      	cmp	r2, r3
100096be:	d1b6      	bne.n	1000962e <tud_task_ext+0x7e6>
100096c0:	9b07      	ldr	r3, [sp, #28]
100096c2:	9303      	str	r3, [sp, #12]
100096c4:	e7b3      	b.n	1000962e <tud_task_ext+0x7e6>
100096c6:	46c0      	nop			@ (mov r8, r8)
100096c8:	2003f3ee 	.word	0x2003f3ee
100096cc:	100083c1 	.word	0x100083c1
100096d0:	10009ccd 	.word	0x10009ccd
100096d4:	1000b830 	.word	0x1000b830
100096d8:	10009ca1 	.word	0x10009ca1
100096dc:	20001bbf 	.word	0x20001bbf
100096e0:	20001bcf 	.word	0x20001bcf
100096e4:	20001894 	.word	0x20001894
100096e8:	00000000 	.word	0x00000000

100096ec <usbd_open_edpt_pair>:
100096ec:	b5f8      	push	{r3, r4, r5, r6, r7, lr}
100096ee:	4657      	mov	r7, sl
100096f0:	464e      	mov	r6, r9
100096f2:	46de      	mov	lr, fp
100096f4:	4645      	mov	r5, r8
100096f6:	000c      	movs	r4, r1
100096f8:	b5e0      	push	{r5, r6, r7, lr}
100096fa:	0016      	movs	r6, r2
100096fc:	001f      	movs	r7, r3
100096fe:	2a00      	cmp	r2, #0
10009700:	d03c      	beq.n	1000977c <usbd_open_edpt_pair+0x90>
10009702:	4b1f      	ldr	r3, [pc, #124]	@ (10009780 <usbd_open_edpt_pair+0x94>)
10009704:	2500      	movs	r5, #0
10009706:	469a      	mov	sl, r3
10009708:	2370      	movs	r3, #112	@ 0x70
1000970a:	4699      	mov	r9, r3
1000970c:	4b1d      	ldr	r3, [pc, #116]	@ (10009784 <usbd_open_edpt_pair+0x98>)
1000970e:	469b      	mov	fp, r3
10009710:	e017      	b.n	10009742 <usbd_open_edpt_pair+0x56>
10009712:	465b      	mov	r3, fp
10009714:	0020      	movs	r0, r4
10009716:	7899      	ldrb	r1, [r3, #2]
10009718:	f000 fca8 	bl	1000a06c <tu_edpt_validate>
1000971c:	2800      	cmp	r0, #0
1000971e:	d01f      	beq.n	10009760 <usbd_open_edpt_pair+0x74>
10009720:	0021      	movs	r1, r4
10009722:	4640      	mov	r0, r8
10009724:	f7ff f9f8 	bl	10008b18 <dcd_edpt_open>
10009728:	2800      	cmp	r0, #0
1000972a:	d019      	beq.n	10009760 <usbd_open_edpt_pair+0x74>
1000972c:	78a3      	ldrb	r3, [r4, #2]
1000972e:	09da      	lsrs	r2, r3, #7
10009730:	2a01      	cmp	r2, #1
10009732:	d01c      	beq.n	1000976e <usbd_open_edpt_pair+0x82>
10009734:	9a0a      	ldr	r2, [sp, #40]	@ 0x28
10009736:	3501      	adds	r5, #1
10009738:	7013      	strb	r3, [r2, #0]
1000973a:	7823      	ldrb	r3, [r4, #0]
1000973c:	18e4      	adds	r4, r4, r3
1000973e:	42b5      	cmp	r5, r6
10009740:	da1c      	bge.n	1000977c <usbd_open_edpt_pair+0x90>
10009742:	7863      	ldrb	r3, [r4, #1]
10009744:	2b05      	cmp	r3, #5
10009746:	d10b      	bne.n	10009760 <usbd_open_edpt_pair+0x74>
10009748:	78e3      	ldrb	r3, [r4, #3]
1000974a:	079b      	lsls	r3, r3, #30
1000974c:	0f9b      	lsrs	r3, r3, #30
1000974e:	42bb      	cmp	r3, r7
10009750:	d106      	bne.n	10009760 <usbd_open_edpt_pair+0x74>
10009752:	4653      	mov	r3, sl
10009754:	464a      	mov	r2, r9
10009756:	781b      	ldrb	r3, [r3, #0]
10009758:	4698      	mov	r8, r3
1000975a:	78a3      	ldrb	r3, [r4, #2]
1000975c:	421a      	tst	r2, r3
1000975e:	d0d8      	beq.n	10009712 <usbd_open_edpt_pair+0x26>
10009760:	2000      	movs	r0, #0
10009762:	bcf0      	pop	{r4, r5, r6, r7}
10009764:	46bb      	mov	fp, r7
10009766:	46b2      	mov	sl, r6
10009768:	46a9      	mov	r9, r5
1000976a:	46a0      	mov	r8, r4
1000976c:	bdf8      	pop	{r3, r4, r5, r6, r7, pc}
1000976e:	9a0b      	ldr	r2, [sp, #44]	@ 0x2c
10009770:	3501      	adds	r5, #1
10009772:	7013      	strb	r3, [r2, #0]
10009774:	7823      	ldrb	r3, [r4, #0]
10009776:	18e4      	adds	r4, r4, r3
10009778:	42b5      	cmp	r5, r6
1000977a:	dbe2      	blt.n	10009742 <usbd_open_edpt_pair+0x56>
1000977c:	2001      	movs	r0, #1
1000977e:	e7f0      	b.n	10009762 <usbd_open_edpt_pair+0x76>
10009780:	200010cc 	.word	0x200010cc
10009784:	20001bbc 	.word	0x20001bbc

10009788 <usbd_defer_func>:
10009788:	2380      	movs	r3, #128	@ 0x80
1000978a:	b510      	push	{r4, lr}
1000978c:	011b      	lsls	r3, r3, #4
1000978e:	b084      	sub	sp, #16
10009790:	9301      	str	r3, [sp, #4]
10009792:	4b0e      	ldr	r3, [pc, #56]	@ (100097cc <usbd_defer_func+0x44>)
10009794:	9002      	str	r0, [sp, #8]
10009796:	681c      	ldr	r4, [r3, #0]
10009798:	9103      	str	r1, [sp, #12]
1000979a:	6962      	ldr	r2, [r4, #20]
1000979c:	f3ef 8310 	mrs	r3, PRIMASK
100097a0:	b672      	cpsid	i
100097a2:	6811      	ldr	r1, [r2, #0]
100097a4:	2900      	cmp	r1, #0
100097a6:	d0fc      	beq.n	100097a2 <usbd_defer_func+0x1a>
100097a8:	f3bf 8f5f 	dmb	sy
100097ac:	61a3      	str	r3, [r4, #24]
100097ae:	0020      	movs	r0, r4
100097b0:	a901      	add	r1, sp, #4
100097b2:	f000 fddf 	bl	1000a374 <tu_fifo_write>
100097b6:	6962      	ldr	r2, [r4, #20]
100097b8:	69a3      	ldr	r3, [r4, #24]
100097ba:	f3bf 8f5f 	dmb	sy
100097be:	2100      	movs	r1, #0
100097c0:	6011      	str	r1, [r2, #0]
100097c2:	f383 8810 	msr	PRIMASK, r3
100097c6:	b004      	add	sp, #16
100097c8:	bd10      	pop	{r4, pc}
100097ca:	46c0      	nop			@ (mov r8, r8)
100097cc:	20001c14 	.word	0x20001c14

100097d0 <usbd_edpt_open>:
100097d0:	2270      	movs	r2, #112	@ 0x70
100097d2:	b570      	push	{r4, r5, r6, lr}
100097d4:	4b09      	ldr	r3, [pc, #36]	@ (100097fc <usbd_edpt_open+0x2c>)
100097d6:	000c      	movs	r4, r1
100097d8:	781d      	ldrb	r5, [r3, #0]
100097da:	788b      	ldrb	r3, [r1, #2]
100097dc:	421a      	tst	r2, r3
100097de:	d001      	beq.n	100097e4 <usbd_edpt_open+0x14>
100097e0:	2000      	movs	r0, #0
100097e2:	bd70      	pop	{r4, r5, r6, pc}
100097e4:	4b06      	ldr	r3, [pc, #24]	@ (10009800 <usbd_edpt_open+0x30>)
100097e6:	0020      	movs	r0, r4
100097e8:	7899      	ldrb	r1, [r3, #2]
100097ea:	f000 fc3f 	bl	1000a06c <tu_edpt_validate>
100097ee:	2800      	cmp	r0, #0
100097f0:	d0f6      	beq.n	100097e0 <usbd_edpt_open+0x10>
100097f2:	0021      	movs	r1, r4
100097f4:	0028      	movs	r0, r5
100097f6:	f7ff f98f 	bl	10008b18 <dcd_edpt_open>
100097fa:	e7f2      	b.n	100097e2 <usbd_edpt_open+0x12>
100097fc:	200010cc 	.word	0x200010cc
10009800:	20001bbc 	.word	0x20001bbc

10009804 <usbd_edpt_claim>:
10009804:	000b      	movs	r3, r1
10009806:	207f      	movs	r0, #127	@ 0x7f
10009808:	b510      	push	{r4, lr}
1000980a:	4018      	ands	r0, r3
1000980c:	09db      	lsrs	r3, r3, #7
1000980e:	3333      	adds	r3, #51	@ 0x33
10009810:	0040      	lsls	r0, r0, #1
10009812:	4a04      	ldr	r2, [pc, #16]	@ (10009824 <usbd_edpt_claim+0x20>)
10009814:	18c0      	adds	r0, r0, r3
10009816:	4b04      	ldr	r3, [pc, #16]	@ (10009828 <usbd_edpt_claim+0x24>)
10009818:	6811      	ldr	r1, [r2, #0]
1000981a:	18c0      	adds	r0, r0, r3
1000981c:	f000 fbe2 	bl	10009fe4 <tu_edpt_claim>
10009820:	bd10      	pop	{r4, pc}
10009822:	46c0      	nop			@ (mov r8, r8)
10009824:	20001c10 	.word	0x20001c10
10009828:	20001bbc 	.word	0x20001bbc

1000982c <usbd_edpt_release>:
1000982c:	000b      	movs	r3, r1
1000982e:	207f      	movs	r0, #127	@ 0x7f
10009830:	b510      	push	{r4, lr}
10009832:	4018      	ands	r0, r3
10009834:	09db      	lsrs	r3, r3, #7
10009836:	3333      	adds	r3, #51	@ 0x33
10009838:	0040      	lsls	r0, r0, #1
1000983a:	4a04      	ldr	r2, [pc, #16]	@ (1000984c <usbd_edpt_release+0x20>)
1000983c:	18c0      	adds	r0, r0, r3
1000983e:	4b04      	ldr	r3, [pc, #16]	@ (10009850 <usbd_edpt_release+0x24>)
10009840:	6811      	ldr	r1, [r2, #0]
10009842:	18c0      	adds	r0, r0, r3
10009844:	f000 fbf6 	bl	1000a034 <tu_edpt_release>
10009848:	bd10      	pop	{r4, pc}
1000984a:	46c0      	nop			@ (mov r8, r8)
1000984c:	20001c10 	.word	0x20001c10
10009850:	20001bbc 	.word	0x20001bbc

10009854 <usbd_edpt_xfer>:
10009854:	b570      	push	{r4, r5, r6, lr}
10009856:	247f      	movs	r4, #127	@ 0x7f
10009858:	480f      	ldr	r0, [pc, #60]	@ (10009898 <usbd_edpt_xfer+0x44>)
1000985a:	400c      	ands	r4, r1
1000985c:	0064      	lsls	r4, r4, #1
1000985e:	1904      	adds	r4, r0, r4
10009860:	09cd      	lsrs	r5, r1, #7
10009862:	1964      	adds	r4, r4, r5
10009864:	3430      	adds	r4, #48	@ 0x30
10009866:	78e0      	ldrb	r0, [r4, #3]
10009868:	07c0      	lsls	r0, r0, #31
1000986a:	d501      	bpl.n	10009870 <usbd_edpt_xfer+0x1c>
1000986c:	2000      	movs	r0, #0
1000986e:	bd70      	pop	{r4, r5, r6, pc}
10009870:	2601      	movs	r6, #1
10009872:	78e5      	ldrb	r5, [r4, #3]
10009874:	4809      	ldr	r0, [pc, #36]	@ (1000989c <usbd_edpt_xfer+0x48>)
10009876:	4335      	orrs	r5, r6
10009878:	7800      	ldrb	r0, [r0, #0]
1000987a:	70e5      	strb	r5, [r4, #3]
1000987c:	f7ff f9d4 	bl	10008c28 <dcd_edpt_xfer>
10009880:	2800      	cmp	r0, #0
10009882:	d1f4      	bne.n	1000986e <usbd_edpt_xfer+0x1a>
10009884:	2201      	movs	r2, #1
10009886:	78e3      	ldrb	r3, [r4, #3]
10009888:	4393      	bics	r3, r2
1000988a:	70e3      	strb	r3, [r4, #3]
1000988c:	78e3      	ldrb	r3, [r4, #3]
1000988e:	3203      	adds	r2, #3
10009890:	4393      	bics	r3, r2
10009892:	70e3      	strb	r3, [r4, #3]
10009894:	e7ea      	b.n	1000986c <usbd_edpt_xfer+0x18>
10009896:	46c0      	nop			@ (mov r8, r8)
10009898:	20001bbc 	.word	0x20001bbc
1000989c:	200010cc 	.word	0x200010cc

100098a0 <tud_control_status>:
100098a0:	b570      	push	{r4, r5, r6, lr}
100098a2:	4c09      	ldr	r4, [pc, #36]	@ (100098c8 <tud_control_status+0x28>)
100098a4:	0006      	movs	r6, r0
100098a6:	2208      	movs	r2, #8
100098a8:	0020      	movs	r0, r4
100098aa:	000d      	movs	r5, r1
100098ac:	f7fe fb2c 	bl	10007f08 <__wrap___aeabi_memcpy>
100098b0:	2300      	movs	r3, #0
100098b2:	2180      	movs	r1, #128	@ 0x80
100098b4:	60e3      	str	r3, [r4, #12]
100098b6:	60a3      	str	r3, [r4, #8]
100098b8:	782b      	ldrb	r3, [r5, #0]
100098ba:	0030      	movs	r0, r6
100098bc:	4399      	bics	r1, r3
100098be:	2200      	movs	r2, #0
100098c0:	2300      	movs	r3, #0
100098c2:	f7ff ffc7 	bl	10009854 <usbd_edpt_xfer>
100098c6:	bd70      	pop	{r4, r5, r6, pc}
100098c8:	20001b60 	.word	0x20001b60

100098cc <tud_control_xfer>:
100098cc:	b5f8      	push	{r3, r4, r5, r6, r7, lr}
100098ce:	46ce      	mov	lr, r9
100098d0:	4647      	mov	r7, r8
100098d2:	4690      	mov	r8, r2
100098d4:	4e26      	ldr	r6, [pc, #152]	@ (10009970 <tud_control_xfer+0xa4>)
100098d6:	b580      	push	{r7, lr}
100098d8:	4681      	mov	r9, r0
100098da:	2208      	movs	r2, #8
100098dc:	0030      	movs	r0, r6
100098de:	000d      	movs	r5, r1
100098e0:	001f      	movs	r7, r3
100098e2:	f7fe fb11 	bl	10007f08 <__wrap___aeabi_memcpy>
100098e6:	4643      	mov	r3, r8
100098e8:	60b3      	str	r3, [r6, #8]
100098ea:	2300      	movs	r3, #0
100098ec:	81f3      	strh	r3, [r6, #14]
100098ee:	79ec      	ldrb	r4, [r5, #7]
100098f0:	79ab      	ldrb	r3, [r5, #6]
100098f2:	0224      	lsls	r4, r4, #8
100098f4:	431c      	orrs	r4, r3
100098f6:	1c23      	adds	r3, r4, #0
100098f8:	42bc      	cmp	r4, r7
100098fa:	d900      	bls.n	100098fe <tud_control_xfer+0x32>
100098fc:	1c3b      	adds	r3, r7, #0
100098fe:	b29f      	uxth	r7, r3
10009900:	81b3      	strh	r3, [r6, #12]
10009902:	2c00      	cmp	r4, #0
10009904:	d00e      	beq.n	10009924 <tud_control_xfer+0x58>
10009906:	2f00      	cmp	r7, #0
10009908:	d018      	beq.n	1000993c <tud_control_xfer+0x70>
1000990a:	4643      	mov	r3, r8
1000990c:	2b00      	cmp	r3, #0
1000990e:	d02c      	beq.n	1000996a <tud_control_xfer+0x9e>
10009910:	1c3b      	adds	r3, r7, #0
10009912:	2f40      	cmp	r7, #64	@ 0x40
10009914:	d81b      	bhi.n	1000994e <tud_control_xfer+0x82>
10009916:	b29f      	uxth	r7, r3
10009918:	7833      	ldrb	r3, [r6, #0]
1000991a:	2b7f      	cmp	r3, #127	@ 0x7f
1000991c:	d81c      	bhi.n	10009958 <tud_control_xfer+0x8c>
1000991e:	2100      	movs	r1, #0
10009920:	4a14      	ldr	r2, [pc, #80]	@ (10009974 <tud_control_xfer+0xa8>)
10009922:	e00f      	b.n	10009944 <tud_control_xfer+0x78>
10009924:	2180      	movs	r1, #128	@ 0x80
10009926:	782b      	ldrb	r3, [r5, #0]
10009928:	2200      	movs	r2, #0
1000992a:	4399      	bics	r1, r3
1000992c:	4648      	mov	r0, r9
1000992e:	2300      	movs	r3, #0
10009930:	f7ff ff90 	bl	10009854 <usbd_edpt_xfer>
10009934:	bcc0      	pop	{r6, r7}
10009936:	46b9      	mov	r9, r7
10009938:	46b0      	mov	r8, r6
1000993a:	bdf8      	pop	{r3, r4, r5, r6, r7, pc}
1000993c:	237f      	movs	r3, #127	@ 0x7f
1000993e:	2200      	movs	r2, #0
10009940:	7831      	ldrb	r1, [r6, #0]
10009942:	4399      	bics	r1, r3
10009944:	003b      	movs	r3, r7
10009946:	4648      	mov	r0, r9
10009948:	f7ff ff84 	bl	10009854 <usbd_edpt_xfer>
1000994c:	e7f2      	b.n	10009934 <tud_control_xfer+0x68>
1000994e:	2340      	movs	r3, #64	@ 0x40
10009950:	b29f      	uxth	r7, r3
10009952:	7833      	ldrb	r3, [r6, #0]
10009954:	2b7f      	cmp	r3, #127	@ 0x7f
10009956:	d9e2      	bls.n	1000991e <tud_control_xfer+0x52>
10009958:	4c06      	ldr	r4, [pc, #24]	@ (10009974 <tud_control_xfer+0xa8>)
1000995a:	003a      	movs	r2, r7
1000995c:	4641      	mov	r1, r8
1000995e:	0020      	movs	r0, r4
10009960:	f7fe fad2 	bl	10007f08 <__wrap___aeabi_memcpy>
10009964:	2180      	movs	r1, #128	@ 0x80
10009966:	0022      	movs	r2, r4
10009968:	e7ec      	b.n	10009944 <tud_control_xfer+0x78>
1000996a:	2000      	movs	r0, #0
1000996c:	e7e2      	b.n	10009934 <tud_control_xfer+0x68>
1000996e:	46c0      	nop			@ (mov r8, r8)
10009970:	20001b60 	.word	0x20001b60
10009974:	20001b7c 	.word	0x20001b7c

10009978 <usbd_control_reset>:
10009978:	b510      	push	{r4, lr}
1000997a:	2214      	movs	r2, #20
1000997c:	2100      	movs	r1, #0
1000997e:	4802      	ldr	r0, [pc, #8]	@ (10009988 <usbd_control_reset+0x10>)
10009980:	f7fe fabc 	bl	10007efc <__wrap_memset>
10009984:	bd10      	pop	{r4, pc}
10009986:	46c0      	nop			@ (mov r8, r8)
10009988:	20001b60 	.word	0x20001b60

1000998c <usbd_control_set_complete_callback>:
1000998c:	4b01      	ldr	r3, [pc, #4]	@ (10009994 <usbd_control_set_complete_callback+0x8>)
1000998e:	6118      	str	r0, [r3, #16]
10009990:	4770      	bx	lr
10009992:	46c0      	nop			@ (mov r8, r8)
10009994:	20001b60 	.word	0x20001b60

10009998 <usbd_control_set_request>:
10009998:	b510      	push	{r4, lr}
1000999a:	4c05      	ldr	r4, [pc, #20]	@ (100099b0 <usbd_control_set_request+0x18>)
1000999c:	0001      	movs	r1, r0
1000999e:	2208      	movs	r2, #8
100099a0:	0020      	movs	r0, r4
100099a2:	f7fe fab1 	bl	10007f08 <__wrap___aeabi_memcpy>
100099a6:	2300      	movs	r3, #0
100099a8:	60a3      	str	r3, [r4, #8]
100099aa:	60e3      	str	r3, [r4, #12]
100099ac:	bd10      	pop	{r4, pc}
100099ae:	46c0      	nop			@ (mov r8, r8)
100099b0:	20001b60 	.word	0x20001b60

100099b4 <usbd_control_xfer_cb>:
100099b4:	b570      	push	{r4, r5, r6, lr}
100099b6:	4c39      	ldr	r4, [pc, #228]	@ (10009a9c <usbd_control_xfer_cb+0xe8>)
100099b8:	001d      	movs	r5, r3
100099ba:	7823      	ldrb	r3, [r4, #0]
100099bc:	0006      	movs	r6, r0
100099be:	09da      	lsrs	r2, r3, #7
100099c0:	09c9      	lsrs	r1, r1, #7
100099c2:	428a      	cmp	r2, r1
100099c4:	d013      	beq.n	100099ee <usbd_control_xfer_cb+0x3a>
100099c6:	2000      	movs	r0, #0
100099c8:	2d00      	cmp	r5, #0
100099ca:	d000      	beq.n	100099ce <usbd_control_xfer_cb+0x1a>
100099cc:	bd70      	pop	{r4, r5, r6, pc}
100099ce:	4b34      	ldr	r3, [pc, #208]	@ (10009aa0 <usbd_control_xfer_cb+0xec>)
100099d0:	2b00      	cmp	r3, #0
100099d2:	d003      	beq.n	100099dc <usbd_control_xfer_cb+0x28>
100099d4:	0021      	movs	r1, r4
100099d6:	0030      	movs	r0, r6
100099d8:	f7ff f890 	bl	10008afc <dcd_edpt0_status_complete>
100099dc:	6923      	ldr	r3, [r4, #16]
100099de:	2b00      	cmp	r3, #0
100099e0:	d003      	beq.n	100099ea <usbd_control_xfer_cb+0x36>
100099e2:	0022      	movs	r2, r4
100099e4:	2103      	movs	r1, #3
100099e6:	0030      	movs	r0, r6
100099e8:	4798      	blx	r3
100099ea:	2001      	movs	r0, #1
100099ec:	e7ee      	b.n	100099cc <usbd_control_xfer_cb+0x18>
100099ee:	68a0      	ldr	r0, [r4, #8]
100099f0:	2b7f      	cmp	r3, #127	@ 0x7f
100099f2:	d805      	bhi.n	10009a00 <usbd_control_xfer_cb+0x4c>
100099f4:	2800      	cmp	r0, #0
100099f6:	d034      	beq.n	10009a62 <usbd_control_xfer_cb+0xae>
100099f8:	002a      	movs	r2, r5
100099fa:	492a      	ldr	r1, [pc, #168]	@ (10009aa4 <usbd_control_xfer_cb+0xf0>)
100099fc:	f7fe fa84 	bl	10007f08 <__wrap___aeabi_memcpy>
10009a00:	89e2      	ldrh	r2, [r4, #14]
10009a02:	68a1      	ldr	r1, [r4, #8]
10009a04:	1952      	adds	r2, r2, r5
10009a06:	88e3      	ldrh	r3, [r4, #6]
10009a08:	b292      	uxth	r2, r2
10009a0a:	1949      	adds	r1, r1, r5
10009a0c:	81e2      	strh	r2, [r4, #14]
10009a0e:	60a1      	str	r1, [r4, #8]
10009a10:	4293      	cmp	r3, r2
10009a12:	d014      	beq.n	10009a3e <usbd_control_xfer_cb+0x8a>
10009a14:	2d3f      	cmp	r5, #63	@ 0x3f
10009a16:	d912      	bls.n	10009a3e <usbd_control_xfer_cb+0x8a>
10009a18:	89a3      	ldrh	r3, [r4, #12]
10009a1a:	1a98      	subs	r0, r3, r2
10009a1c:	1c05      	adds	r5, r0, #0
10009a1e:	b280      	uxth	r0, r0
10009a20:	2840      	cmp	r0, #64	@ 0x40
10009a22:	d82a      	bhi.n	10009a7a <usbd_control_xfer_cb+0xc6>
10009a24:	7820      	ldrb	r0, [r4, #0]
10009a26:	b2ad      	uxth	r5, r5
10009a28:	287f      	cmp	r0, #127	@ 0x7f
10009a2a:	d828      	bhi.n	10009a7e <usbd_control_xfer_cb+0xca>
10009a2c:	2100      	movs	r1, #0
10009a2e:	429a      	cmp	r2, r3
10009a30:	d032      	beq.n	10009a98 <usbd_control_xfer_cb+0xe4>
10009a32:	4a1c      	ldr	r2, [pc, #112]	@ (10009aa4 <usbd_control_xfer_cb+0xf0>)
10009a34:	002b      	movs	r3, r5
10009a36:	0030      	movs	r0, r6
10009a38:	f7ff ff0c 	bl	10009854 <usbd_edpt_xfer>
10009a3c:	e7c6      	b.n	100099cc <usbd_control_xfer_cb+0x18>
10009a3e:	6923      	ldr	r3, [r4, #16]
10009a40:	2b00      	cmp	r3, #0
10009a42:	d005      	beq.n	10009a50 <usbd_control_xfer_cb+0x9c>
10009a44:	0022      	movs	r2, r4
10009a46:	2102      	movs	r1, #2
10009a48:	0030      	movs	r0, r6
10009a4a:	4798      	blx	r3
10009a4c:	2800      	cmp	r0, #0
10009a4e:	d00a      	beq.n	10009a66 <usbd_control_xfer_cb+0xb2>
10009a50:	2180      	movs	r1, #128	@ 0x80
10009a52:	7823      	ldrb	r3, [r4, #0]
10009a54:	2200      	movs	r2, #0
10009a56:	4399      	bics	r1, r3
10009a58:	0030      	movs	r0, r6
10009a5a:	2300      	movs	r3, #0
10009a5c:	f7ff fefa 	bl	10009854 <usbd_edpt_xfer>
10009a60:	e7b4      	b.n	100099cc <usbd_control_xfer_cb+0x18>
10009a62:	2000      	movs	r0, #0
10009a64:	e7b2      	b.n	100099cc <usbd_control_xfer_cb+0x18>
10009a66:	2100      	movs	r1, #0
10009a68:	0030      	movs	r0, r6
10009a6a:	f7ff f8ef 	bl	10008c4c <dcd_edpt_stall>
10009a6e:	0030      	movs	r0, r6
10009a70:	2180      	movs	r1, #128	@ 0x80
10009a72:	f7ff f8eb 	bl	10008c4c <dcd_edpt_stall>
10009a76:	2001      	movs	r0, #1
10009a78:	e7a8      	b.n	100099cc <usbd_control_xfer_cb+0x18>
10009a7a:	2540      	movs	r5, #64	@ 0x40
10009a7c:	e7d2      	b.n	10009a24 <usbd_control_xfer_cb+0x70>
10009a7e:	429a      	cmp	r2, r3
10009a80:	d007      	beq.n	10009a92 <usbd_control_xfer_cb+0xde>
10009a82:	4c08      	ldr	r4, [pc, #32]	@ (10009aa4 <usbd_control_xfer_cb+0xf0>)
10009a84:	002a      	movs	r2, r5
10009a86:	0020      	movs	r0, r4
10009a88:	f7fe fa3e 	bl	10007f08 <__wrap___aeabi_memcpy>
10009a8c:	2180      	movs	r1, #128	@ 0x80
10009a8e:	0022      	movs	r2, r4
10009a90:	e7d0      	b.n	10009a34 <usbd_control_xfer_cb+0x80>
10009a92:	2180      	movs	r1, #128	@ 0x80
10009a94:	2200      	movs	r2, #0
10009a96:	e7cd      	b.n	10009a34 <usbd_control_xfer_cb+0x80>
10009a98:	2200      	movs	r2, #0
10009a9a:	e7cb      	b.n	10009a34 <usbd_control_xfer_cb+0x80>
10009a9c:	20001b60 	.word	0x20001b60
10009aa0:	10008afd 	.word	0x10008afd
10009aa4:	20001b7c 	.word	0x20001b7c

10009aa8 <tud_cdc_n_connected>:
10009aa8:	b510      	push	{r4, lr}
10009aaa:	0004      	movs	r4, r0
10009aac:	f7ff f946 	bl	10008d3c <tud_mounted>
10009ab0:	2800      	cmp	r0, #0
10009ab2:	d101      	bne.n	10009ab8 <tud_cdc_n_connected+0x10>
10009ab4:	2000      	movs	r0, #0
10009ab6:	bd10      	pop	{r4, pc}
10009ab8:	f7ff f948 	bl	10008d4c <tud_suspended>
10009abc:	2800      	cmp	r0, #0
10009abe:	d1f9      	bne.n	10009ab4 <tud_cdc_n_connected+0xc>
10009ac0:	22b2      	movs	r2, #178	@ 0xb2
10009ac2:	0092      	lsls	r2, r2, #2
10009ac4:	4362      	muls	r2, r4
10009ac6:	4b03      	ldr	r3, [pc, #12]	@ (10009ad4 <tud_cdc_n_connected+0x2c>)
10009ac8:	3001      	adds	r0, #1
10009aca:	189b      	adds	r3, r3, r2
10009acc:	791b      	ldrb	r3, [r3, #4]
10009ace:	4018      	ands	r0, r3
10009ad0:	e7f1      	b.n	10009ab6 <tud_cdc_n_connected+0xe>
10009ad2:	46c0      	nop			@ (mov r8, r8)
10009ad4:	20001898 	.word	0x20001898

10009ad8 <tud_cdc_n_available>:
10009ad8:	23b2      	movs	r3, #178	@ 0xb2
10009ada:	009b      	lsls	r3, r3, #2
10009adc:	4343      	muls	r3, r0
10009ade:	b510      	push	{r4, lr}
10009ae0:	4802      	ldr	r0, [pc, #8]	@ (10009aec <tud_cdc_n_available+0x14>)
10009ae2:	1818      	adds	r0, r3, r0
10009ae4:	f000 fb50 	bl	1000a188 <tu_fifo_count>
10009ae8:	bd10      	pop	{r4, pc}
10009aea:	46c0      	nop			@ (mov r8, r8)
10009aec:	200018a8 	.word	0x200018a8

10009af0 <tud_cdc_n_read>:
10009af0:	b5f0      	push	{r4, r5, r6, r7, lr}
10009af2:	25b2      	movs	r5, #178	@ 0xb2
10009af4:	00ad      	lsls	r5, r5, #2
10009af6:	4345      	muls	r5, r0
10009af8:	002c      	movs	r4, r5
10009afa:	46c6      	mov	lr, r8
10009afc:	4f17      	ldr	r7, [pc, #92]	@ (10009b5c <tud_cdc_n_read+0x6c>)
10009afe:	3410      	adds	r4, #16
10009b00:	19e4      	adds	r4, r4, r7
10009b02:	b500      	push	{lr}
10009b04:	0020      	movs	r0, r4
10009b06:	b292      	uxth	r2, r2
10009b08:	f000 fbc0 	bl	1000a28c <tu_fifo_read_n>
10009b0c:	0006      	movs	r6, r0
10009b0e:	0020      	movs	r0, r4
10009b10:	f000 fb58 	bl	1000a1c4 <tu_fifo_remaining>
10009b14:	283f      	cmp	r0, #63	@ 0x3f
10009b16:	d803      	bhi.n	10009b20 <tud_cdc_n_read+0x30>
10009b18:	0030      	movs	r0, r6
10009b1a:	bc80      	pop	{r7}
10009b1c:	46b8      	mov	r8, r7
10009b1e:	bdf0      	pop	{r4, r5, r6, r7, pc}
10009b20:	197b      	adds	r3, r7, r5
10009b22:	2000      	movs	r0, #0
10009b24:	78d9      	ldrb	r1, [r3, #3]
10009b26:	4698      	mov	r8, r3
10009b28:	f7ff fe6c 	bl	10009804 <usbd_edpt_claim>
10009b2c:	2800      	cmp	r0, #0
10009b2e:	d0f3      	beq.n	10009b18 <tud_cdc_n_read+0x28>
10009b30:	0020      	movs	r0, r4
10009b32:	f000 fb47 	bl	1000a1c4 <tu_fifo_remaining>
10009b36:	283f      	cmp	r0, #63	@ 0x3f
10009b38:	d90a      	bls.n	10009b50 <tud_cdc_n_read+0x60>
10009b3a:	2392      	movs	r3, #146	@ 0x92
10009b3c:	009b      	lsls	r3, r3, #2
10009b3e:	18ea      	adds	r2, r5, r3
10009b40:	4643      	mov	r3, r8
10009b42:	19d2      	adds	r2, r2, r7
10009b44:	78d9      	ldrb	r1, [r3, #3]
10009b46:	2000      	movs	r0, #0
10009b48:	2340      	movs	r3, #64	@ 0x40
10009b4a:	f7ff fe83 	bl	10009854 <usbd_edpt_xfer>
10009b4e:	e7e3      	b.n	10009b18 <tud_cdc_n_read+0x28>
10009b50:	4643      	mov	r3, r8
10009b52:	2000      	movs	r0, #0
10009b54:	78d9      	ldrb	r1, [r3, #3]
10009b56:	f7ff fe69 	bl	1000982c <usbd_edpt_release>
10009b5a:	e7dd      	b.n	10009b18 <tud_cdc_n_read+0x28>
10009b5c:	20001898 	.word	0x20001898

10009b60 <tud_cdc_n_write_flush>:
10009b60:	b5f8      	push	{r3, r4, r5, r6, r7, lr}
10009b62:	0004      	movs	r4, r0
10009b64:	f7ff f8ea 	bl	10008d3c <tud_mounted>
10009b68:	2800      	cmp	r0, #0
10009b6a:	d101      	bne.n	10009b70 <tud_cdc_n_write_flush+0x10>
10009b6c:	2000      	movs	r0, #0
10009b6e:	bdf8      	pop	{r3, r4, r5, r6, r7, pc}
10009b70:	f7ff f8ec 	bl	10008d4c <tud_suspended>
10009b74:	2800      	cmp	r0, #0
10009b76:	d1f9      	bne.n	10009b6c <tud_cdc_n_write_flush+0xc>
10009b78:	23b2      	movs	r3, #178	@ 0xb2
10009b7a:	009b      	lsls	r3, r3, #2
10009b7c:	435c      	muls	r4, r3
10009b7e:	0025      	movs	r5, r4
10009b80:	4e14      	ldr	r6, [pc, #80]	@ (10009bd4 <tud_cdc_n_write_flush+0x74>)
10009b82:	3524      	adds	r5, #36	@ 0x24
10009b84:	19ad      	adds	r5, r5, r6
10009b86:	0028      	movs	r0, r5
10009b88:	f000 fafe 	bl	1000a188 <tu_fifo_count>
10009b8c:	2800      	cmp	r0, #0
10009b8e:	d0ed      	beq.n	10009b6c <tud_cdc_n_write_flush+0xc>
10009b90:	1937      	adds	r7, r6, r4
10009b92:	2000      	movs	r0, #0
10009b94:	78b9      	ldrb	r1, [r7, #2]
10009b96:	f7ff fe35 	bl	10009804 <usbd_edpt_claim>
10009b9a:	2800      	cmp	r0, #0
10009b9c:	d0e6      	beq.n	10009b6c <tud_cdc_n_write_flush+0xc>
10009b9e:	23a2      	movs	r3, #162	@ 0xa2
10009ba0:	009b      	lsls	r3, r3, #2
10009ba2:	469c      	mov	ip, r3
10009ba4:	4464      	add	r4, ip
10009ba6:	19a4      	adds	r4, r4, r6
10009ba8:	0021      	movs	r1, r4
10009baa:	0028      	movs	r0, r5
10009bac:	2240      	movs	r2, #64	@ 0x40
10009bae:	f000 fb6d 	bl	1000a28c <tu_fifo_read_n>
10009bb2:	78b9      	ldrb	r1, [r7, #2]
10009bb4:	1e05      	subs	r5, r0, #0
10009bb6:	d008      	beq.n	10009bca <tud_cdc_n_write_flush+0x6a>
10009bb8:	0003      	movs	r3, r0
10009bba:	0022      	movs	r2, r4
10009bbc:	2000      	movs	r0, #0
10009bbe:	f7ff fe49 	bl	10009854 <usbd_edpt_xfer>
10009bc2:	2800      	cmp	r0, #0
10009bc4:	d0d2      	beq.n	10009b6c <tud_cdc_n_write_flush+0xc>
10009bc6:	0028      	movs	r0, r5
10009bc8:	e7d1      	b.n	10009b6e <tud_cdc_n_write_flush+0xe>
10009bca:	2000      	movs	r0, #0
10009bcc:	f7ff fe2e 	bl	1000982c <usbd_edpt_release>
10009bd0:	e7cc      	b.n	10009b6c <tud_cdc_n_write_flush+0xc>
10009bd2:	46c0      	nop			@ (mov r8, r8)
10009bd4:	20001898 	.word	0x20001898

10009bd8 <tud_cdc_n_write>:
10009bd8:	b570      	push	{r4, r5, r6, lr}
10009bda:	24b2      	movs	r4, #178	@ 0xb2
10009bdc:	00a4      	lsls	r4, r4, #2
10009bde:	4344      	muls	r4, r0
10009be0:	4b09      	ldr	r3, [pc, #36]	@ (10009c08 <tud_cdc_n_write+0x30>)
10009be2:	0005      	movs	r5, r0
10009be4:	18e4      	adds	r4, r4, r3
10009be6:	0020      	movs	r0, r4
10009be8:	b292      	uxth	r2, r2
10009bea:	f000 fc07 	bl	1000a3fc <tu_fifo_write_n>
10009bee:	0006      	movs	r6, r0
10009bf0:	0020      	movs	r0, r4
10009bf2:	f000 fac9 	bl	1000a188 <tu_fifo_count>
10009bf6:	283f      	cmp	r0, #63	@ 0x3f
10009bf8:	d801      	bhi.n	10009bfe <tud_cdc_n_write+0x26>
10009bfa:	0030      	movs	r0, r6
10009bfc:	bd70      	pop	{r4, r5, r6, pc}
10009bfe:	0028      	movs	r0, r5
10009c00:	f7ff ffae 	bl	10009b60 <tud_cdc_n_write_flush>
10009c04:	e7f9      	b.n	10009bfa <tud_cdc_n_write+0x22>
10009c06:	46c0      	nop			@ (mov r8, r8)
10009c08:	200018bc 	.word	0x200018bc

10009c0c <tud_cdc_n_write_available>:
10009c0c:	23b2      	movs	r3, #178	@ 0xb2
10009c0e:	009b      	lsls	r3, r3, #2
10009c10:	4343      	muls	r3, r0
10009c12:	b510      	push	{r4, lr}
10009c14:	4802      	ldr	r0, [pc, #8]	@ (10009c20 <tud_cdc_n_write_available+0x14>)
10009c16:	1818      	adds	r0, r3, r0
10009c18:	f000 fad4 	bl	1000a1c4 <tu_fifo_remaining>
10009c1c:	bd10      	pop	{r4, pc}
10009c1e:	46c0      	nop			@ (mov r8, r8)
10009c20:	200018bc 	.word	0x200018bc

10009c24 <cdcd_init>:
10009c24:	22b2      	movs	r2, #178	@ 0xb2
10009c26:	b5f0      	push	{r4, r5, r6, r7, lr}
10009c28:	4c1b      	ldr	r4, [pc, #108]	@ (10009c98 <cdcd_init+0x74>)
10009c2a:	b083      	sub	sp, #12
10009c2c:	2100      	movs	r1, #0
10009c2e:	0020      	movs	r0, r4
10009c30:	0092      	lsls	r2, r2, #2
10009c32:	f7fe f963 	bl	10007efc <__wrap_memset>
10009c36:	23ff      	movs	r3, #255	@ 0xff
10009c38:	7163      	strb	r3, [r4, #5]
10009c3a:	4b18      	ldr	r3, [pc, #96]	@ (10009c9c <cdcd_init+0x78>)
10009c3c:	2680      	movs	r6, #128	@ 0x80
10009c3e:	2500      	movs	r5, #0
10009c40:	80e3      	strh	r3, [r4, #6]
10009c42:	2701      	movs	r7, #1
10009c44:	2308      	movs	r3, #8
10009c46:	0021      	movs	r1, r4
10009c48:	0020      	movs	r0, r4
10009c4a:	0076      	lsls	r6, r6, #1
10009c4c:	7323      	strb	r3, [r4, #12]
10009c4e:	0032      	movs	r2, r6
10009c50:	8127      	strh	r7, [r4, #8]
10009c52:	3138      	adds	r1, #56	@ 0x38
10009c54:	9500      	str	r5, [sp, #0]
10009c56:	3b07      	subs	r3, #7
10009c58:	3010      	adds	r0, #16
10009c5a:	f000 fa5f 	bl	1000a11c <tu_fifo_config>
10009c5e:	0021      	movs	r1, r4
10009c60:	0020      	movs	r0, r4
10009c62:	3139      	adds	r1, #57	@ 0x39
10009c64:	0032      	movs	r2, r6
10009c66:	31ff      	adds	r1, #255	@ 0xff
10009c68:	2301      	movs	r3, #1
10009c6a:	9700      	str	r7, [sp, #0]
10009c6c:	3024      	adds	r0, #36	@ 0x24
10009c6e:	f000 fa55 	bl	1000a11c <tu_fifo_config>
10009c72:	238e      	movs	r3, #142	@ 0x8e
10009c74:	009b      	lsls	r3, r3, #2
10009c76:	18e6      	adds	r6, r4, r3
10009c78:	0030      	movs	r0, r6
10009c7a:	f7fa fac7 	bl	1000420c <mutex_init>
10009c7e:	2390      	movs	r3, #144	@ 0x90
10009c80:	009b      	lsls	r3, r3, #2
10009c82:	6226      	str	r6, [r4, #32]
10009c84:	18e6      	adds	r6, r4, r3
10009c86:	0030      	movs	r0, r6
10009c88:	61e5      	str	r5, [r4, #28]
10009c8a:	f7fa fabf 	bl	1000420c <mutex_init>
10009c8e:	6326      	str	r6, [r4, #48]	@ 0x30
10009c90:	6365      	str	r5, [r4, #52]	@ 0x34
10009c92:	b003      	add	sp, #12
10009c94:	bdf0      	pop	{r4, r5, r6, r7, pc}
10009c96:	46c0      	nop			@ (mov r8, r8)
10009c98:	20001898 	.word	0x20001898
10009c9c:	ffffc200 	.word	0xffffc200

10009ca0 <cdcd_reset>:
10009ca0:	b510      	push	{r4, lr}
10009ca2:	4c09      	ldr	r4, [pc, #36]	@ (10009cc8 <cdcd_reset+0x28>)
10009ca4:	2205      	movs	r2, #5
10009ca6:	2100      	movs	r1, #0
10009ca8:	0020      	movs	r0, r4
10009caa:	f7fe f927 	bl	10007efc <__wrap_memset>
10009cae:	0020      	movs	r0, r4
10009cb0:	3424      	adds	r4, #36	@ 0x24
10009cb2:	3010      	adds	r0, #16
10009cb4:	f000 fc5e 	bl	1000a574 <tu_fifo_clear>
10009cb8:	0020      	movs	r0, r4
10009cba:	f000 fc5b 	bl	1000a574 <tu_fifo_clear>
10009cbe:	2101      	movs	r1, #1
10009cc0:	0020      	movs	r0, r4
10009cc2:	f000 fc77 	bl	1000a5b4 <tu_fifo_set_overwritable>
10009cc6:	bd10      	pop	{r4, pc}
10009cc8:	20001898 	.word	0x20001898

10009ccc <cdcd_open>:
10009ccc:	b5f0      	push	{r4, r5, r6, r7, lr}
10009cce:	794b      	ldrb	r3, [r1, #5]
10009cd0:	0006      	movs	r6, r0
10009cd2:	b083      	sub	sp, #12
10009cd4:	2b02      	cmp	r3, #2
10009cd6:	d102      	bne.n	10009cde <cdcd_open+0x12>
10009cd8:	798b      	ldrb	r3, [r1, #6]
10009cda:	2b02      	cmp	r3, #2
10009cdc:	d003      	beq.n	10009ce6 <cdcd_open+0x1a>
10009cde:	2500      	movs	r5, #0
10009ce0:	0028      	movs	r0, r5
10009ce2:	b003      	add	sp, #12
10009ce4:	bdf0      	pop	{r4, r5, r6, r7, pc}
10009ce6:	4f2f      	ldr	r7, [pc, #188]	@ (10009da4 <cdcd_open+0xd8>)
10009ce8:	78bb      	ldrb	r3, [r7, #2]
10009cea:	2b00      	cmp	r3, #0
10009cec:	d1f7      	bne.n	10009cde <cdcd_open+0x12>
10009cee:	788b      	ldrb	r3, [r1, #2]
10009cf0:	2509      	movs	r5, #9
10009cf2:	703b      	strb	r3, [r7, #0]
10009cf4:	780c      	ldrb	r4, [r1, #0]
10009cf6:	190c      	adds	r4, r1, r4
10009cf8:	7863      	ldrb	r3, [r4, #1]
10009cfa:	2b24      	cmp	r3, #36	@ 0x24
10009cfc:	d10b      	bne.n	10009d16 <cdcd_open+0x4a>
10009cfe:	2a08      	cmp	r2, #8
10009d00:	d802      	bhi.n	10009d08 <cdcd_open+0x3c>
10009d02:	e01f      	b.n	10009d44 <cdcd_open+0x78>
10009d04:	42aa      	cmp	r2, r5
10009d06:	d31d      	bcc.n	10009d44 <cdcd_open+0x78>
10009d08:	7823      	ldrb	r3, [r4, #0]
10009d0a:	18e4      	adds	r4, r4, r3
10009d0c:	195d      	adds	r5, r3, r5
10009d0e:	7863      	ldrb	r3, [r4, #1]
10009d10:	b2ad      	uxth	r5, r5
10009d12:	2b24      	cmp	r3, #36	@ 0x24
10009d14:	d0f6      	beq.n	10009d04 <cdcd_open+0x38>
10009d16:	2b05      	cmp	r3, #5
10009d18:	d031      	beq.n	10009d7e <cdcd_open+0xb2>
10009d1a:	2b04      	cmp	r3, #4
10009d1c:	d112      	bne.n	10009d44 <cdcd_open+0x78>
10009d1e:	7963      	ldrb	r3, [r4, #5]
10009d20:	2b0a      	cmp	r3, #10
10009d22:	d10f      	bne.n	10009d44 <cdcd_open+0x78>
10009d24:	4b20      	ldr	r3, [pc, #128]	@ (10009da8 <cdcd_open+0xdc>)
10009d26:	7827      	ldrb	r7, [r4, #0]
10009d28:	9301      	str	r3, [sp, #4]
10009d2a:	3301      	adds	r3, #1
10009d2c:	9300      	str	r3, [sp, #0]
10009d2e:	2202      	movs	r2, #2
10009d30:	2302      	movs	r3, #2
10009d32:	0030      	movs	r0, r6
10009d34:	19e1      	adds	r1, r4, r7
10009d36:	f7ff fcd9 	bl	100096ec <usbd_open_edpt_pair>
10009d3a:	2800      	cmp	r0, #0
10009d3c:	d0cf      	beq.n	10009cde <cdcd_open+0x12>
10009d3e:	350e      	adds	r5, #14
10009d40:	19ed      	adds	r5, r5, r7
10009d42:	b2ad      	uxth	r5, r5
10009d44:	4c19      	ldr	r4, [pc, #100]	@ (10009dac <cdcd_open+0xe0>)
10009d46:	0020      	movs	r0, r4
10009d48:	f000 fa3c 	bl	1000a1c4 <tu_fifo_remaining>
10009d4c:	283f      	cmp	r0, #63	@ 0x3f
10009d4e:	d9c7      	bls.n	10009ce0 <cdcd_open+0x14>
10009d50:	0026      	movs	r6, r4
10009d52:	3e10      	subs	r6, #16
10009d54:	2000      	movs	r0, #0
10009d56:	78f1      	ldrb	r1, [r6, #3]
10009d58:	f7ff fd54 	bl	10009804 <usbd_edpt_claim>
10009d5c:	2800      	cmp	r0, #0
10009d5e:	d0bf      	beq.n	10009ce0 <cdcd_open+0x14>
10009d60:	0020      	movs	r0, r4
10009d62:	f000 fa2f 	bl	1000a1c4 <tu_fifo_remaining>
10009d66:	283f      	cmp	r0, #63	@ 0x3f
10009d68:	d917      	bls.n	10009d9a <cdcd_open+0xce>
10009d6a:	238e      	movs	r3, #142	@ 0x8e
10009d6c:	009b      	lsls	r3, r3, #2
10009d6e:	18e2      	adds	r2, r4, r3
10009d70:	3bf9      	subs	r3, #249	@ 0xf9
10009d72:	78f1      	ldrb	r1, [r6, #3]
10009d74:	3bff      	subs	r3, #255	@ 0xff
10009d76:	2000      	movs	r0, #0
10009d78:	f7ff fd6c 	bl	10009854 <usbd_edpt_xfer>
10009d7c:	e7b0      	b.n	10009ce0 <cdcd_open+0x14>
10009d7e:	0021      	movs	r1, r4
10009d80:	0030      	movs	r0, r6
10009d82:	f7ff fd25 	bl	100097d0 <usbd_edpt_open>
10009d86:	2800      	cmp	r0, #0
10009d88:	d0a9      	beq.n	10009cde <cdcd_open+0x12>
10009d8a:	78a3      	ldrb	r3, [r4, #2]
10009d8c:	707b      	strb	r3, [r7, #1]
10009d8e:	7823      	ldrb	r3, [r4, #0]
10009d90:	195d      	adds	r5, r3, r5
10009d92:	18e4      	adds	r4, r4, r3
10009d94:	7863      	ldrb	r3, [r4, #1]
10009d96:	b2ad      	uxth	r5, r5
10009d98:	e7bf      	b.n	10009d1a <cdcd_open+0x4e>
10009d9a:	78f1      	ldrb	r1, [r6, #3]
10009d9c:	2000      	movs	r0, #0
10009d9e:	f7ff fd45 	bl	1000982c <usbd_edpt_release>
10009da2:	e79d      	b.n	10009ce0 <cdcd_open+0x14>
10009da4:	20001898 	.word	0x20001898
10009da8:	2000189a 	.word	0x2000189a
10009dac:	200018a8 	.word	0x200018a8

10009db0 <cdcd_control_xfer_cb>:
10009db0:	b5f8      	push	{r3, r4, r5, r6, r7, lr}
10009db2:	2360      	movs	r3, #96	@ 0x60
10009db4:	0014      	movs	r4, r2
10009db6:	7812      	ldrb	r2, [r2, #0]
10009db8:	0005      	movs	r5, r0
10009dba:	4013      	ands	r3, r2
10009dbc:	2000      	movs	r0, #0
10009dbe:	2b20      	cmp	r3, #32
10009dc0:	d112      	bne.n	10009de8 <cdcd_control_xfer_cb+0x38>
10009dc2:	4a2f      	ldr	r2, [pc, #188]	@ (10009e80 <cdcd_control_xfer_cb+0xd0>)
10009dc4:	7963      	ldrb	r3, [r4, #5]
10009dc6:	7927      	ldrb	r7, [r4, #4]
10009dc8:	7816      	ldrb	r6, [r2, #0]
10009dca:	021b      	lsls	r3, r3, #8
10009dcc:	433b      	orrs	r3, r7
10009dce:	429e      	cmp	r6, r3
10009dd0:	d10a      	bne.n	10009de8 <cdcd_control_xfer_cb+0x38>
10009dd2:	7863      	ldrb	r3, [r4, #1]
10009dd4:	2b22      	cmp	r3, #34	@ 0x22
10009dd6:	d027      	beq.n	10009e28 <cdcd_control_xfer_cb+0x78>
10009dd8:	d807      	bhi.n	10009dea <cdcd_control_xfer_cb+0x3a>
10009dda:	2b20      	cmp	r3, #32
10009ddc:	d017      	beq.n	10009e0e <cdcd_control_xfer_cb+0x5e>
10009dde:	2b21      	cmp	r3, #33	@ 0x21
10009de0:	d102      	bne.n	10009de8 <cdcd_control_xfer_cb+0x38>
10009de2:	2901      	cmp	r1, #1
10009de4:	d03d      	beq.n	10009e62 <cdcd_control_xfer_cb+0xb2>
10009de6:	2001      	movs	r0, #1
10009de8:	bdf8      	pop	{r3, r4, r5, r6, r7, pc}
10009dea:	2b23      	cmp	r3, #35	@ 0x23
10009dec:	d1fc      	bne.n	10009de8 <cdcd_control_xfer_cb+0x38>
10009dee:	2901      	cmp	r1, #1
10009df0:	d03f      	beq.n	10009e72 <cdcd_control_xfer_cb+0xc2>
10009df2:	2903      	cmp	r1, #3
10009df4:	d1f7      	bne.n	10009de6 <cdcd_control_xfer_cb+0x36>
10009df6:	4b23      	ldr	r3, [pc, #140]	@ (10009e84 <cdcd_control_xfer_cb+0xd4>)
10009df8:	2b00      	cmp	r3, #0
10009dfa:	d0f4      	beq.n	10009de6 <cdcd_control_xfer_cb+0x36>
10009dfc:	78e1      	ldrb	r1, [r4, #3]
10009dfe:	78a3      	ldrb	r3, [r4, #2]
10009e00:	0209      	lsls	r1, r1, #8
10009e02:	2000      	movs	r0, #0
10009e04:	4319      	orrs	r1, r3
10009e06:	e000      	b.n	10009e0a <cdcd_control_xfer_cb+0x5a>
10009e08:	bf00      	nop
10009e0a:	2001      	movs	r0, #1
10009e0c:	e7ec      	b.n	10009de8 <cdcd_control_xfer_cb+0x38>
10009e0e:	2901      	cmp	r1, #1
10009e10:	d027      	beq.n	10009e62 <cdcd_control_xfer_cb+0xb2>
10009e12:	2903      	cmp	r1, #3
10009e14:	d1e7      	bne.n	10009de6 <cdcd_control_xfer_cb+0x36>
10009e16:	4b1c      	ldr	r3, [pc, #112]	@ (10009e88 <cdcd_control_xfer_cb+0xd8>)
10009e18:	2b00      	cmp	r3, #0
10009e1a:	d0e4      	beq.n	10009de6 <cdcd_control_xfer_cb+0x36>
10009e1c:	2000      	movs	r0, #0
10009e1e:	1d91      	adds	r1, r2, #6
10009e20:	f7fe fad4 	bl	100083cc <tud_cdc_line_coding_cb>
10009e24:	2001      	movs	r0, #1
10009e26:	e7df      	b.n	10009de8 <cdcd_control_xfer_cb+0x38>
10009e28:	2901      	cmp	r1, #1
10009e2a:	d022      	beq.n	10009e72 <cdcd_control_xfer_cb+0xc2>
10009e2c:	2903      	cmp	r1, #3
10009e2e:	d1da      	bne.n	10009de6 <cdcd_control_xfer_cb+0x36>
10009e30:	2501      	movs	r5, #1
10009e32:	002e      	movs	r6, r5
10009e34:	78a3      	ldrb	r3, [r4, #2]
10009e36:	78e4      	ldrb	r4, [r4, #3]
10009e38:	3902      	subs	r1, #2
10009e3a:	0224      	lsls	r4, r4, #8
10009e3c:	431c      	orrs	r4, r3
10009e3e:	7114      	strb	r4, [r2, #4]
10009e40:	4026      	ands	r6, r4
10009e42:	3224      	adds	r2, #36	@ 0x24
10009e44:	0010      	movs	r0, r2
10009e46:	4071      	eors	r1, r6
10009e48:	f000 fbb4 	bl	1000a5b4 <tu_fifo_set_overwritable>
10009e4c:	4b0f      	ldr	r3, [pc, #60]	@ (10009e8c <cdcd_control_xfer_cb+0xdc>)
10009e4e:	2b00      	cmp	r3, #0
10009e50:	d0c9      	beq.n	10009de6 <cdcd_control_xfer_cb+0x36>
10009e52:	0862      	lsrs	r2, r4, #1
10009e54:	2000      	movs	r0, #0
10009e56:	0031      	movs	r1, r6
10009e58:	402a      	ands	r2, r5
10009e5a:	e000      	b.n	10009e5e <cdcd_control_xfer_cb+0xae>
10009e5c:	bf00      	nop
10009e5e:	2001      	movs	r0, #1
10009e60:	e7c2      	b.n	10009de8 <cdcd_control_xfer_cb+0x38>
10009e62:	2307      	movs	r3, #7
10009e64:	0021      	movs	r1, r4
10009e66:	0028      	movs	r0, r5
10009e68:	4a09      	ldr	r2, [pc, #36]	@ (10009e90 <cdcd_control_xfer_cb+0xe0>)
10009e6a:	f7ff fd2f 	bl	100098cc <tud_control_xfer>
10009e6e:	2001      	movs	r0, #1
10009e70:	e7ba      	b.n	10009de8 <cdcd_control_xfer_cb+0x38>
10009e72:	0021      	movs	r1, r4
10009e74:	0028      	movs	r0, r5
10009e76:	f7ff fd13 	bl	100098a0 <tud_control_status>
10009e7a:	2001      	movs	r0, #1
10009e7c:	e7b4      	b.n	10009de8 <cdcd_control_xfer_cb+0x38>
10009e7e:	46c0      	nop			@ (mov r8, r8)
10009e80:	20001898 	.word	0x20001898
10009e84:	00000000 	.word	0x00000000
10009e88:	100083cd 	.word	0x100083cd
10009e8c:	00000000 	.word	0x00000000
10009e90:	2000189e 	.word	0x2000189e

10009e94 <cdcd_xfer_cb>:
10009e94:	b5f8      	push	{r3, r4, r5, r6, r7, lr}
10009e96:	4645      	mov	r5, r8
10009e98:	4657      	mov	r7, sl
10009e9a:	46de      	mov	lr, fp
10009e9c:	464e      	mov	r6, r9
10009e9e:	b5e0      	push	{r5, r6, r7, lr}
10009ea0:	4d46      	ldr	r5, [pc, #280]	@ (10009fbc <cdcd_xfer_cb+0x128>)
10009ea2:	001f      	movs	r7, r3
10009ea4:	78ea      	ldrb	r2, [r5, #3]
10009ea6:	4680      	mov	r8, r0
10009ea8:	000c      	movs	r4, r1
10009eaa:	78ab      	ldrb	r3, [r5, #2]
10009eac:	428a      	cmp	r2, r1
10009eae:	d046      	beq.n	10009f3e <cdcd_xfer_cb+0xaa>
10009eb0:	2000      	movs	r0, #0
10009eb2:	428b      	cmp	r3, r1
10009eb4:	d01a      	beq.n	10009eec <cdcd_xfer_cb+0x58>
10009eb6:	bcf0      	pop	{r4, r5, r6, r7}
10009eb8:	46bb      	mov	fp, r7
10009eba:	46b2      	mov	sl, r6
10009ebc:	46a9      	mov	r9, r5
10009ebe:	46a0      	mov	r8, r4
10009ec0:	bdf8      	pop	{r3, r4, r5, r6, r7, pc}
10009ec2:	4b3f      	ldr	r3, [pc, #252]	@ (10009fc0 <cdcd_xfer_cb+0x12c>)
10009ec4:	2b00      	cmp	r3, #0
10009ec6:	d004      	beq.n	10009ed2 <cdcd_xfer_cb+0x3e>
10009ec8:	4648      	mov	r0, r9
10009eca:	f000 f973 	bl	1000a1b4 <tu_fifo_empty>
10009ece:	2800      	cmp	r0, #0
10009ed0:	d06c      	beq.n	10009fac <cdcd_xfer_cb+0x118>
10009ed2:	4648      	mov	r0, r9
10009ed4:	f000 f976 	bl	1000a1c4 <tu_fifo_remaining>
10009ed8:	283f      	cmp	r0, #63	@ 0x3f
10009eda:	d907      	bls.n	10009eec <cdcd_xfer_cb+0x58>
10009edc:	464e      	mov	r6, r9
10009ede:	3e10      	subs	r6, #16
10009ee0:	2000      	movs	r0, #0
10009ee2:	78f1      	ldrb	r1, [r6, #3]
10009ee4:	f7ff fc8e 	bl	10009804 <usbd_edpt_claim>
10009ee8:	2800      	cmp	r0, #0
10009eea:	d151      	bne.n	10009f90 <cdcd_xfer_cb+0xfc>
10009eec:	78ab      	ldrb	r3, [r5, #2]
10009eee:	42a3      	cmp	r3, r4
10009ef0:	d001      	beq.n	10009ef6 <cdcd_xfer_cb+0x62>
10009ef2:	2001      	movs	r0, #1
10009ef4:	e7df      	b.n	10009eb6 <cdcd_xfer_cb+0x22>
10009ef6:	4b33      	ldr	r3, [pc, #204]	@ (10009fc4 <cdcd_xfer_cb+0x130>)
10009ef8:	2b00      	cmp	r3, #0
10009efa:	d002      	beq.n	10009f02 <cdcd_xfer_cb+0x6e>
10009efc:	2000      	movs	r0, #0
10009efe:	e000      	b.n	10009f02 <cdcd_xfer_cb+0x6e>
10009f00:	bf00      	nop
10009f02:	2000      	movs	r0, #0
10009f04:	f7ff fe2c 	bl	10009b60 <tud_cdc_n_write_flush>
10009f08:	2800      	cmp	r0, #0
10009f0a:	d1f2      	bne.n	10009ef2 <cdcd_xfer_cb+0x5e>
10009f0c:	4c2e      	ldr	r4, [pc, #184]	@ (10009fc8 <cdcd_xfer_cb+0x134>)
10009f0e:	0020      	movs	r0, r4
10009f10:	f000 f93a 	bl	1000a188 <tu_fifo_count>
10009f14:	2800      	cmp	r0, #0
10009f16:	d1ec      	bne.n	10009ef2 <cdcd_xfer_cb+0x5e>
10009f18:	2f00      	cmp	r7, #0
10009f1a:	d0ea      	beq.n	10009ef2 <cdcd_xfer_cb+0x5e>
10009f1c:	06bf      	lsls	r7, r7, #26
10009f1e:	d1e8      	bne.n	10009ef2 <cdcd_xfer_cb+0x5e>
10009f20:	3c24      	subs	r4, #36	@ 0x24
10009f22:	4640      	mov	r0, r8
10009f24:	78a1      	ldrb	r1, [r4, #2]
10009f26:	f7ff fc6d 	bl	10009804 <usbd_edpt_claim>
10009f2a:	2800      	cmp	r0, #0
10009f2c:	d0e1      	beq.n	10009ef2 <cdcd_xfer_cb+0x5e>
10009f2e:	2300      	movs	r3, #0
10009f30:	2200      	movs	r2, #0
10009f32:	4640      	mov	r0, r8
10009f34:	78a1      	ldrb	r1, [r4, #2]
10009f36:	f7ff fc8d 	bl	10009854 <usbd_edpt_xfer>
10009f3a:	2001      	movs	r0, #1
10009f3c:	e7bb      	b.n	10009eb6 <cdcd_xfer_cb+0x22>
10009f3e:	2392      	movs	r3, #146	@ 0x92
10009f40:	009b      	lsls	r3, r3, #2
10009f42:	18ee      	adds	r6, r5, r3
10009f44:	2310      	movs	r3, #16
10009f46:	469b      	mov	fp, r3
10009f48:	44ab      	add	fp, r5
10009f4a:	0031      	movs	r1, r6
10009f4c:	4658      	mov	r0, fp
10009f4e:	b2ba      	uxth	r2, r7
10009f50:	f000 fa54 	bl	1000a3fc <tu_fifo_write_n>
10009f54:	4b1d      	ldr	r3, [pc, #116]	@ (10009fcc <cdcd_xfer_cb+0x138>)
10009f56:	46d9      	mov	r9, fp
10009f58:	2b00      	cmp	r3, #0
10009f5a:	d0b2      	beq.n	10009ec2 <cdcd_xfer_cb+0x2e>
10009f5c:	796b      	ldrb	r3, [r5, #5]
10009f5e:	2bff      	cmp	r3, #255	@ 0xff
10009f60:	d0af      	beq.n	10009ec2 <cdcd_xfer_cb+0x2e>
10009f62:	2f00      	cmp	r7, #0
10009f64:	d0ad      	beq.n	10009ec2 <cdcd_xfer_cb+0x2e>
10009f66:	19f2      	adds	r2, r6, r7
10009f68:	4692      	mov	sl, r2
10009f6a:	e003      	b.n	10009f74 <cdcd_xfer_cb+0xe0>
10009f6c:	3601      	adds	r6, #1
10009f6e:	45b2      	cmp	sl, r6
10009f70:	d0a7      	beq.n	10009ec2 <cdcd_xfer_cb+0x2e>
10009f72:	796b      	ldrb	r3, [r5, #5]
10009f74:	7832      	ldrb	r2, [r6, #0]
10009f76:	429a      	cmp	r2, r3
10009f78:	d1f8      	bne.n	10009f6c <cdcd_xfer_cb+0xd8>
10009f7a:	4648      	mov	r0, r9
10009f7c:	f000 f91a 	bl	1000a1b4 <tu_fifo_empty>
10009f80:	2800      	cmp	r0, #0
10009f82:	d1f3      	bne.n	10009f6c <cdcd_xfer_cb+0xd8>
10009f84:	464b      	mov	r3, r9
10009f86:	3b10      	subs	r3, #16
10009f88:	7959      	ldrb	r1, [r3, #5]
10009f8a:	e000      	b.n	10009f8e <cdcd_xfer_cb+0xfa>
10009f8c:	bf00      	nop
10009f8e:	e7ed      	b.n	10009f6c <cdcd_xfer_cb+0xd8>
10009f90:	4648      	mov	r0, r9
10009f92:	f000 f917 	bl	1000a1c4 <tu_fifo_remaining>
10009f96:	283f      	cmp	r0, #63	@ 0x3f
10009f98:	d90b      	bls.n	10009fb2 <cdcd_xfer_cb+0x11e>
10009f9a:	228e      	movs	r2, #142	@ 0x8e
10009f9c:	0092      	lsls	r2, r2, #2
10009f9e:	2340      	movs	r3, #64	@ 0x40
10009fa0:	78f1      	ldrb	r1, [r6, #3]
10009fa2:	444a      	add	r2, r9
10009fa4:	2000      	movs	r0, #0
10009fa6:	f7ff fc55 	bl	10009854 <usbd_edpt_xfer>
10009faa:	e79f      	b.n	10009eec <cdcd_xfer_cb+0x58>
10009fac:	f7fe fb82 	bl	100086b4 <tud_cdc_rx_cb>
10009fb0:	e78f      	b.n	10009ed2 <cdcd_xfer_cb+0x3e>
10009fb2:	78f1      	ldrb	r1, [r6, #3]
10009fb4:	2000      	movs	r0, #0
10009fb6:	f7ff fc39 	bl	1000982c <usbd_edpt_release>
10009fba:	e797      	b.n	10009eec <cdcd_xfer_cb+0x58>
10009fbc:	20001898 	.word	0x20001898
10009fc0:	100086b5 	.word	0x100086b5
10009fc4:	00000000 	.word	0x00000000
10009fc8:	200018bc 	.word	0x200018bc
10009fcc:	00000000 	.word	0x00000000

10009fd0 <tusb_init>:
10009fd0:	b510      	push	{r4, lr}
10009fd2:	2000      	movs	r0, #0
10009fd4:	f7fe fecc 	bl	10008d70 <tud_init>
10009fd8:	bd10      	pop	{r4, pc}
10009fda:	46c0      	nop			@ (mov r8, r8)

10009fdc <tusb_inited>:
10009fdc:	b510      	push	{r4, lr}
10009fde:	f7fe febd 	bl	10008d5c <tud_inited>
10009fe2:	bd10      	pop	{r4, pc}

10009fe4 <tu_edpt_claim>:
10009fe4:	7803      	ldrb	r3, [r0, #0]
10009fe6:	b570      	push	{r4, r5, r6, lr}
10009fe8:	07db      	lsls	r3, r3, #31
10009fea:	0004      	movs	r4, r0
10009fec:	000e      	movs	r6, r1
10009fee:	0fdd      	lsrs	r5, r3, #31
10009ff0:	2b00      	cmp	r3, #0
10009ff2:	d117      	bne.n	1000a024 <tu_edpt_claim+0x40>
10009ff4:	7803      	ldrb	r3, [r0, #0]
10009ff6:	075b      	lsls	r3, r3, #29
10009ff8:	d501      	bpl.n	10009ffe <tu_edpt_claim+0x1a>
10009ffa:	0028      	movs	r0, r5
10009ffc:	bd70      	pop	{r4, r5, r6, pc}
10009ffe:	2101      	movs	r1, #1
1000a000:	0030      	movs	r0, r6
1000a002:	4249      	negs	r1, r1
1000a004:	f000 ff40 	bl	1000ae88 <__mutex_enter_timeout_ms_veneer>
1000a008:	7823      	ldrb	r3, [r4, #0]
1000a00a:	07db      	lsls	r3, r3, #31
1000a00c:	0fdd      	lsrs	r5, r3, #31
1000a00e:	2b00      	cmp	r3, #0
1000a010:	d10a      	bne.n	1000a028 <tu_edpt_claim+0x44>
1000a012:	7823      	ldrb	r3, [r4, #0]
1000a014:	075b      	lsls	r3, r3, #29
1000a016:	d408      	bmi.n	1000a02a <tu_edpt_claim+0x46>
1000a018:	2204      	movs	r2, #4
1000a01a:	7823      	ldrb	r3, [r4, #0]
1000a01c:	2501      	movs	r5, #1
1000a01e:	4313      	orrs	r3, r2
1000a020:	7023      	strb	r3, [r4, #0]
1000a022:	e002      	b.n	1000a02a <tu_edpt_claim+0x46>
1000a024:	2500      	movs	r5, #0
1000a026:	e7e8      	b.n	10009ffa <tu_edpt_claim+0x16>
1000a028:	2500      	movs	r5, #0
1000a02a:	0030      	movs	r0, r6
1000a02c:	f000 feec 	bl	1000ae08 <__mutex_exit_veneer>
1000a030:	e7e3      	b.n	10009ffa <tu_edpt_claim+0x16>
1000a032:	46c0      	nop			@ (mov r8, r8)

1000a034 <tu_edpt_release>:
1000a034:	b570      	push	{r4, r5, r6, lr}
1000a036:	000c      	movs	r4, r1
1000a038:	2101      	movs	r1, #1
1000a03a:	0006      	movs	r6, r0
1000a03c:	4249      	negs	r1, r1
1000a03e:	0020      	movs	r0, r4
1000a040:	f000 ff22 	bl	1000ae88 <__mutex_enter_timeout_ms_veneer>
1000a044:	7833      	ldrb	r3, [r6, #0]
1000a046:	075b      	lsls	r3, r3, #29
1000a048:	0fdd      	lsrs	r5, r3, #31
1000a04a:	2b00      	cmp	r3, #0
1000a04c:	db04      	blt.n	1000a058 <tu_edpt_release+0x24>
1000a04e:	0020      	movs	r0, r4
1000a050:	f000 feda 	bl	1000ae08 <__mutex_exit_veneer>
1000a054:	0028      	movs	r0, r5
1000a056:	bd70      	pop	{r4, r5, r6, pc}
1000a058:	7833      	ldrb	r3, [r6, #0]
1000a05a:	07db      	lsls	r3, r3, #31
1000a05c:	d404      	bmi.n	1000a068 <tu_edpt_release+0x34>
1000a05e:	2204      	movs	r2, #4
1000a060:	7833      	ldrb	r3, [r6, #0]
1000a062:	4393      	bics	r3, r2
1000a064:	7033      	strb	r3, [r6, #0]
1000a066:	e7f2      	b.n	1000a04e <tu_edpt_release+0x1a>
1000a068:	2500      	movs	r5, #0
1000a06a:	e7f0      	b.n	1000a04e <tu_edpt_release+0x1a>

1000a06c <tu_edpt_validate>:
1000a06c:	7943      	ldrb	r3, [r0, #5]
1000a06e:	7902      	ldrb	r2, [r0, #4]
1000a070:	021b      	lsls	r3, r3, #8
1000a072:	4313      	orrs	r3, r2
1000a074:	055b      	lsls	r3, r3, #21
1000a076:	0d5a      	lsrs	r2, r3, #21
1000a078:	78c3      	ldrb	r3, [r0, #3]
1000a07a:	079b      	lsls	r3, r3, #30
1000a07c:	0f9b      	lsrs	r3, r3, #30
1000a07e:	2b02      	cmp	r3, #2
1000a080:	d005      	beq.n	1000a08e <tu_edpt_validate+0x22>
1000a082:	2b03      	cmp	r3, #3
1000a084:	d015      	beq.n	1000a0b2 <tu_edpt_validate+0x46>
1000a086:	2000      	movs	r0, #0
1000a088:	2b01      	cmp	r3, #1
1000a08a:	d008      	beq.n	1000a09e <tu_edpt_validate+0x32>
1000a08c:	4770      	bx	lr
1000a08e:	2902      	cmp	r1, #2
1000a090:	d01e      	beq.n	1000a0d0 <tu_edpt_validate+0x64>
1000a092:	2000      	movs	r0, #0
1000a094:	2340      	movs	r3, #64	@ 0x40
1000a096:	4293      	cmp	r3, r2
1000a098:	4140      	adcs	r0, r0
1000a09a:	b2c0      	uxtb	r0, r0
1000a09c:	e7f6      	b.n	1000a08c <tu_edpt_validate+0x20>
1000a09e:	3902      	subs	r1, #2
1000a0a0:	424b      	negs	r3, r1
1000a0a2:	4159      	adcs	r1, r3
1000a0a4:	4b0d      	ldr	r3, [pc, #52]	@ (1000a0dc <tu_edpt_validate+0x70>)
1000a0a6:	469c      	mov	ip, r3
1000a0a8:	4461      	add	r1, ip
1000a0aa:	4291      	cmp	r1, r2
1000a0ac:	4140      	adcs	r0, r0
1000a0ae:	b2c0      	uxtb	r0, r0
1000a0b0:	e7ec      	b.n	1000a08c <tu_edpt_validate+0x20>
1000a0b2:	3902      	subs	r1, #2
1000a0b4:	1e4b      	subs	r3, r1, #1
1000a0b6:	4199      	sbcs	r1, r3
1000a0b8:	4b09      	ldr	r3, [pc, #36]	@ (1000a0e0 <tu_edpt_validate+0x74>)
1000a0ba:	4249      	negs	r1, r1
1000a0bc:	4019      	ands	r1, r3
1000a0be:	2380      	movs	r3, #128	@ 0x80
1000a0c0:	00db      	lsls	r3, r3, #3
1000a0c2:	469c      	mov	ip, r3
1000a0c4:	2000      	movs	r0, #0
1000a0c6:	4461      	add	r1, ip
1000a0c8:	4291      	cmp	r1, r2
1000a0ca:	4140      	adcs	r0, r0
1000a0cc:	b2c0      	uxtb	r0, r0
1000a0ce:	e7dd      	b.n	1000a08c <tu_edpt_validate+0x20>
1000a0d0:	4b04      	ldr	r3, [pc, #16]	@ (1000a0e4 <tu_edpt_validate+0x78>)
1000a0d2:	18d0      	adds	r0, r2, r3
1000a0d4:	4243      	negs	r3, r0
1000a0d6:	4158      	adcs	r0, r3
1000a0d8:	b2c0      	uxtb	r0, r0
1000a0da:	e7d7      	b.n	1000a08c <tu_edpt_validate+0x20>
1000a0dc:	000003ff 	.word	0x000003ff
1000a0e0:	fffffc40 	.word	0xfffffc40
1000a0e4:	fffffe00 	.word	0xfffffe00

1000a0e8 <tu_edpt_bind_driver>:
1000a0e8:	188a      	adds	r2, r1, r2
1000a0ea:	b570      	push	{r4, r5, r6, lr}
1000a0ec:	4291      	cmp	r1, r2
1000a0ee:	d207      	bcs.n	1000a100 <tu_edpt_bind_driver+0x18>
1000a0f0:	267f      	movs	r6, #127	@ 0x7f
1000a0f2:	784c      	ldrb	r4, [r1, #1]
1000a0f4:	2c05      	cmp	r4, #5
1000a0f6:	d004      	beq.n	1000a102 <tu_edpt_bind_driver+0x1a>
1000a0f8:	780c      	ldrb	r4, [r1, #0]
1000a0fa:	1909      	adds	r1, r1, r4
1000a0fc:	428a      	cmp	r2, r1
1000a0fe:	d8f8      	bhi.n	1000a0f2 <tu_edpt_bind_driver+0xa>
1000a100:	bd70      	pop	{r4, r5, r6, pc}
1000a102:	0034      	movs	r4, r6
1000a104:	788d      	ldrb	r5, [r1, #2]
1000a106:	402c      	ands	r4, r5
1000a108:	0064      	lsls	r4, r4, #1
1000a10a:	1904      	adds	r4, r0, r4
1000a10c:	09ed      	lsrs	r5, r5, #7
1000a10e:	5563      	strb	r3, [r4, r5]
1000a110:	780c      	ldrb	r4, [r1, #0]
1000a112:	1909      	adds	r1, r1, r4
1000a114:	428a      	cmp	r2, r1
1000a116:	d8ec      	bhi.n	1000a0f2 <tu_edpt_bind_driver+0xa>
1000a118:	e7f2      	b.n	1000a100 <tu_edpt_bind_driver+0x18>
1000a11a:	46c0      	nop			@ (mov r8, r8)

1000a11c <tu_fifo_config>:
1000a11c:	b5f0      	push	{r4, r5, r6, r7, lr}
1000a11e:	46c6      	mov	lr, r8
1000a120:	b500      	push	{lr}
1000a122:	0004      	movs	r4, r0
1000a124:	a806      	add	r0, sp, #24
1000a126:	7805      	ldrb	r5, [r0, #0]
1000a128:	2080      	movs	r0, #128	@ 0x80
1000a12a:	4688      	mov	r8, r1
1000a12c:	0017      	movs	r7, r2
1000a12e:	001e      	movs	r6, r3
1000a130:	0200      	lsls	r0, r0, #8
1000a132:	4282      	cmp	r2, r0
1000a134:	d826      	bhi.n	1000a184 <tu_fifo_config+0x68>
1000a136:	68e0      	ldr	r0, [r4, #12]
1000a138:	2800      	cmp	r0, #0
1000a13a:	d003      	beq.n	1000a144 <tu_fifo_config+0x28>
1000a13c:	2101      	movs	r1, #1
1000a13e:	4249      	negs	r1, r1
1000a140:	f000 fea2 	bl	1000ae88 <__mutex_enter_timeout_ms_veneer>
1000a144:	6920      	ldr	r0, [r4, #16]
1000a146:	2800      	cmp	r0, #0
1000a148:	d003      	beq.n	1000a152 <tu_fifo_config+0x36>
1000a14a:	2101      	movs	r1, #1
1000a14c:	4249      	negs	r1, r1
1000a14e:	f000 fe9b 	bl	1000ae88 <__mutex_enter_timeout_ms_veneer>
1000a152:	4643      	mov	r3, r8
1000a154:	6023      	str	r3, [r4, #0]
1000a156:	0473      	lsls	r3, r6, #17
1000a158:	0c5b      	lsrs	r3, r3, #17
1000a15a:	03ed      	lsls	r5, r5, #15
1000a15c:	431d      	orrs	r5, r3
1000a15e:	2300      	movs	r3, #0
1000a160:	68e0      	ldr	r0, [r4, #12]
1000a162:	8163      	strh	r3, [r4, #10]
1000a164:	80a7      	strh	r7, [r4, #4]
1000a166:	80e5      	strh	r5, [r4, #6]
1000a168:	8123      	strh	r3, [r4, #8]
1000a16a:	2800      	cmp	r0, #0
1000a16c:	d001      	beq.n	1000a172 <tu_fifo_config+0x56>
1000a16e:	f000 fe4b 	bl	1000ae08 <__mutex_exit_veneer>
1000a172:	6920      	ldr	r0, [r4, #16]
1000a174:	2800      	cmp	r0, #0
1000a176:	d001      	beq.n	1000a17c <tu_fifo_config+0x60>
1000a178:	f000 fe46 	bl	1000ae08 <__mutex_exit_veneer>
1000a17c:	2001      	movs	r0, #1
1000a17e:	bc80      	pop	{r7}
1000a180:	46b8      	mov	r8, r7
1000a182:	bdf0      	pop	{r4, r5, r6, r7, pc}
1000a184:	2000      	movs	r0, #0
1000a186:	e7fa      	b.n	1000a17e <tu_fifo_config+0x62>

1000a188 <tu_fifo_count>:
1000a188:	b510      	push	{r4, lr}
1000a18a:	8904      	ldrh	r4, [r0, #8]
1000a18c:	8941      	ldrh	r1, [r0, #10]
1000a18e:	8882      	ldrh	r2, [r0, #4]
1000a190:	b2a3      	uxth	r3, r4
1000a192:	b288      	uxth	r0, r1
1000a194:	428c      	cmp	r4, r1
1000a196:	d307      	bcc.n	1000a1a8 <tu_fifo_count+0x20>
1000a198:	1a1b      	subs	r3, r3, r0
1000a19a:	b29b      	uxth	r3, r3
1000a19c:	1c10      	adds	r0, r2, #0
1000a19e:	429a      	cmp	r2, r3
1000a1a0:	d900      	bls.n	1000a1a4 <tu_fifo_count+0x1c>
1000a1a2:	1c18      	adds	r0, r3, #0
1000a1a4:	b280      	uxth	r0, r0
1000a1a6:	bd10      	pop	{r4, pc}
1000a1a8:	0051      	lsls	r1, r2, #1
1000a1aa:	1a09      	subs	r1, r1, r0
1000a1ac:	185b      	adds	r3, r3, r1
1000a1ae:	b29b      	uxth	r3, r3
1000a1b0:	e7f4      	b.n	1000a19c <tu_fifo_count+0x14>
1000a1b2:	46c0      	nop			@ (mov r8, r8)

1000a1b4 <tu_fifo_empty>:
1000a1b4:	8903      	ldrh	r3, [r0, #8]
1000a1b6:	8940      	ldrh	r0, [r0, #10]
1000a1b8:	1a18      	subs	r0, r3, r0
1000a1ba:	4243      	negs	r3, r0
1000a1bc:	4158      	adcs	r0, r3
1000a1be:	b2c0      	uxtb	r0, r0
1000a1c0:	4770      	bx	lr
1000a1c2:	46c0      	nop			@ (mov r8, r8)

1000a1c4 <tu_fifo_remaining>:
1000a1c4:	b510      	push	{r4, lr}
1000a1c6:	8904      	ldrh	r4, [r0, #8]
1000a1c8:	8941      	ldrh	r1, [r0, #10]
1000a1ca:	8882      	ldrh	r2, [r0, #4]
1000a1cc:	b2a3      	uxth	r3, r4
1000a1ce:	b288      	uxth	r0, r1
1000a1d0:	428c      	cmp	r4, r1
1000a1d2:	d307      	bcc.n	1000a1e4 <tu_fifo_remaining+0x20>
1000a1d4:	1a1b      	subs	r3, r3, r0
1000a1d6:	b29b      	uxth	r3, r3
1000a1d8:	2000      	movs	r0, #0
1000a1da:	429a      	cmp	r2, r3
1000a1dc:	d901      	bls.n	1000a1e2 <tu_fifo_remaining+0x1e>
1000a1de:	1ad2      	subs	r2, r2, r3
1000a1e0:	b290      	uxth	r0, r2
1000a1e2:	bd10      	pop	{r4, pc}
1000a1e4:	0051      	lsls	r1, r2, #1
1000a1e6:	1a09      	subs	r1, r1, r0
1000a1e8:	185b      	adds	r3, r3, r1
1000a1ea:	b29b      	uxth	r3, r3
1000a1ec:	e7f4      	b.n	1000a1d8 <tu_fifo_remaining+0x14>
1000a1ee:	46c0      	nop			@ (mov r8, r8)

1000a1f0 <tu_fifo_read>:
1000a1f0:	b570      	push	{r4, r5, r6, lr}
1000a1f2:	0004      	movs	r4, r0
1000a1f4:	6900      	ldr	r0, [r0, #16]
1000a1f6:	000e      	movs	r6, r1
1000a1f8:	2800      	cmp	r0, #0
1000a1fa:	d003      	beq.n	1000a204 <tu_fifo_read+0x14>
1000a1fc:	2101      	movs	r1, #1
1000a1fe:	4249      	negs	r1, r1
1000a200:	f000 fe42 	bl	1000ae88 <__mutex_enter_timeout_ms_veneer>
1000a204:	8925      	ldrh	r5, [r4, #8]
1000a206:	8960      	ldrh	r0, [r4, #10]
1000a208:	88a2      	ldrh	r2, [r4, #4]
1000a20a:	b2a9      	uxth	r1, r5
1000a20c:	b283      	uxth	r3, r0
1000a20e:	4285      	cmp	r5, r0
1000a210:	d32b      	bcc.n	1000a26a <tu_fifo_read+0x7a>
1000a212:	1acd      	subs	r5, r1, r3
1000a214:	b2ad      	uxth	r5, r5
1000a216:	2d00      	cmp	r5, #0
1000a218:	d02d      	beq.n	1000a276 <tu_fifo_read+0x86>
1000a21a:	42aa      	cmp	r2, r5
1000a21c:	d208      	bcs.n	1000a230 <tu_fifo_read+0x40>
1000a21e:	4291      	cmp	r1, r2
1000a220:	d32f      	bcc.n	1000a282 <tu_fifo_read+0x92>
1000a222:	1a89      	subs	r1, r1, r2
1000a224:	b28b      	uxth	r3, r1
1000a226:	8163      	strh	r3, [r4, #10]
1000a228:	429a      	cmp	r2, r3
1000a22a:	d803      	bhi.n	1000a234 <tu_fifo_read+0x44>
1000a22c:	1a9b      	subs	r3, r3, r2
1000a22e:	b29b      	uxth	r3, r3
1000a230:	429a      	cmp	r2, r3
1000a232:	d9fb      	bls.n	1000a22c <tu_fifo_read+0x3c>
1000a234:	88e2      	ldrh	r2, [r4, #6]
1000a236:	6821      	ldr	r1, [r4, #0]
1000a238:	0452      	lsls	r2, r2, #17
1000a23a:	0c52      	lsrs	r2, r2, #17
1000a23c:	4353      	muls	r3, r2
1000a23e:	0030      	movs	r0, r6
1000a240:	18c9      	adds	r1, r1, r3
1000a242:	f7fd fe61 	bl	10007f08 <__wrap___aeabi_memcpy>
1000a246:	8963      	ldrh	r3, [r4, #10]
1000a248:	2501      	movs	r5, #1
1000a24a:	1c59      	adds	r1, r3, #1
1000a24c:	b289      	uxth	r1, r1
1000a24e:	88a2      	ldrh	r2, [r4, #4]
1000a250:	428b      	cmp	r3, r1
1000a252:	d912      	bls.n	1000a27a <tu_fifo_read+0x8a>
1000a254:	0052      	lsls	r2, r2, #1
1000a256:	1a89      	subs	r1, r1, r2
1000a258:	b289      	uxth	r1, r1
1000a25a:	6920      	ldr	r0, [r4, #16]
1000a25c:	8161      	strh	r1, [r4, #10]
1000a25e:	2800      	cmp	r0, #0
1000a260:	d001      	beq.n	1000a266 <tu_fifo_read+0x76>
1000a262:	f000 fdd1 	bl	1000ae08 <__mutex_exit_veneer>
1000a266:	0028      	movs	r0, r5
1000a268:	bd70      	pop	{r4, r5, r6, pc}
1000a26a:	0055      	lsls	r5, r2, #1
1000a26c:	1aed      	subs	r5, r5, r3
1000a26e:	194d      	adds	r5, r1, r5
1000a270:	b2ad      	uxth	r5, r5
1000a272:	2d00      	cmp	r5, #0
1000a274:	d1d1      	bne.n	1000a21a <tu_fifo_read+0x2a>
1000a276:	8961      	ldrh	r1, [r4, #10]
1000a278:	b289      	uxth	r1, r1
1000a27a:	0052      	lsls	r2, r2, #1
1000a27c:	4291      	cmp	r1, r2
1000a27e:	dbec      	blt.n	1000a25a <tu_fifo_read+0x6a>
1000a280:	e7e9      	b.n	1000a256 <tu_fifo_read+0x66>
1000a282:	1889      	adds	r1, r1, r2
1000a284:	b28b      	uxth	r3, r1
1000a286:	8163      	strh	r3, [r4, #10]
1000a288:	e7ce      	b.n	1000a228 <tu_fifo_read+0x38>
1000a28a:	46c0      	nop			@ (mov r8, r8)

1000a28c <tu_fifo_read_n>:
1000a28c:	b5f0      	push	{r4, r5, r6, r7, lr}
1000a28e:	4646      	mov	r6, r8
1000a290:	464f      	mov	r7, r9
1000a292:	46d6      	mov	lr, sl
1000a294:	b5c0      	push	{r6, r7, lr}
1000a296:	0006      	movs	r6, r0
1000a298:	6900      	ldr	r0, [r0, #16]
1000a29a:	4689      	mov	r9, r1
1000a29c:	4690      	mov	r8, r2
1000a29e:	2800      	cmp	r0, #0
1000a2a0:	d003      	beq.n	1000a2aa <tu_fifo_read_n+0x1e>
1000a2a2:	2101      	movs	r1, #1
1000a2a4:	4249      	negs	r1, r1
1000a2a6:	f000 fdef 	bl	1000ae88 <__mutex_enter_timeout_ms_veneer>
1000a2aa:	8931      	ldrh	r1, [r6, #8]
1000a2ac:	8972      	ldrh	r2, [r6, #10]
1000a2ae:	88b5      	ldrh	r5, [r6, #4]
1000a2b0:	b28b      	uxth	r3, r1
1000a2b2:	b294      	uxth	r4, r2
1000a2b4:	4291      	cmp	r1, r2
1000a2b6:	d354      	bcc.n	1000a362 <tu_fifo_read_n+0xd6>
1000a2b8:	1b1f      	subs	r7, r3, r4
1000a2ba:	b2bf      	uxth	r7, r7
1000a2bc:	2f00      	cmp	r7, #0
1000a2be:	d04a      	beq.n	1000a356 <tu_fifo_read_n+0xca>
1000a2c0:	42bd      	cmp	r5, r7
1000a2c2:	d205      	bcs.n	1000a2d0 <tu_fifo_read_n+0x44>
1000a2c4:	42ab      	cmp	r3, r5
1000a2c6:	d251      	bcs.n	1000a36c <tu_fifo_read_n+0xe0>
1000a2c8:	195b      	adds	r3, r3, r5
1000a2ca:	b29c      	uxth	r4, r3
1000a2cc:	002f      	movs	r7, r5
1000a2ce:	8174      	strh	r4, [r6, #10]
1000a2d0:	4643      	mov	r3, r8
1000a2d2:	45b8      	cmp	r8, r7
1000a2d4:	d83d      	bhi.n	1000a352 <tu_fifo_read_n+0xc6>
1000a2d6:	b29f      	uxth	r7, r3
1000a2d8:	42a5      	cmp	r5, r4
1000a2da:	d803      	bhi.n	1000a2e4 <tu_fifo_read_n+0x58>
1000a2dc:	1b64      	subs	r4, r4, r5
1000a2de:	b2a4      	uxth	r4, r4
1000a2e0:	42a5      	cmp	r5, r4
1000a2e2:	d9fb      	bls.n	1000a2dc <tu_fifo_read_n+0x50>
1000a2e4:	88f2      	ldrh	r2, [r6, #6]
1000a2e6:	6831      	ldr	r1, [r6, #0]
1000a2e8:	0452      	lsls	r2, r2, #17
1000a2ea:	0c52      	lsrs	r2, r2, #17
1000a2ec:	4690      	mov	r8, r2
1000a2ee:	4362      	muls	r2, r4
1000a2f0:	1b2b      	subs	r3, r5, r4
1000a2f2:	b29b      	uxth	r3, r3
1000a2f4:	1889      	adds	r1, r1, r2
1000a2f6:	4642      	mov	r2, r8
1000a2f8:	429f      	cmp	r7, r3
1000a2fa:	d925      	bls.n	1000a348 <tu_fifo_read_n+0xbc>
1000a2fc:	4353      	muls	r3, r2
1000a2fe:	b29b      	uxth	r3, r3
1000a300:	001a      	movs	r2, r3
1000a302:	4648      	mov	r0, r9
1000a304:	469a      	mov	sl, r3
1000a306:	f7fd fdff 	bl	10007f08 <__wrap___aeabi_memcpy>
1000a30a:	4643      	mov	r3, r8
1000a30c:	4648      	mov	r0, r9
1000a30e:	1b7d      	subs	r5, r7, r5
1000a310:	1964      	adds	r4, r4, r5
1000a312:	435c      	muls	r4, r3
1000a314:	6831      	ldr	r1, [r6, #0]
1000a316:	4450      	add	r0, sl
1000a318:	b2a2      	uxth	r2, r4
1000a31a:	f7fd fdf5 	bl	10007f08 <__wrap___aeabi_memcpy>
1000a31e:	8971      	ldrh	r1, [r6, #10]
1000a320:	88b5      	ldrh	r5, [r6, #4]
1000a322:	19cb      	adds	r3, r1, r7
1000a324:	b29b      	uxth	r3, r3
1000a326:	006a      	lsls	r2, r5, #1
1000a328:	4299      	cmp	r1, r3
1000a32a:	d916      	bls.n	1000a35a <tu_fifo_read_n+0xce>
1000a32c:	1a9b      	subs	r3, r3, r2
1000a32e:	b29b      	uxth	r3, r3
1000a330:	6930      	ldr	r0, [r6, #16]
1000a332:	8173      	strh	r3, [r6, #10]
1000a334:	2800      	cmp	r0, #0
1000a336:	d001      	beq.n	1000a33c <tu_fifo_read_n+0xb0>
1000a338:	f000 fd66 	bl	1000ae08 <__mutex_exit_veneer>
1000a33c:	0038      	movs	r0, r7
1000a33e:	bce0      	pop	{r5, r6, r7}
1000a340:	46ba      	mov	sl, r7
1000a342:	46b1      	mov	r9, r6
1000a344:	46a8      	mov	r8, r5
1000a346:	bdf0      	pop	{r4, r5, r6, r7, pc}
1000a348:	4648      	mov	r0, r9
1000a34a:	437a      	muls	r2, r7
1000a34c:	f7fd fddc 	bl	10007f08 <__wrap___aeabi_memcpy>
1000a350:	e7e5      	b.n	1000a31e <tu_fifo_read_n+0x92>
1000a352:	1c3b      	adds	r3, r7, #0
1000a354:	e7bf      	b.n	1000a2d6 <tu_fifo_read_n+0x4a>
1000a356:	8973      	ldrh	r3, [r6, #10]
1000a358:	b29b      	uxth	r3, r3
1000a35a:	006a      	lsls	r2, r5, #1
1000a35c:	4293      	cmp	r3, r2
1000a35e:	dbe7      	blt.n	1000a330 <tu_fifo_read_n+0xa4>
1000a360:	e7e4      	b.n	1000a32c <tu_fifo_read_n+0xa0>
1000a362:	006f      	lsls	r7, r5, #1
1000a364:	1b3f      	subs	r7, r7, r4
1000a366:	19df      	adds	r7, r3, r7
1000a368:	b2bf      	uxth	r7, r7
1000a36a:	e7a7      	b.n	1000a2bc <tu_fifo_read_n+0x30>
1000a36c:	1b5b      	subs	r3, r3, r5
1000a36e:	b29c      	uxth	r4, r3
1000a370:	e7ac      	b.n	1000a2cc <tu_fifo_read_n+0x40>
1000a372:	46c0      	nop			@ (mov r8, r8)

1000a374 <tu_fifo_write>:
1000a374:	b5f8      	push	{r3, r4, r5, r6, r7, lr}
1000a376:	0004      	movs	r4, r0
1000a378:	68c0      	ldr	r0, [r0, #12]
1000a37a:	000e      	movs	r6, r1
1000a37c:	2800      	cmp	r0, #0
1000a37e:	d003      	beq.n	1000a388 <tu_fifo_write+0x14>
1000a380:	2101      	movs	r1, #1
1000a382:	4249      	negs	r1, r1
1000a384:	f000 fd80 	bl	1000ae88 <__mutex_enter_timeout_ms_veneer>
1000a388:	8925      	ldrh	r5, [r4, #8]
1000a38a:	8920      	ldrh	r0, [r4, #8]
1000a38c:	8961      	ldrh	r1, [r4, #10]
1000a38e:	88a2      	ldrh	r2, [r4, #4]
1000a390:	b2ad      	uxth	r5, r5
1000a392:	b283      	uxth	r3, r0
1000a394:	b28f      	uxth	r7, r1
1000a396:	4288      	cmp	r0, r1
1000a398:	d328      	bcc.n	1000a3ec <tu_fifo_write+0x78>
1000a39a:	1bdb      	subs	r3, r3, r7
1000a39c:	b29b      	uxth	r3, r3
1000a39e:	429a      	cmp	r2, r3
1000a3a0:	d809      	bhi.n	1000a3b6 <tu_fifo_write+0x42>
1000a3a2:	79e7      	ldrb	r7, [r4, #7]
1000a3a4:	09ff      	lsrs	r7, r7, #7
1000a3a6:	d106      	bne.n	1000a3b6 <tu_fifo_write+0x42>
1000a3a8:	68e0      	ldr	r0, [r4, #12]
1000a3aa:	2800      	cmp	r0, #0
1000a3ac:	d001      	beq.n	1000a3b2 <tu_fifo_write+0x3e>
1000a3ae:	f000 fd2b 	bl	1000ae08 <__mutex_exit_veneer>
1000a3b2:	0038      	movs	r0, r7
1000a3b4:	bdf8      	pop	{r3, r4, r5, r6, r7, pc}
1000a3b6:	002b      	movs	r3, r5
1000a3b8:	4295      	cmp	r5, r2
1000a3ba:	d303      	bcc.n	1000a3c4 <tu_fifo_write+0x50>
1000a3bc:	1a9b      	subs	r3, r3, r2
1000a3be:	b29b      	uxth	r3, r3
1000a3c0:	4293      	cmp	r3, r2
1000a3c2:	d2fb      	bcs.n	1000a3bc <tu_fifo_write+0x48>
1000a3c4:	88e2      	ldrh	r2, [r4, #6]
1000a3c6:	6820      	ldr	r0, [r4, #0]
1000a3c8:	0452      	lsls	r2, r2, #17
1000a3ca:	0c52      	lsrs	r2, r2, #17
1000a3cc:	4353      	muls	r3, r2
1000a3ce:	0031      	movs	r1, r6
1000a3d0:	18c0      	adds	r0, r0, r3
1000a3d2:	f7fd fd99 	bl	10007f08 <__wrap___aeabi_memcpy>
1000a3d6:	88a2      	ldrh	r2, [r4, #4]
1000a3d8:	1c6b      	adds	r3, r5, #1
1000a3da:	b29b      	uxth	r3, r3
1000a3dc:	0052      	lsls	r2, r2, #1
1000a3de:	429d      	cmp	r5, r3
1000a3e0:	d909      	bls.n	1000a3f6 <tu_fifo_write+0x82>
1000a3e2:	1a9b      	subs	r3, r3, r2
1000a3e4:	b29b      	uxth	r3, r3
1000a3e6:	2701      	movs	r7, #1
1000a3e8:	8123      	strh	r3, [r4, #8]
1000a3ea:	e7dd      	b.n	1000a3a8 <tu_fifo_write+0x34>
1000a3ec:	0051      	lsls	r1, r2, #1
1000a3ee:	1bc9      	subs	r1, r1, r7
1000a3f0:	185b      	adds	r3, r3, r1
1000a3f2:	b29b      	uxth	r3, r3
1000a3f4:	e7d3      	b.n	1000a39e <tu_fifo_write+0x2a>
1000a3f6:	4293      	cmp	r3, r2
1000a3f8:	dbf5      	blt.n	1000a3e6 <tu_fifo_write+0x72>
1000a3fa:	e7f2      	b.n	1000a3e2 <tu_fifo_write+0x6e>

1000a3fc <tu_fifo_write_n>:
1000a3fc:	b5f0      	push	{r4, r5, r6, r7, lr}
1000a3fe:	4657      	mov	r7, sl
1000a400:	4645      	mov	r5, r8
1000a402:	46de      	mov	lr, fp
1000a404:	464e      	mov	r6, r9
1000a406:	b5e0      	push	{r5, r6, r7, lr}
1000a408:	0014      	movs	r4, r2
1000a40a:	0005      	movs	r5, r0
1000a40c:	000f      	movs	r7, r1
1000a40e:	b083      	sub	sp, #12
1000a410:	2a00      	cmp	r2, #0
1000a412:	d075      	beq.n	1000a500 <tu_fifo_write_n+0x104>
1000a414:	68c0      	ldr	r0, [r0, #12]
1000a416:	2800      	cmp	r0, #0
1000a418:	d003      	beq.n	1000a422 <tu_fifo_write_n+0x26>
1000a41a:	2101      	movs	r1, #1
1000a41c:	4249      	negs	r1, r1
1000a41e:	f000 fd33 	bl	1000ae88 <__mutex_enter_timeout_ms_veneer>
1000a422:	892e      	ldrh	r6, [r5, #8]
1000a424:	79e9      	ldrb	r1, [r5, #7]
1000a426:	896a      	ldrh	r2, [r5, #10]
1000a428:	88ab      	ldrh	r3, [r5, #4]
1000a42a:	b2b6      	uxth	r6, r6
1000a42c:	b292      	uxth	r2, r2
1000a42e:	09c9      	lsrs	r1, r1, #7
1000a430:	d145      	bne.n	1000a4be <tu_fifo_write_n+0xc2>
1000a432:	4296      	cmp	r6, r2
1000a434:	d300      	bcc.n	1000a438 <tu_fifo_write_n+0x3c>
1000a436:	e06d      	b.n	1000a514 <tu_fifo_write_n+0x118>
1000a438:	0059      	lsls	r1, r3, #1
1000a43a:	1a8a      	subs	r2, r1, r2
1000a43c:	18b2      	adds	r2, r6, r2
1000a43e:	b292      	uxth	r2, r2
1000a440:	2100      	movs	r1, #0
1000a442:	4689      	mov	r9, r1
1000a444:	429a      	cmp	r2, r3
1000a446:	d234      	bcs.n	1000a4b2 <tu_fifo_write_n+0xb6>
1000a448:	1a9a      	subs	r2, r3, r2
1000a44a:	1c11      	adds	r1, r2, #0
1000a44c:	b292      	uxth	r2, r2
1000a44e:	42a2      	cmp	r2, r4
1000a450:	d900      	bls.n	1000a454 <tu_fifo_write_n+0x58>
1000a452:	1c21      	adds	r1, r4, #0
1000a454:	b28a      	uxth	r2, r1
1000a456:	4691      	mov	r9, r2
1000a458:	88ea      	ldrh	r2, [r5, #6]
1000a45a:	0452      	lsls	r2, r2, #17
1000a45c:	0c52      	lsrs	r2, r2, #17
1000a45e:	4690      	mov	r8, r2
1000a460:	464a      	mov	r2, r9
1000a462:	18b2      	adds	r2, r6, r2
1000a464:	b292      	uxth	r2, r2
1000a466:	4692      	mov	sl, r2
1000a468:	464a      	mov	r2, r9
1000a46a:	1ad2      	subs	r2, r2, r3
1000a46c:	b292      	uxth	r2, r2
1000a46e:	4693      	mov	fp, r2
1000a470:	0034      	movs	r4, r6
1000a472:	429e      	cmp	r6, r3
1000a474:	d303      	bcc.n	1000a47e <tu_fifo_write_n+0x82>
1000a476:	1ae4      	subs	r4, r4, r3
1000a478:	b2a4      	uxth	r4, r4
1000a47a:	429c      	cmp	r4, r3
1000a47c:	d2fb      	bcs.n	1000a476 <tu_fifo_write_n+0x7a>
1000a47e:	4642      	mov	r2, r8
1000a480:	4362      	muls	r2, r4
1000a482:	6828      	ldr	r0, [r5, #0]
1000a484:	1b1b      	subs	r3, r3, r4
1000a486:	b29b      	uxth	r3, r3
1000a488:	1880      	adds	r0, r0, r2
1000a48a:	4642      	mov	r2, r8
1000a48c:	454b      	cmp	r3, r9
1000a48e:	d354      	bcc.n	1000a53a <tu_fifo_write_n+0x13e>
1000a490:	464b      	mov	r3, r9
1000a492:	0039      	movs	r1, r7
1000a494:	435a      	muls	r2, r3
1000a496:	f7fd fd37 	bl	10007f08 <__wrap___aeabi_memcpy>
1000a49a:	88ab      	ldrh	r3, [r5, #4]
1000a49c:	005b      	lsls	r3, r3, #1
1000a49e:	45b2      	cmp	sl, r6
1000a4a0:	d301      	bcc.n	1000a4a6 <tu_fifo_write_n+0xaa>
1000a4a2:	459a      	cmp	sl, r3
1000a4a4:	db03      	blt.n	1000a4ae <tu_fifo_write_n+0xb2>
1000a4a6:	4652      	mov	r2, sl
1000a4a8:	1ad3      	subs	r3, r2, r3
1000a4aa:	b29b      	uxth	r3, r3
1000a4ac:	469a      	mov	sl, r3
1000a4ae:	4653      	mov	r3, sl
1000a4b0:	812b      	strh	r3, [r5, #8]
1000a4b2:	68e8      	ldr	r0, [r5, #12]
1000a4b4:	2800      	cmp	r0, #0
1000a4b6:	d025      	beq.n	1000a504 <tu_fifo_write_n+0x108>
1000a4b8:	f000 fca6 	bl	1000ae08 <__mutex_exit_veneer>
1000a4bc:	e022      	b.n	1000a504 <tu_fifo_write_n+0x108>
1000a4be:	88e9      	ldrh	r1, [r5, #6]
1000a4c0:	0449      	lsls	r1, r1, #17
1000a4c2:	0c49      	lsrs	r1, r1, #17
1000a4c4:	4688      	mov	r8, r1
1000a4c6:	429c      	cmp	r4, r3
1000a4c8:	d227      	bcs.n	1000a51a <tu_fifo_write_n+0x11e>
1000a4ca:	4296      	cmp	r6, r2
1000a4cc:	d347      	bcc.n	1000a55e <tu_fifo_write_n+0x162>
1000a4ce:	1ab1      	subs	r1, r6, r2
1000a4d0:	b289      	uxth	r1, r1
1000a4d2:	468c      	mov	ip, r1
1000a4d4:	0058      	lsls	r0, r3, #1
1000a4d6:	1ae1      	subs	r1, r4, r3
1000a4d8:	b289      	uxth	r1, r1
1000a4da:	468b      	mov	fp, r1
1000a4dc:	4661      	mov	r1, ip
1000a4de:	1909      	adds	r1, r1, r4
1000a4e0:	4281      	cmp	r1, r0
1000a4e2:	db08      	blt.n	1000a4f6 <tu_fifo_write_n+0xfa>
1000a4e4:	18d1      	adds	r1, r2, r3
1000a4e6:	b289      	uxth	r1, r1
1000a4e8:	1b0e      	subs	r6, r1, r4
1000a4ea:	b2b6      	uxth	r6, r6
1000a4ec:	468a      	mov	sl, r1
1000a4ee:	42b2      	cmp	r2, r6
1000a4f0:	d93b      	bls.n	1000a56a <tu_fifo_write_n+0x16e>
1000a4f2:	1a36      	subs	r6, r6, r0
1000a4f4:	b2b6      	uxth	r6, r6
1000a4f6:	19a2      	adds	r2, r4, r6
1000a4f8:	b292      	uxth	r2, r2
1000a4fa:	4692      	mov	sl, r2
1000a4fc:	46a1      	mov	r9, r4
1000a4fe:	e7b7      	b.n	1000a470 <tu_fifo_write_n+0x74>
1000a500:	2300      	movs	r3, #0
1000a502:	4699      	mov	r9, r3
1000a504:	4648      	mov	r0, r9
1000a506:	b003      	add	sp, #12
1000a508:	bcf0      	pop	{r4, r5, r6, r7}
1000a50a:	46bb      	mov	fp, r7
1000a50c:	46b2      	mov	sl, r6
1000a50e:	46a9      	mov	r9, r5
1000a510:	46a0      	mov	r8, r4
1000a512:	bdf0      	pop	{r4, r5, r6, r7, pc}
1000a514:	1ab2      	subs	r2, r6, r2
1000a516:	b292      	uxth	r2, r2
1000a518:	e792      	b.n	1000a440 <tu_fifo_write_n+0x44>
1000a51a:	2100      	movs	r1, #0
1000a51c:	4689      	mov	r9, r1
1000a51e:	2b00      	cmp	r3, #0
1000a520:	d0c7      	beq.n	1000a4b2 <tu_fifo_write_n+0xb6>
1000a522:	4641      	mov	r1, r8
1000a524:	1ae4      	subs	r4, r4, r3
1000a526:	434c      	muls	r4, r1
1000a528:	0016      	movs	r6, r2
1000a52a:	18d1      	adds	r1, r2, r3
1000a52c:	2200      	movs	r2, #0
1000a52e:	b289      	uxth	r1, r1
1000a530:	468a      	mov	sl, r1
1000a532:	4699      	mov	r9, r3
1000a534:	4693      	mov	fp, r2
1000a536:	193f      	adds	r7, r7, r4
1000a538:	e79a      	b.n	1000a470 <tu_fifo_write_n+0x74>
1000a53a:	4353      	muls	r3, r2
1000a53c:	b29b      	uxth	r3, r3
1000a53e:	001a      	movs	r2, r3
1000a540:	0039      	movs	r1, r7
1000a542:	445c      	add	r4, fp
1000a544:	9301      	str	r3, [sp, #4]
1000a546:	f7fd fcdf 	bl	10007f08 <__wrap___aeabi_memcpy>
1000a54a:	4641      	mov	r1, r8
1000a54c:	0022      	movs	r2, r4
1000a54e:	434a      	muls	r2, r1
1000a550:	9b01      	ldr	r3, [sp, #4]
1000a552:	6828      	ldr	r0, [r5, #0]
1000a554:	b292      	uxth	r2, r2
1000a556:	18f9      	adds	r1, r7, r3
1000a558:	f7fd fcd6 	bl	10007f08 <__wrap___aeabi_memcpy>
1000a55c:	e79d      	b.n	1000a49a <tu_fifo_write_n+0x9e>
1000a55e:	0058      	lsls	r0, r3, #1
1000a560:	1a81      	subs	r1, r0, r2
1000a562:	1871      	adds	r1, r6, r1
1000a564:	b289      	uxth	r1, r1
1000a566:	468c      	mov	ip, r1
1000a568:	e7b5      	b.n	1000a4d6 <tu_fifo_write_n+0xda>
1000a56a:	46a1      	mov	r9, r4
1000a56c:	42b0      	cmp	r0, r6
1000a56e:	dd00      	ble.n	1000a572 <tu_fifo_write_n+0x176>
1000a570:	e77e      	b.n	1000a470 <tu_fifo_write_n+0x74>
1000a572:	e7be      	b.n	1000a4f2 <tu_fifo_write_n+0xf6>

1000a574 <tu_fifo_clear>:
1000a574:	b510      	push	{r4, lr}
1000a576:	0004      	movs	r4, r0
1000a578:	68c0      	ldr	r0, [r0, #12]
1000a57a:	2800      	cmp	r0, #0
1000a57c:	d003      	beq.n	1000a586 <tu_fifo_clear+0x12>
1000a57e:	2101      	movs	r1, #1
1000a580:	4249      	negs	r1, r1
1000a582:	f000 fc81 	bl	1000ae88 <__mutex_enter_timeout_ms_veneer>
1000a586:	6920      	ldr	r0, [r4, #16]
1000a588:	2800      	cmp	r0, #0
1000a58a:	d003      	beq.n	1000a594 <tu_fifo_clear+0x20>
1000a58c:	2101      	movs	r1, #1
1000a58e:	4249      	negs	r1, r1
1000a590:	f000 fc7a 	bl	1000ae88 <__mutex_enter_timeout_ms_veneer>
1000a594:	2300      	movs	r3, #0
1000a596:	68e0      	ldr	r0, [r4, #12]
1000a598:	8163      	strh	r3, [r4, #10]
1000a59a:	8123      	strh	r3, [r4, #8]
1000a59c:	2800      	cmp	r0, #0
1000a59e:	d001      	beq.n	1000a5a4 <tu_fifo_clear+0x30>
1000a5a0:	f000 fc32 	bl	1000ae08 <__mutex_exit_veneer>
1000a5a4:	6920      	ldr	r0, [r4, #16]
1000a5a6:	2800      	cmp	r0, #0
1000a5a8:	d001      	beq.n	1000a5ae <tu_fifo_clear+0x3a>
1000a5aa:	f000 fc2d 	bl	1000ae08 <__mutex_exit_veneer>
1000a5ae:	2001      	movs	r0, #1
1000a5b0:	bd10      	pop	{r4, pc}
1000a5b2:	46c0      	nop			@ (mov r8, r8)

1000a5b4 <tu_fifo_set_overwritable>:
1000a5b4:	b570      	push	{r4, r5, r6, lr}
1000a5b6:	0004      	movs	r4, r0
1000a5b8:	68c0      	ldr	r0, [r0, #12]
1000a5ba:	000d      	movs	r5, r1
1000a5bc:	2800      	cmp	r0, #0
1000a5be:	d003      	beq.n	1000a5c8 <tu_fifo_set_overwritable+0x14>
1000a5c0:	2101      	movs	r1, #1
1000a5c2:	4249      	negs	r1, r1
1000a5c4:	f000 fc60 	bl	1000ae88 <__mutex_enter_timeout_ms_veneer>
1000a5c8:	6920      	ldr	r0, [r4, #16]
1000a5ca:	2800      	cmp	r0, #0
1000a5cc:	d003      	beq.n	1000a5d6 <tu_fifo_set_overwritable+0x22>
1000a5ce:	2101      	movs	r1, #1
1000a5d0:	4249      	negs	r1, r1
1000a5d2:	f000 fc59 	bl	1000ae88 <__mutex_enter_timeout_ms_veneer>
1000a5d6:	217f      	movs	r1, #127	@ 0x7f
1000a5d8:	79e3      	ldrb	r3, [r4, #7]
1000a5da:	01ed      	lsls	r5, r5, #7
1000a5dc:	4019      	ands	r1, r3
1000a5de:	68e0      	ldr	r0, [r4, #12]
1000a5e0:	4329      	orrs	r1, r5
1000a5e2:	71e1      	strb	r1, [r4, #7]
1000a5e4:	2800      	cmp	r0, #0
1000a5e6:	d001      	beq.n	1000a5ec <tu_fifo_set_overwritable+0x38>
1000a5e8:	f000 fc0e 	bl	1000ae08 <__mutex_exit_veneer>
1000a5ec:	6920      	ldr	r0, [r4, #16]
1000a5ee:	2800      	cmp	r0, #0
1000a5f0:	d001      	beq.n	1000a5f6 <tu_fifo_set_overwritable+0x42>
1000a5f2:	f000 fc09 	bl	1000ae08 <__mutex_exit_veneer>
1000a5f6:	2001      	movs	r0, #1
1000a5f8:	bd70      	pop	{r4, r5, r6, pc}
1000a5fa:	46c0      	nop			@ (mov r8, r8)

1000a5fc <core1_trampoline>:
1000a5fc:	bd03      	pop	{r0, r1, pc}
1000a5fe:	46c0      	nop			@ (mov r8, r8)

1000a600 <core1_wrapper>:
1000a600:	b510      	push	{r4, lr}
1000a602:	0004      	movs	r4, r0
1000a604:	f7f9 fdd2 	bl	100041ac <irq_init_priorities>
1000a608:	47a0      	blx	r4
1000a60a:	bd10      	pop	{r4, pc}

1000a60c <multicore_fifo_push_blocking>:
1000a60c:	22d0      	movs	r2, #208	@ 0xd0
1000a60e:	2102      	movs	r1, #2
1000a610:	0612      	lsls	r2, r2, #24
1000a612:	6d13      	ldr	r3, [r2, #80]	@ 0x50
1000a614:	4219      	tst	r1, r3
1000a616:	d0fc      	beq.n	1000a612 <multicore_fifo_push_blocking+0x6>
1000a618:	6550      	str	r0, [r2, #84]	@ 0x54
1000a61a:	bf40      	sev
1000a61c:	4770      	bx	lr
1000a61e:	46c0      	nop			@ (mov r8, r8)

1000a620 <multicore_fifo_pop_blocking>:
1000a620:	22d0      	movs	r2, #208	@ 0xd0
1000a622:	0612      	lsls	r2, r2, #24
1000a624:	6d13      	ldr	r3, [r2, #80]	@ 0x50
1000a626:	07db      	lsls	r3, r3, #31
1000a628:	d404      	bmi.n	1000a634 <multicore_fifo_pop_blocking+0x14>
1000a62a:	2101      	movs	r1, #1
1000a62c:	bf20      	wfe
1000a62e:	6d13      	ldr	r3, [r2, #80]	@ 0x50
1000a630:	4219      	tst	r1, r3
1000a632:	d0fb      	beq.n	1000a62c <multicore_fifo_pop_blocking+0xc>
1000a634:	23d0      	movs	r3, #208	@ 0xd0
1000a636:	061b      	lsls	r3, r3, #24
1000a638:	6d98      	ldr	r0, [r3, #88]	@ 0x58
1000a63a:	4770      	bx	lr

1000a63c <multicore_launch_core1_raw>:
1000a63c:	b5f0      	push	{r4, r5, r6, r7, lr}
1000a63e:	0004      	movs	r4, r0
1000a640:	b087      	sub	sp, #28
1000a642:	200f      	movs	r0, #15
1000a644:	000e      	movs	r6, r1
1000a646:	0017      	movs	r7, r2
1000a648:	f7f9 fb28 	bl	10003c9c <irq_is_enabled>
1000a64c:	2100      	movs	r1, #0
1000a64e:	0005      	movs	r5, r0
1000a650:	200f      	movs	r0, #15
1000a652:	f7f9 fb11 	bl	10003c78 <irq_set_enabled>
1000a656:	2300      	movs	r3, #0
1000a658:	2200      	movs	r2, #0
1000a65a:	9200      	str	r2, [sp, #0]
1000a65c:	9301      	str	r3, [sp, #4]
1000a65e:	2301      	movs	r3, #1
1000a660:	9302      	str	r3, [sp, #8]
1000a662:	23d0      	movs	r3, #208	@ 0xd0
1000a664:	9604      	str	r6, [sp, #16]
1000a666:	9405      	str	r4, [sp, #20]
1000a668:	2600      	movs	r6, #0
1000a66a:	2400      	movs	r4, #0
1000a66c:	2101      	movs	r1, #1
1000a66e:	2002      	movs	r0, #2
1000a670:	9703      	str	r7, [sp, #12]
1000a672:	061b      	lsls	r3, r3, #24
1000a674:	2c00      	cmp	r4, #0
1000a676:	d014      	beq.n	1000a6a2 <multicore_launch_core1_raw+0x66>
1000a678:	6d1a      	ldr	r2, [r3, #80]	@ 0x50
1000a67a:	4210      	tst	r0, r2
1000a67c:	d0fc      	beq.n	1000a678 <multicore_launch_core1_raw+0x3c>
1000a67e:	655c      	str	r4, [r3, #84]	@ 0x54
1000a680:	bf40      	sev
1000a682:	6d1a      	ldr	r2, [r3, #80]	@ 0x50
1000a684:	4211      	tst	r1, r2
1000a686:	d103      	bne.n	1000a690 <multicore_launch_core1_raw+0x54>
1000a688:	bf20      	wfe
1000a68a:	6d1a      	ldr	r2, [r3, #80]	@ 0x50
1000a68c:	4211      	tst	r1, r2
1000a68e:	d0fb      	beq.n	1000a688 <multicore_launch_core1_raw+0x4c>
1000a690:	6d9a      	ldr	r2, [r3, #88]	@ 0x58
1000a692:	42a2      	cmp	r2, r4
1000a694:	d00a      	beq.n	1000a6ac <multicore_launch_core1_raw+0x70>
1000a696:	2600      	movs	r6, #0
1000a698:	466c      	mov	r4, sp
1000a69a:	00b2      	lsls	r2, r6, #2
1000a69c:	58a4      	ldr	r4, [r4, r2]
1000a69e:	e7e9      	b.n	1000a674 <multicore_launch_core1_raw+0x38>
1000a6a0:	6d9a      	ldr	r2, [r3, #88]	@ 0x58
1000a6a2:	6d1a      	ldr	r2, [r3, #80]	@ 0x50
1000a6a4:	4211      	tst	r1, r2
1000a6a6:	d1fb      	bne.n	1000a6a0 <multicore_launch_core1_raw+0x64>
1000a6a8:	bf40      	sev
1000a6aa:	e7e5      	b.n	1000a678 <multicore_launch_core1_raw+0x3c>
1000a6ac:	3601      	adds	r6, #1
1000a6ae:	2e06      	cmp	r6, #6
1000a6b0:	d1f2      	bne.n	1000a698 <multicore_launch_core1_raw+0x5c>
1000a6b2:	0029      	movs	r1, r5
1000a6b4:	200f      	movs	r0, #15
1000a6b6:	f7f9 fadf 	bl	10003c78 <irq_set_enabled>
1000a6ba:	b007      	add	sp, #28
1000a6bc:	bdf0      	pop	{r4, r5, r6, r7, pc}
1000a6be:	46c0      	nop			@ (mov r8, r8)

1000a6c0 <multicore_launch_core1>:
1000a6c0:	4b0d      	ldr	r3, [pc, #52]	@ (1000a6f8 <multicore_launch_core1+0x38>)
1000a6c2:	4a0e      	ldr	r2, [pc, #56]	@ (1000a6fc <multicore_launch_core1+0x3c>)
1000a6c4:	b510      	push	{r4, lr}
1000a6c6:	4293      	cmp	r3, r2
1000a6c8:	d310      	bcc.n	1000a6ec <multicore_launch_core1+0x2c>
1000a6ca:	4a0d      	ldr	r2, [pc, #52]	@ (1000a700 <multicore_launch_core1+0x40>)
1000a6cc:	1899      	adds	r1, r3, r2
1000a6ce:	001a      	movs	r2, r3
1000a6d0:	4c0b      	ldr	r4, [pc, #44]	@ (1000a700 <multicore_launch_core1+0x40>)
1000a6d2:	5110      	str	r0, [r2, r4]
1000a6d4:	20ff      	movs	r0, #255	@ 0xff
1000a6d6:	00c0      	lsls	r0, r0, #3
1000a6d8:	5013      	str	r3, [r2, r0]
1000a6da:	4b0a      	ldr	r3, [pc, #40]	@ (1000a704 <multicore_launch_core1+0x44>)
1000a6dc:	480a      	ldr	r0, [pc, #40]	@ (1000a708 <multicore_launch_core1+0x48>)
1000a6de:	5013      	str	r3, [r2, r0]
1000a6e0:	4b0a      	ldr	r3, [pc, #40]	@ (1000a70c <multicore_launch_core1+0x4c>)
1000a6e2:	480b      	ldr	r0, [pc, #44]	@ (1000a710 <multicore_launch_core1+0x50>)
1000a6e4:	689a      	ldr	r2, [r3, #8]
1000a6e6:	f7ff ffa9 	bl	1000a63c <multicore_launch_core1_raw>
1000a6ea:	bd10      	pop	{r4, pc}
1000a6ec:	2301      	movs	r3, #1
1000a6ee:	425b      	negs	r3, r3
1000a6f0:	001a      	movs	r2, r3
1000a6f2:	4908      	ldr	r1, [pc, #32]	@ (1000a714 <multicore_launch_core1+0x54>)
1000a6f4:	e7ec      	b.n	1000a6d0 <multicore_launch_core1+0x10>
1000a6f6:	46c0      	nop			@ (mov r8, r8)
1000a6f8:	20040800 	.word	0x20040800
1000a6fc:	20040000 	.word	0x20040000
1000a700:	000007f4 	.word	0x000007f4
1000a704:	1000a601 	.word	0x1000a601
1000a708:	000007fc 	.word	0x000007fc
1000a70c:	e000ed00 	.word	0xe000ed00
1000a710:	1000a5fd 	.word	0x1000a5fd
1000a714:	000007f3 	.word	0x000007f3

1000a718 <spi_init>:
1000a718:	b5f0      	push	{r4, r5, r6, r7, lr}
1000a71a:	464e      	mov	r6, r9
1000a71c:	4681      	mov	r9, r0
1000a71e:	4b4e      	ldr	r3, [pc, #312]	@ (1000a858 <spi_init+0x140>)
1000a720:	4645      	mov	r5, r8
1000a722:	444b      	add	r3, r9
1000a724:	425a      	negs	r2, r3
1000a726:	4153      	adcs	r3, r2
1000a728:	2280      	movs	r2, #128	@ 0x80
1000a72a:	46de      	mov	lr, fp
1000a72c:	4657      	mov	r7, sl
1000a72e:	0292      	lsls	r2, r2, #10
1000a730:	4694      	mov	ip, r2
1000a732:	425b      	negs	r3, r3
1000a734:	b5e0      	push	{r5, r6, r7, lr}
1000a736:	0c1b      	lsrs	r3, r3, #16
1000a738:	4a48      	ldr	r2, [pc, #288]	@ (1000a85c <spi_init+0x144>)
1000a73a:	041b      	lsls	r3, r3, #16
1000a73c:	4463      	add	r3, ip
1000a73e:	6013      	str	r3, [r2, #0]
1000a740:	4a47      	ldr	r2, [pc, #284]	@ (1000a860 <spi_init+0x148>)
1000a742:	000d      	movs	r5, r1
1000a744:	4947      	ldr	r1, [pc, #284]	@ (1000a864 <spi_init+0x14c>)
1000a746:	b083      	sub	sp, #12
1000a748:	6013      	str	r3, [r2, #0]
1000a74a:	0018      	movs	r0, r3
1000a74c:	688a      	ldr	r2, [r1, #8]
1000a74e:	4390      	bics	r0, r2
1000a750:	d1fb      	bne.n	1000a74a <spi_init+0x32>
1000a752:	2006      	movs	r0, #6
1000a754:	f7fa fe38 	bl	100053c8 <clock_get_hz>
1000a758:	464b      	mov	r3, r9
1000a75a:	685a      	ldr	r2, [r3, #4]
1000a75c:	2302      	movs	r3, #2
1000a75e:	401a      	ands	r2, r3
1000a760:	9201      	str	r2, [sp, #4]
1000a762:	2204      	movs	r2, #4
1000a764:	444a      	add	r2, r9
1000a766:	4693      	mov	fp, r2
1000a768:	22c0      	movs	r2, #192	@ 0xc0
1000a76a:	4659      	mov	r1, fp
1000a76c:	0192      	lsls	r2, r2, #6
1000a76e:	4311      	orrs	r1, r2
1000a770:	600b      	str	r3, [r1, #0]
1000a772:	468a      	mov	sl, r1
1000a774:	2180      	movs	r1, #128	@ 0x80
1000a776:	4680      	mov	r8, r0
1000a778:	0049      	lsls	r1, r1, #1
1000a77a:	468c      	mov	ip, r1
1000a77c:	4641      	mov	r1, r8
1000a77e:	2002      	movs	r0, #2
1000a780:	46a8      	mov	r8, r5
1000a782:	0def      	lsrs	r7, r5, #23
1000a784:	026e      	lsls	r6, r5, #9
1000a786:	0dab      	lsrs	r3, r5, #22
1000a788:	02aa      	lsls	r2, r5, #10
1000a78a:	9100      	str	r1, [sp, #0]
1000a78c:	e004      	b.n	1000a798 <spi_init+0x80>
1000a78e:	9c00      	ldr	r4, [sp, #0]
1000a790:	42a5      	cmp	r5, r4
1000a792:	d85e      	bhi.n	1000a852 <spi_init+0x13a>
1000a794:	4560      	cmp	r0, ip
1000a796:	d053      	beq.n	1000a840 <spi_init+0x128>
1000a798:	0001      	movs	r1, r0
1000a79a:	0015      	movs	r5, r2
1000a79c:	001c      	movs	r4, r3
1000a79e:	3002      	adds	r0, #2
1000a7a0:	1992      	adds	r2, r2, r6
1000a7a2:	417b      	adcs	r3, r7
1000a7a4:	2c00      	cmp	r4, #0
1000a7a6:	d0f2      	beq.n	1000a78e <spi_init+0x76>
1000a7a8:	9b00      	ldr	r3, [sp, #0]
1000a7aa:	4645      	mov	r5, r8
1000a7ac:	4698      	mov	r8, r3
1000a7ae:	465b      	mov	r3, fp
1000a7b0:	2480      	movs	r4, #128	@ 0x80
1000a7b2:	46ab      	mov	fp, r5
1000a7b4:	000d      	movs	r5, r1
1000a7b6:	020e      	lsls	r6, r1, #8
1000a7b8:	1a76      	subs	r6, r6, r1
1000a7ba:	0064      	lsls	r4, r4, #1
1000a7bc:	9300      	str	r3, [sp, #0]
1000a7be:	0027      	movs	r7, r4
1000a7c0:	3c01      	subs	r4, #1
1000a7c2:	2c00      	cmp	r4, #0
1000a7c4:	d040      	beq.n	1000a848 <spi_init+0x130>
1000a7c6:	0031      	movs	r1, r6
1000a7c8:	4640      	mov	r0, r8
1000a7ca:	f7fc fbb3 	bl	10006f34 <__wrap___aeabi_uidiv>
1000a7ce:	1b76      	subs	r6, r6, r5
1000a7d0:	4583      	cmp	fp, r0
1000a7d2:	d2f4      	bcs.n	1000a7be <spi_init+0xa6>
1000a7d4:	9b00      	ldr	r3, [sp, #0]
1000a7d6:	0029      	movs	r1, r5
1000a7d8:	469b      	mov	fp, r3
1000a7da:	436f      	muls	r7, r5
1000a7dc:	0224      	lsls	r4, r4, #8
1000a7de:	464b      	mov	r3, r9
1000a7e0:	6119      	str	r1, [r3, #16]
1000a7e2:	681b      	ldr	r3, [r3, #0]
1000a7e4:	464a      	mov	r2, r9
1000a7e6:	405c      	eors	r4, r3
1000a7e8:	23ff      	movs	r3, #255	@ 0xff
1000a7ea:	021b      	lsls	r3, r3, #8
1000a7ec:	401c      	ands	r4, r3
1000a7ee:	2380      	movs	r3, #128	@ 0x80
1000a7f0:	015b      	lsls	r3, r3, #5
1000a7f2:	4313      	orrs	r3, r2
1000a7f4:	2280      	movs	r2, #128	@ 0x80
1000a7f6:	4659      	mov	r1, fp
1000a7f8:	9801      	ldr	r0, [sp, #4]
1000a7fa:	0192      	lsls	r2, r2, #6
1000a7fc:	4311      	orrs	r1, r2
1000a7fe:	601c      	str	r4, [r3, #0]
1000a800:	6008      	str	r0, [r1, #0]
1000a802:	4648      	mov	r0, r9
1000a804:	4655      	mov	r5, sl
1000a806:	6844      	ldr	r4, [r0, #4]
1000a808:	2002      	movs	r0, #2
1000a80a:	6028      	str	r0, [r5, #0]
1000a80c:	464d      	mov	r5, r9
1000a80e:	682e      	ldr	r6, [r5, #0]
1000a810:	2507      	movs	r5, #7
1000a812:	406e      	eors	r6, r5
1000a814:	35c8      	adds	r5, #200	@ 0xc8
1000a816:	4035      	ands	r5, r6
1000a818:	601d      	str	r5, [r3, #0]
1000a81a:	464b      	mov	r3, r9
1000a81c:	3324      	adds	r3, #36	@ 0x24
1000a81e:	431a      	orrs	r2, r3
1000a820:	2303      	movs	r3, #3
1000a822:	4004      	ands	r4, r0
1000a824:	600c      	str	r4, [r1, #0]
1000a826:	6013      	str	r3, [r2, #0]
1000a828:	6008      	str	r0, [r1, #0]
1000a82a:	0039      	movs	r1, r7
1000a82c:	4640      	mov	r0, r8
1000a82e:	f7fc fb81 	bl	10006f34 <__wrap___aeabi_uidiv>
1000a832:	b003      	add	sp, #12
1000a834:	bcf0      	pop	{r4, r5, r6, r7}
1000a836:	46bb      	mov	fp, r7
1000a838:	46b2      	mov	sl, r6
1000a83a:	46a9      	mov	r9, r5
1000a83c:	46a0      	mov	r8, r4
1000a83e:	bdf0      	pop	{r4, r5, r6, r7, pc}
1000a840:	4645      	mov	r5, r8
1000a842:	0001      	movs	r1, r0
1000a844:	46a0      	mov	r8, r4
1000a846:	e7b2      	b.n	1000a7ae <spi_init+0x96>
1000a848:	9b00      	ldr	r3, [sp, #0]
1000a84a:	0029      	movs	r1, r5
1000a84c:	469b      	mov	fp, r3
1000a84e:	002f      	movs	r7, r5
1000a850:	e7c5      	b.n	1000a7de <spi_init+0xc6>
1000a852:	4645      	mov	r5, r8
1000a854:	46a0      	mov	r8, r4
1000a856:	e7aa      	b.n	1000a7ae <spi_init+0x96>
1000a858:	bffc4000 	.word	0xbffc4000
1000a85c:	4000e000 	.word	0x4000e000
1000a860:	4000f000 	.word	0x4000f000
1000a864:	4000c000 	.word	0x4000c000

1000a868 <spi_set_baudrate>:
1000a868:	b5f0      	push	{r4, r5, r6, r7, lr}
1000a86a:	46de      	mov	lr, fp
1000a86c:	4657      	mov	r7, sl
1000a86e:	464e      	mov	r6, r9
1000a870:	4645      	mov	r5, r8
1000a872:	4680      	mov	r8, r0
1000a874:	b5e0      	push	{r5, r6, r7, lr}
1000a876:	2006      	movs	r0, #6
1000a878:	b083      	sub	sp, #12
1000a87a:	000c      	movs	r4, r1
1000a87c:	f7fa fda4 	bl	100053c8 <clock_get_hz>
1000a880:	4643      	mov	r3, r8
1000a882:	2202      	movs	r2, #2
1000a884:	685b      	ldr	r3, [r3, #4]
1000a886:	9001      	str	r0, [sp, #4]
1000a888:	4013      	ands	r3, r2
1000a88a:	469b      	mov	fp, r3
1000a88c:	2304      	movs	r3, #4
1000a88e:	4443      	add	r3, r8
1000a890:	4699      	mov	r9, r3
1000a892:	23c0      	movs	r3, #192	@ 0xc0
1000a894:	4649      	mov	r1, r9
1000a896:	019b      	lsls	r3, r3, #6
1000a898:	430b      	orrs	r3, r1
1000a89a:	2180      	movs	r1, #128	@ 0x80
1000a89c:	601a      	str	r2, [r3, #0]
1000a89e:	2002      	movs	r0, #2
1000a8a0:	46a2      	mov	sl, r4
1000a8a2:	0de7      	lsrs	r7, r4, #23
1000a8a4:	0266      	lsls	r6, r4, #9
1000a8a6:	0da3      	lsrs	r3, r4, #22
1000a8a8:	02a2      	lsls	r2, r4, #10
1000a8aa:	0049      	lsls	r1, r1, #1
1000a8ac:	e004      	b.n	1000a8b8 <spi_set_baudrate+0x50>
1000a8ae:	9c01      	ldr	r4, [sp, #4]
1000a8b0:	45a4      	cmp	ip, r4
1000a8b2:	d809      	bhi.n	1000a8c8 <spi_set_baudrate+0x60>
1000a8b4:	4288      	cmp	r0, r1
1000a8b6:	d038      	beq.n	1000a92a <spi_set_baudrate+0xc2>
1000a8b8:	0005      	movs	r5, r0
1000a8ba:	4694      	mov	ip, r2
1000a8bc:	001c      	movs	r4, r3
1000a8be:	3002      	adds	r0, #2
1000a8c0:	1992      	adds	r2, r2, r6
1000a8c2:	417b      	adcs	r3, r7
1000a8c4:	2c00      	cmp	r4, #0
1000a8c6:	d0f2      	beq.n	1000a8ae <spi_set_baudrate+0x46>
1000a8c8:	4654      	mov	r4, sl
1000a8ca:	2680      	movs	r6, #128	@ 0x80
1000a8cc:	46a2      	mov	sl, r4
1000a8ce:	022f      	lsls	r7, r5, #8
1000a8d0:	1b7f      	subs	r7, r7, r5
1000a8d2:	0076      	lsls	r6, r6, #1
1000a8d4:	0034      	movs	r4, r6
1000a8d6:	3e01      	subs	r6, #1
1000a8d8:	2e00      	cmp	r6, #0
1000a8da:	d029      	beq.n	1000a930 <spi_set_baudrate+0xc8>
1000a8dc:	0039      	movs	r1, r7
1000a8de:	9801      	ldr	r0, [sp, #4]
1000a8e0:	f7fc fb28 	bl	10006f34 <__wrap___aeabi_uidiv>
1000a8e4:	1b7f      	subs	r7, r7, r5
1000a8e6:	4550      	cmp	r0, sl
1000a8e8:	d9f4      	bls.n	1000a8d4 <spi_set_baudrate+0x6c>
1000a8ea:	0020      	movs	r0, r4
1000a8ec:	4368      	muls	r0, r5
1000a8ee:	0236      	lsls	r6, r6, #8
1000a8f0:	4643      	mov	r3, r8
1000a8f2:	22ff      	movs	r2, #255	@ 0xff
1000a8f4:	611d      	str	r5, [r3, #16]
1000a8f6:	681b      	ldr	r3, [r3, #0]
1000a8f8:	0212      	lsls	r2, r2, #8
1000a8fa:	4073      	eors	r3, r6
1000a8fc:	4013      	ands	r3, r2
1000a8fe:	2280      	movs	r2, #128	@ 0x80
1000a900:	4641      	mov	r1, r8
1000a902:	0152      	lsls	r2, r2, #5
1000a904:	430a      	orrs	r2, r1
1000a906:	6013      	str	r3, [r2, #0]
1000a908:	2380      	movs	r3, #128	@ 0x80
1000a90a:	464a      	mov	r2, r9
1000a90c:	019b      	lsls	r3, r3, #6
1000a90e:	4313      	orrs	r3, r2
1000a910:	465a      	mov	r2, fp
1000a912:	0001      	movs	r1, r0
1000a914:	601a      	str	r2, [r3, #0]
1000a916:	9801      	ldr	r0, [sp, #4]
1000a918:	f7fc fb0c 	bl	10006f34 <__wrap___aeabi_uidiv>
1000a91c:	b003      	add	sp, #12
1000a91e:	bcf0      	pop	{r4, r5, r6, r7}
1000a920:	46bb      	mov	fp, r7
1000a922:	46b2      	mov	sl, r6
1000a924:	46a9      	mov	r9, r5
1000a926:	46a0      	mov	r8, r4
1000a928:	bdf0      	pop	{r4, r5, r6, r7, pc}
1000a92a:	4654      	mov	r4, sl
1000a92c:	0005      	movs	r5, r0
1000a92e:	e7cc      	b.n	1000a8ca <spi_set_baudrate+0x62>
1000a930:	0028      	movs	r0, r5
1000a932:	e7dd      	b.n	1000a8f0 <spi_set_baudrate+0x88>

1000a934 <pio_add_program>:
1000a934:	b5f0      	push	{r4, r5, r6, r7, lr}
1000a936:	46de      	mov	lr, fp
1000a938:	4657      	mov	r7, sl
1000a93a:	464e      	mov	r6, r9
1000a93c:	4645      	mov	r5, r8
1000a93e:	4688      	mov	r8, r1
1000a940:	b5e0      	push	{r5, r6, r7, lr}
1000a942:	b083      	sub	sp, #12
1000a944:	0006      	movs	r6, r0
1000a946:	2405      	movs	r4, #5
1000a948:	f7f9 f8e4 	bl	10003b14 <hw_claim_lock>
1000a94c:	4643      	mov	r3, r8
1000a94e:	791f      	ldrb	r7, [r3, #4]
1000a950:	571c      	ldrsb	r4, [r3, r4]
1000a952:	4b31      	ldr	r3, [pc, #196]	@ (1000aa18 <pio_add_program+0xe4>)
1000a954:	4682      	mov	sl, r0
1000a956:	18f3      	adds	r3, r6, r3
1000a958:	425a      	negs	r2, r3
1000a95a:	4153      	adcs	r3, r2
1000a95c:	009b      	lsls	r3, r3, #2
1000a95e:	469c      	mov	ip, r3
1000a960:	4a2e      	ldr	r2, [pc, #184]	@ (1000aa1c <pio_add_program+0xe8>)
1000a962:	0013      	movs	r3, r2
1000a964:	4693      	mov	fp, r2
1000a966:	4662      	mov	r2, ip
1000a968:	589b      	ldr	r3, [r3, r2]
1000a96a:	2201      	movs	r2, #1
1000a96c:	4699      	mov	r9, r3
1000a96e:	40ba      	lsls	r2, r7
1000a970:	2320      	movs	r3, #32
1000a972:	3a01      	subs	r2, #1
1000a974:	1bdb      	subs	r3, r3, r7
1000a976:	2c00      	cmp	r4, #0
1000a978:	db36      	blt.n	1000a9e8 <pio_add_program+0xb4>
1000a97a:	429c      	cmp	r4, r3
1000a97c:	dc46      	bgt.n	1000aa0c <pio_add_program+0xd8>
1000a97e:	40a2      	lsls	r2, r4
1000a980:	464b      	mov	r3, r9
1000a982:	4213      	tst	r3, r2
1000a984:	d142      	bne.n	1000aa0c <pio_add_program+0xd8>
1000a986:	9201      	str	r2, [sp, #4]
1000a988:	2f00      	cmp	r7, #0
1000a98a:	d01c      	beq.n	1000a9c6 <pio_add_program+0x92>
1000a98c:	4642      	mov	r2, r8
1000a98e:	4643      	mov	r3, r8
1000a990:	7852      	ldrb	r2, [r2, #1]
1000a992:	781b      	ldrb	r3, [r3, #0]
1000a994:	0212      	lsls	r2, r2, #8
1000a996:	431a      	orrs	r2, r3
1000a998:	4643      	mov	r3, r8
1000a99a:	789b      	ldrb	r3, [r3, #2]
1000a99c:	2580      	movs	r5, #128	@ 0x80
1000a99e:	041b      	lsls	r3, r3, #16
1000a9a0:	4313      	orrs	r3, r2
1000a9a2:	4642      	mov	r2, r8
1000a9a4:	78d0      	ldrb	r0, [r2, #3]
1000a9a6:	2200      	movs	r2, #0
1000a9a8:	0600      	lsls	r0, r0, #24
1000a9aa:	4318      	orrs	r0, r3
1000a9ac:	01ad      	lsls	r5, r5, #6
1000a9ae:	0053      	lsls	r3, r2, #1
1000a9b0:	5ac1      	ldrh	r1, [r0, r3]
1000a9b2:	42a9      	cmp	r1, r5
1000a9b4:	d200      	bcs.n	1000a9b8 <pio_add_program+0x84>
1000a9b6:	1909      	adds	r1, r1, r4
1000a9b8:	18a3      	adds	r3, r4, r2
1000a9ba:	3312      	adds	r3, #18
1000a9bc:	009b      	lsls	r3, r3, #2
1000a9be:	3201      	adds	r2, #1
1000a9c0:	5199      	str	r1, [r3, r6]
1000a9c2:	42ba      	cmp	r2, r7
1000a9c4:	d3f3      	bcc.n	1000a9ae <pio_add_program+0x7a>
1000a9c6:	464d      	mov	r5, r9
1000a9c8:	9b01      	ldr	r3, [sp, #4]
1000a9ca:	4662      	mov	r2, ip
1000a9cc:	431d      	orrs	r5, r3
1000a9ce:	465b      	mov	r3, fp
1000a9d0:	4650      	mov	r0, sl
1000a9d2:	509d      	str	r5, [r3, r2]
1000a9d4:	f7f9 f8aa 	bl	10003b2c <hw_claim_unlock>
1000a9d8:	0020      	movs	r0, r4
1000a9da:	b003      	add	sp, #12
1000a9dc:	bcf0      	pop	{r4, r5, r6, r7}
1000a9de:	46bb      	mov	fp, r7
1000a9e0:	46b2      	mov	sl, r6
1000a9e2:	46a9      	mov	r9, r5
1000a9e4:	46a0      	mov	r8, r4
1000a9e6:	bdf0      	pop	{r4, r5, r6, r7, pc}
1000a9e8:	2b00      	cmp	r3, #0
1000a9ea:	db0f      	blt.n	1000aa0c <pio_add_program+0xd8>
1000a9ec:	0011      	movs	r1, r2
1000a9ee:	4648      	mov	r0, r9
1000a9f0:	4099      	lsls	r1, r3
1000a9f2:	001c      	movs	r4, r3
1000a9f4:	9101      	str	r1, [sp, #4]
1000a9f6:	4201      	tst	r1, r0
1000a9f8:	d106      	bne.n	1000aa08 <pio_add_program+0xd4>
1000a9fa:	e7c5      	b.n	1000a988 <pio_add_program+0x54>
1000a9fc:	0015      	movs	r5, r2
1000a9fe:	4649      	mov	r1, r9
1000aa00:	409d      	lsls	r5, r3
1000aa02:	001c      	movs	r4, r3
1000aa04:	4229      	tst	r1, r5
1000aa06:	d004      	beq.n	1000aa12 <pio_add_program+0xde>
1000aa08:	3b01      	subs	r3, #1
1000aa0a:	d2f7      	bcs.n	1000a9fc <pio_add_program+0xc8>
1000aa0c:	4804      	ldr	r0, [pc, #16]	@ (1000aa20 <pio_add_program+0xec>)
1000aa0e:	f7fa fe65 	bl	100056dc <panic>
1000aa12:	9501      	str	r5, [sp, #4]
1000aa14:	e7b8      	b.n	1000a988 <pio_add_program+0x54>
1000aa16:	46c0      	nop			@ (mov r8, r8)
1000aa18:	afd00000 	.word	0xafd00000
1000aa1c:	20001cd8 	.word	0x20001cd8
1000aa20:	1000b848 	.word	0x1000b848

1000aa24 <pio_sm_set_pindirs_with_mask>:
1000aa24:	b5f0      	push	{r4, r5, r6, r7, lr}
1000aa26:	46de      	mov	lr, fp
1000aa28:	4657      	mov	r7, sl
1000aa2a:	464e      	mov	r6, r9
1000aa2c:	4645      	mov	r5, r8
1000aa2e:	b5e0      	push	{r5, r6, r7, lr}
1000aa30:	0016      	movs	r6, r2
1000aa32:	22dc      	movs	r2, #220	@ 0xdc
1000aa34:	4692      	mov	sl, r2
1000aa36:	b085      	sub	sp, #20
1000aa38:	001c      	movs	r4, r3
1000aa3a:	004b      	lsls	r3, r1, #1
1000aa3c:	9302      	str	r3, [sp, #8]
1000aa3e:	185b      	adds	r3, r3, r1
1000aa40:	00db      	lsls	r3, r3, #3
1000aa42:	18c5      	adds	r5, r0, r3
1000aa44:	44aa      	add	sl, r5
1000aa46:	4652      	mov	r2, sl
1000aa48:	4683      	mov	fp, r0
1000aa4a:	0028      	movs	r0, r5
1000aa4c:	6812      	ldr	r2, [r2, #0]
1000aa4e:	30cc      	adds	r0, #204	@ 0xcc
1000aa50:	9200      	str	r2, [sp, #0]
1000aa52:	6802      	ldr	r2, [r0, #0]
1000aa54:	20c0      	movs	r0, #192	@ 0xc0
1000aa56:	33cc      	adds	r3, #204	@ 0xcc
1000aa58:	0180      	lsls	r0, r0, #6
1000aa5a:	445b      	add	r3, fp
1000aa5c:	4303      	orrs	r3, r0
1000aa5e:	2080      	movs	r0, #128	@ 0x80
1000aa60:	0280      	lsls	r0, r0, #10
1000aa62:	9201      	str	r2, [sp, #4]
1000aa64:	6018      	str	r0, [r3, #0]
1000aa66:	2c00      	cmp	r4, #0
1000aa68:	d01c      	beq.n	1000aaa4 <pio_sm_set_pindirs_with_mask+0x80>
1000aa6a:	2380      	movs	r3, #128	@ 0x80
1000aa6c:	04db      	lsls	r3, r3, #19
1000aa6e:	4699      	mov	r9, r3
1000aa70:	2301      	movs	r3, #1
1000aa72:	35d8      	adds	r5, #216	@ 0xd8
1000aa74:	4698      	mov	r8, r3
1000aa76:	002b      	movs	r3, r5
1000aa78:	4655      	mov	r5, sl
1000aa7a:	469a      	mov	sl, r3
1000aa7c:	4f12      	ldr	r7, [pc, #72]	@ (1000aac8 <pio_sm_set_pindirs_with_mask+0xa4>)
1000aa7e:	9103      	str	r1, [sp, #12]
1000aa80:	0020      	movs	r0, r4
1000aa82:	f7fc f9f7 	bl	10006e74 <__wrap___ctzsi2>
1000aa86:	464a      	mov	r2, r9
1000aa88:	0143      	lsls	r3, r0, #5
1000aa8a:	4313      	orrs	r3, r2
1000aa8c:	602b      	str	r3, [r5, #0]
1000aa8e:	0033      	movs	r3, r6
1000aa90:	4642      	mov	r2, r8
1000aa92:	40c3      	lsrs	r3, r0
1000aa94:	4013      	ands	r3, r2
1000aa96:	4652      	mov	r2, sl
1000aa98:	433b      	orrs	r3, r7
1000aa9a:	6013      	str	r3, [r2, #0]
1000aa9c:	1e63      	subs	r3, r4, #1
1000aa9e:	401c      	ands	r4, r3
1000aaa0:	d1ee      	bne.n	1000aa80 <pio_sm_set_pindirs_with_mask+0x5c>
1000aaa2:	9903      	ldr	r1, [sp, #12]
1000aaa4:	9b02      	ldr	r3, [sp, #8]
1000aaa6:	185b      	adds	r3, r3, r1
1000aaa8:	00db      	lsls	r3, r3, #3
1000aaaa:	445b      	add	r3, fp
1000aaac:	001a      	movs	r2, r3
1000aaae:	9900      	ldr	r1, [sp, #0]
1000aab0:	32dc      	adds	r2, #220	@ 0xdc
1000aab2:	6011      	str	r1, [r2, #0]
1000aab4:	9a01      	ldr	r2, [sp, #4]
1000aab6:	33cc      	adds	r3, #204	@ 0xcc
1000aab8:	601a      	str	r2, [r3, #0]
1000aaba:	b005      	add	sp, #20
1000aabc:	bcf0      	pop	{r4, r5, r6, r7}
1000aabe:	46bb      	mov	fp, r7
1000aac0:	46b2      	mov	sl, r6
1000aac2:	46a9      	mov	r9, r5
1000aac4:	46a0      	mov	r8, r4
1000aac6:	bdf0      	pop	{r4, r5, r6, r7, pc}
1000aac8:	0000e080 	.word	0x0000e080

1000aacc <pio_sm_init>:
1000aacc:	b5f0      	push	{r4, r5, r6, r7, lr}
1000aace:	2501      	movs	r5, #1
1000aad0:	408d      	lsls	r5, r1
1000aad2:	6804      	ldr	r4, [r0, #0]
1000aad4:	43ac      	bics	r4, r5
1000aad6:	6004      	str	r4, [r0, #0]
1000aad8:	2b00      	cmp	r3, #0
1000aada:	d02e      	beq.n	1000ab3a <pio_sm_init+0x6e>
1000aadc:	004d      	lsls	r5, r1, #1
1000aade:	186c      	adds	r4, r5, r1
1000aae0:	00e4      	lsls	r4, r4, #3
1000aae2:	1904      	adds	r4, r0, r4
1000aae4:	0026      	movs	r6, r4
1000aae6:	681f      	ldr	r7, [r3, #0]
1000aae8:	36c8      	adds	r6, #200	@ 0xc8
1000aaea:	6037      	str	r7, [r6, #0]
1000aaec:	685f      	ldr	r7, [r3, #4]
1000aaee:	34dc      	adds	r4, #220	@ 0xdc
1000aaf0:	6077      	str	r7, [r6, #4]
1000aaf2:	689f      	ldr	r7, [r3, #8]
1000aaf4:	68db      	ldr	r3, [r3, #12]
1000aaf6:	60b7      	str	r7, [r6, #8]
1000aaf8:	6023      	str	r3, [r4, #0]
1000aafa:	186b      	adds	r3, r5, r1
1000aafc:	00db      	lsls	r3, r3, #3
1000aafe:	001d      	movs	r5, r3
1000ab00:	2480      	movs	r4, #128	@ 0x80
1000ab02:	35d0      	adds	r5, #208	@ 0xd0
1000ab04:	1945      	adds	r5, r0, r5
1000ab06:	0164      	lsls	r4, r4, #5
1000ab08:	432c      	orrs	r4, r5
1000ab0a:	2580      	movs	r5, #128	@ 0x80
1000ab0c:	062d      	lsls	r5, r5, #24
1000ab0e:	6025      	str	r5, [r4, #0]
1000ab10:	6025      	str	r5, [r4, #0]
1000ab12:	2501      	movs	r5, #1
1000ab14:	4c12      	ldr	r4, [pc, #72]	@ (1000ab60 <pio_sm_init+0x94>)
1000ab16:	002e      	movs	r6, r5
1000ab18:	408c      	lsls	r4, r1
1000ab1a:	6084      	str	r4, [r0, #8]
1000ab1c:	1d0c      	adds	r4, r1, #4
1000ab1e:	40a6      	lsls	r6, r4
1000ab20:	2480      	movs	r4, #128	@ 0x80
1000ab22:	3108      	adds	r1, #8
1000ab24:	408d      	lsls	r5, r1
1000ab26:	211f      	movs	r1, #31
1000ab28:	01a4      	lsls	r4, r4, #6
1000ab2a:	4304      	orrs	r4, r0
1000ab2c:	18c0      	adds	r0, r0, r3
1000ab2e:	400a      	ands	r2, r1
1000ab30:	30d8      	adds	r0, #216	@ 0xd8
1000ab32:	6026      	str	r6, [r4, #0]
1000ab34:	6025      	str	r5, [r4, #0]
1000ab36:	6002      	str	r2, [r0, #0]
1000ab38:	bdf0      	pop	{r4, r5, r6, r7, pc}
1000ab3a:	004d      	lsls	r5, r1, #1
1000ab3c:	186c      	adds	r4, r5, r1
1000ab3e:	00e4      	lsls	r4, r4, #3
1000ab40:	1904      	adds	r4, r0, r4
1000ab42:	0026      	movs	r6, r4
1000ab44:	2780      	movs	r7, #128	@ 0x80
1000ab46:	36c8      	adds	r6, #200	@ 0xc8
1000ab48:	027f      	lsls	r7, r7, #9
1000ab4a:	6037      	str	r7, [r6, #0]
1000ab4c:	27f8      	movs	r7, #248	@ 0xf8
1000ab4e:	027f      	lsls	r7, r7, #9
1000ab50:	6077      	str	r7, [r6, #4]
1000ab52:	27c0      	movs	r7, #192	@ 0xc0
1000ab54:	34dc      	adds	r4, #220	@ 0xdc
1000ab56:	033f      	lsls	r7, r7, #12
1000ab58:	60b7      	str	r7, [r6, #8]
1000ab5a:	6023      	str	r3, [r4, #0]
1000ab5c:	e7cd      	b.n	1000aafa <pio_sm_init+0x2e>
1000ab5e:	46c0      	nop			@ (mov r8, r8)
1000ab60:	01010101 	.word	0x01010101

1000ab64 <dma_claim_unused_channel>:
1000ab64:	b510      	push	{r4, lr}
1000ab66:	4b06      	ldr	r3, [pc, #24]	@ (1000ab80 <dma_claim_unused_channel+0x1c>)
1000ab68:	4c06      	ldr	r4, [pc, #24]	@ (1000ab84 <dma_claim_unused_channel+0x20>)
1000ab6a:	b082      	sub	sp, #8
1000ab6c:	0001      	movs	r1, r0
1000ab6e:	9300      	str	r3, [sp, #0]
1000ab70:	2200      	movs	r2, #0
1000ab72:	230b      	movs	r3, #11
1000ab74:	0020      	movs	r0, r4
1000ab76:	f7f9 f805 	bl	10003b84 <hw_claim_unused_from_range>
1000ab7a:	b002      	add	sp, #8
1000ab7c:	bd10      	pop	{r4, pc}
1000ab7e:	46c0      	nop			@ (mov r8, r8)
1000ab80:	1000b85c 	.word	0x1000b85c
1000ab84:	2003f3ec 	.word	0x2003f3ec

1000ab88 <atexit>:
1000ab88:	b510      	push	{r4, lr}
1000ab8a:	0001      	movs	r1, r0
1000ab8c:	2300      	movs	r3, #0
1000ab8e:	2200      	movs	r2, #0
1000ab90:	2000      	movs	r0, #0
1000ab92:	f000 f8c1 	bl	1000ad18 <__register_exitproc>
1000ab96:	bd10      	pop	{r4, pc}

1000ab98 <__libc_fini_array>:
1000ab98:	b570      	push	{r4, r5, r6, lr}
1000ab9a:	4c07      	ldr	r4, [pc, #28]	@ (1000abb8 <__libc_fini_array+0x20>)
1000ab9c:	4d07      	ldr	r5, [pc, #28]	@ (1000abbc <__libc_fini_array+0x24>)
1000ab9e:	1b64      	subs	r4, r4, r5
1000aba0:	10a4      	asrs	r4, r4, #2
1000aba2:	d005      	beq.n	1000abb0 <__libc_fini_array+0x18>
1000aba4:	3c01      	subs	r4, #1
1000aba6:	00a3      	lsls	r3, r4, #2
1000aba8:	58eb      	ldr	r3, [r5, r3]
1000abaa:	4798      	blx	r3
1000abac:	2c00      	cmp	r4, #0
1000abae:	d1f9      	bne.n	1000aba4 <__libc_fini_array+0xc>
1000abb0:	f000 f918 	bl	1000ade4 <_fini>
1000abb4:	bd70      	pop	{r4, r5, r6, pc}
1000abb6:	46c0      	nop			@ (mov r8, r8)
1000abb8:	20001528 	.word	0x20001528
1000abbc:	20001528 	.word	0x20001528

1000abc0 <strcmp>:
1000abc0:	4602      	mov	r2, r0
1000abc2:	b570      	push	{r4, r5, r6, lr}
1000abc4:	430a      	orrs	r2, r1
1000abc6:	0792      	lsls	r2, r2, #30
1000abc8:	d12a      	bne.n	1000ac20 <strcmp+0x60>
1000abca:	4d1e      	ldr	r5, [pc, #120]	@ (1000ac44 <strcmp+0x84>)
1000abcc:	01ee      	lsls	r6, r5, #7
1000abce:	c804      	ldmia	r0!, {r2}
1000abd0:	c908      	ldmia	r1!, {r3}
1000abd2:	1b54      	subs	r4, r2, r5
1000abd4:	4394      	bics	r4, r2
1000abd6:	4034      	ands	r4, r6
1000abd8:	d017      	beq.n	1000ac0a <strcmp+0x4a>
1000abda:	b2d0      	uxtb	r0, r2
1000abdc:	b2d9      	uxtb	r1, r3
1000abde:	1a40      	subs	r0, r0, r1
1000abe0:	0621      	lsls	r1, r4, #24
1000abe2:	4301      	orrs	r1, r0
1000abe4:	d110      	bne.n	1000ac08 <strcmp+0x48>
1000abe6:	b290      	uxth	r0, r2
1000abe8:	b299      	uxth	r1, r3
1000abea:	1a40      	subs	r0, r0, r1
1000abec:	0421      	lsls	r1, r4, #16
1000abee:	4301      	orrs	r1, r0
1000abf0:	d10a      	bne.n	1000ac08 <strcmp+0x48>
1000abf2:	0210      	lsls	r0, r2, #8
1000abf4:	0219      	lsls	r1, r3, #8
1000abf6:	0a00      	lsrs	r0, r0, #8
1000abf8:	0a09      	lsrs	r1, r1, #8
1000abfa:	1a40      	subs	r0, r0, r1
1000abfc:	0221      	lsls	r1, r4, #8
1000abfe:	4301      	orrs	r1, r0
1000ac00:	d102      	bne.n	1000ac08 <strcmp+0x48>
1000ac02:	0e10      	lsrs	r0, r2, #24
1000ac04:	0e19      	lsrs	r1, r3, #24
1000ac06:	1a40      	subs	r0, r0, r1
1000ac08:	bd70      	pop	{r4, r5, r6, pc}
1000ac0a:	429a      	cmp	r2, r3
1000ac0c:	d0df      	beq.n	1000abce <strcmp+0xe>
1000ac0e:	ba10      	rev	r0, r2
1000ac10:	ba19      	rev	r1, r3
1000ac12:	4288      	cmp	r0, r1
1000ac14:	d901      	bls.n	1000ac1a <strcmp+0x5a>
1000ac16:	2001      	movs	r0, #1
1000ac18:	bd70      	pop	{r4, r5, r6, pc}
1000ac1a:	2000      	movs	r0, #0
1000ac1c:	43c0      	mvns	r0, r0
1000ac1e:	bd70      	pop	{r4, r5, r6, pc}
1000ac20:	7802      	ldrb	r2, [r0, #0]
1000ac22:	780b      	ldrb	r3, [r1, #0]
1000ac24:	3001      	adds	r0, #1
1000ac26:	3101      	adds	r1, #1
1000ac28:	2a00      	cmp	r2, #0
1000ac2a:	d009      	beq.n	1000ac40 <strcmp+0x80>
1000ac2c:	429a      	cmp	r2, r3
1000ac2e:	d107      	bne.n	1000ac40 <strcmp+0x80>
1000ac30:	7802      	ldrb	r2, [r0, #0]
1000ac32:	780b      	ldrb	r3, [r1, #0]
1000ac34:	3001      	adds	r0, #1
1000ac36:	3101      	adds	r1, #1
1000ac38:	2a00      	cmp	r2, #0
1000ac3a:	d001      	beq.n	1000ac40 <strcmp+0x80>
1000ac3c:	429a      	cmp	r2, r3
1000ac3e:	d0ef      	beq.n	1000ac20 <strcmp+0x60>
1000ac40:	1ad0      	subs	r0, r2, r3
1000ac42:	bd70      	pop	{r4, r5, r6, pc}
1000ac44:	01010101 	.word	0x01010101

1000ac48 <strlen>:
1000ac48:	b510      	push	{r4, lr}
1000ac4a:	0783      	lsls	r3, r0, #30
1000ac4c:	d00a      	beq.n	1000ac64 <strlen+0x1c>
1000ac4e:	0003      	movs	r3, r0
1000ac50:	2103      	movs	r1, #3
1000ac52:	e002      	b.n	1000ac5a <strlen+0x12>
1000ac54:	3301      	adds	r3, #1
1000ac56:	420b      	tst	r3, r1
1000ac58:	d005      	beq.n	1000ac66 <strlen+0x1e>
1000ac5a:	781a      	ldrb	r2, [r3, #0]
1000ac5c:	2a00      	cmp	r2, #0
1000ac5e:	d1f9      	bne.n	1000ac54 <strlen+0xc>
1000ac60:	1a18      	subs	r0, r3, r0
1000ac62:	bd10      	pop	{r4, pc}
1000ac64:	0003      	movs	r3, r0
1000ac66:	6819      	ldr	r1, [r3, #0]
1000ac68:	4a0c      	ldr	r2, [pc, #48]	@ (1000ac9c <strlen+0x54>)
1000ac6a:	4c0d      	ldr	r4, [pc, #52]	@ (1000aca0 <strlen+0x58>)
1000ac6c:	188a      	adds	r2, r1, r2
1000ac6e:	438a      	bics	r2, r1
1000ac70:	4222      	tst	r2, r4
1000ac72:	d10f      	bne.n	1000ac94 <strlen+0x4c>
1000ac74:	6859      	ldr	r1, [r3, #4]
1000ac76:	4a09      	ldr	r2, [pc, #36]	@ (1000ac9c <strlen+0x54>)
1000ac78:	3304      	adds	r3, #4
1000ac7a:	188a      	adds	r2, r1, r2
1000ac7c:	438a      	bics	r2, r1
1000ac7e:	4222      	tst	r2, r4
1000ac80:	d108      	bne.n	1000ac94 <strlen+0x4c>
1000ac82:	6859      	ldr	r1, [r3, #4]
1000ac84:	4a05      	ldr	r2, [pc, #20]	@ (1000ac9c <strlen+0x54>)
1000ac86:	3304      	adds	r3, #4
1000ac88:	188a      	adds	r2, r1, r2
1000ac8a:	438a      	bics	r2, r1
1000ac8c:	4222      	tst	r2, r4
1000ac8e:	d0f1      	beq.n	1000ac74 <strlen+0x2c>
1000ac90:	e000      	b.n	1000ac94 <strlen+0x4c>
1000ac92:	3301      	adds	r3, #1
1000ac94:	781a      	ldrb	r2, [r3, #0]
1000ac96:	2a00      	cmp	r2, #0
1000ac98:	d1fb      	bne.n	1000ac92 <strlen+0x4a>
1000ac9a:	e7e1      	b.n	1000ac60 <strlen+0x18>
1000ac9c:	fefefeff 	.word	0xfefefeff
1000aca0:	80808080 	.word	0x80808080

1000aca4 <strncmp>:
1000aca4:	b530      	push	{r4, r5, lr}
1000aca6:	2a00      	cmp	r2, #0
1000aca8:	d026      	beq.n	1000acf8 <strncmp+0x54>
1000acaa:	0003      	movs	r3, r0
1000acac:	430b      	orrs	r3, r1
1000acae:	079b      	lsls	r3, r3, #30
1000acb0:	d124      	bne.n	1000acfc <strncmp+0x58>
1000acb2:	2a03      	cmp	r2, #3
1000acb4:	d922      	bls.n	1000acfc <strncmp+0x58>
1000acb6:	4d16      	ldr	r5, [pc, #88]	@ (1000ad10 <strncmp+0x6c>)
1000acb8:	e00b      	b.n	1000acd2 <strncmp+0x2e>
1000acba:	3a04      	subs	r2, #4
1000acbc:	2a00      	cmp	r2, #0
1000acbe:	d01b      	beq.n	1000acf8 <strncmp+0x54>
1000acc0:	4c14      	ldr	r4, [pc, #80]	@ (1000ad14 <strncmp+0x70>)
1000acc2:	191c      	adds	r4, r3, r4
1000acc4:	439c      	bics	r4, r3
1000acc6:	422c      	tst	r4, r5
1000acc8:	d116      	bne.n	1000acf8 <strncmp+0x54>
1000acca:	3004      	adds	r0, #4
1000accc:	3104      	adds	r1, #4
1000acce:	2a03      	cmp	r2, #3
1000acd0:	d914      	bls.n	1000acfc <strncmp+0x58>
1000acd2:	6803      	ldr	r3, [r0, #0]
1000acd4:	680c      	ldr	r4, [r1, #0]
1000acd6:	42a3      	cmp	r3, r4
1000acd8:	d0ef      	beq.n	1000acba <strncmp+0x16>
1000acda:	7804      	ldrb	r4, [r0, #0]
1000acdc:	780d      	ldrb	r5, [r1, #0]
1000acde:	42ac      	cmp	r4, r5
1000ace0:	d113      	bne.n	1000ad0a <strncmp+0x66>
1000ace2:	2301      	movs	r3, #1
1000ace4:	e006      	b.n	1000acf4 <strncmp+0x50>
1000ace6:	5cc4      	ldrb	r4, [r0, r3]
1000ace8:	5ccd      	ldrb	r5, [r1, r3]
1000acea:	42ac      	cmp	r4, r5
1000acec:	d10d      	bne.n	1000ad0a <strncmp+0x66>
1000acee:	3301      	adds	r3, #1
1000acf0:	4293      	cmp	r3, r2
1000acf2:	d001      	beq.n	1000acf8 <strncmp+0x54>
1000acf4:	2c00      	cmp	r4, #0
1000acf6:	d1f6      	bne.n	1000ace6 <strncmp+0x42>
1000acf8:	2000      	movs	r0, #0
1000acfa:	bd30      	pop	{r4, r5, pc}
1000acfc:	7804      	ldrb	r4, [r0, #0]
1000acfe:	780d      	ldrb	r5, [r1, #0]
1000ad00:	42a5      	cmp	r5, r4
1000ad02:	d102      	bne.n	1000ad0a <strncmp+0x66>
1000ad04:	2a01      	cmp	r2, #1
1000ad06:	d1ec      	bne.n	1000ace2 <strncmp+0x3e>
1000ad08:	e7f6      	b.n	1000acf8 <strncmp+0x54>
1000ad0a:	1b60      	subs	r0, r4, r5
1000ad0c:	e7f5      	b.n	1000acfa <strncmp+0x56>
1000ad0e:	46c0      	nop			@ (mov r8, r8)
1000ad10:	80808080 	.word	0x80808080
1000ad14:	fefefeff 	.word	0xfefefeff

1000ad18 <__register_exitproc>:
1000ad18:	b5f0      	push	{r4, r5, r6, r7, lr}
1000ad1a:	46d6      	mov	lr, sl
1000ad1c:	464f      	mov	r7, r9
1000ad1e:	4646      	mov	r6, r8
1000ad20:	4698      	mov	r8, r3
1000ad22:	4b26      	ldr	r3, [pc, #152]	@ (1000adbc <__register_exitproc+0xa4>)
1000ad24:	b5c0      	push	{r6, r7, lr}
1000ad26:	0006      	movs	r6, r0
1000ad28:	6818      	ldr	r0, [r3, #0]
1000ad2a:	4691      	mov	r9, r2
1000ad2c:	469a      	mov	sl, r3
1000ad2e:	000f      	movs	r7, r1
1000ad30:	f000 f854 	bl	1000addc <__retarget_lock_acquire_recursive>
1000ad34:	22a4      	movs	r2, #164	@ 0xa4
1000ad36:	4b22      	ldr	r3, [pc, #136]	@ (1000adc0 <__register_exitproc+0xa8>)
1000ad38:	0052      	lsls	r2, r2, #1
1000ad3a:	681b      	ldr	r3, [r3, #0]
1000ad3c:	589d      	ldr	r5, [r3, r2]
1000ad3e:	2d00      	cmp	r5, #0
1000ad40:	d032      	beq.n	1000ada8 <__register_exitproc+0x90>
1000ad42:	4653      	mov	r3, sl
1000ad44:	686c      	ldr	r4, [r5, #4]
1000ad46:	6818      	ldr	r0, [r3, #0]
1000ad48:	2c1f      	cmp	r4, #31
1000ad4a:	dc32      	bgt.n	1000adb2 <__register_exitproc+0x9a>
1000ad4c:	2e00      	cmp	r6, #0
1000ad4e:	d10c      	bne.n	1000ad6a <__register_exitproc+0x52>
1000ad50:	1c63      	adds	r3, r4, #1
1000ad52:	3402      	adds	r4, #2
1000ad54:	00a4      	lsls	r4, r4, #2
1000ad56:	606b      	str	r3, [r5, #4]
1000ad58:	5167      	str	r7, [r4, r5]
1000ad5a:	f000 f841 	bl	1000ade0 <__retarget_lock_release_recursive>
1000ad5e:	2000      	movs	r0, #0
1000ad60:	bce0      	pop	{r5, r6, r7}
1000ad62:	46ba      	mov	sl, r7
1000ad64:	46b1      	mov	r9, r6
1000ad66:	46a8      	mov	r8, r5
1000ad68:	bdf0      	pop	{r4, r5, r6, r7, pc}
1000ad6a:	4649      	mov	r1, r9
1000ad6c:	2288      	movs	r2, #136	@ 0x88
1000ad6e:	00a3      	lsls	r3, r4, #2
1000ad70:	18eb      	adds	r3, r5, r3
1000ad72:	5099      	str	r1, [r3, r2]
1000ad74:	21c4      	movs	r1, #196	@ 0xc4
1000ad76:	0049      	lsls	r1, r1, #1
1000ad78:	468c      	mov	ip, r1
1000ad7a:	44ac      	add	ip, r5
1000ad7c:	4661      	mov	r1, ip
1000ad7e:	3a87      	subs	r2, #135	@ 0x87
1000ad80:	40a2      	lsls	r2, r4
1000ad82:	6809      	ldr	r1, [r1, #0]
1000ad84:	4691      	mov	r9, r2
1000ad86:	4311      	orrs	r1, r2
1000ad88:	4662      	mov	r2, ip
1000ad8a:	6011      	str	r1, [r2, #0]
1000ad8c:	2184      	movs	r1, #132	@ 0x84
1000ad8e:	4642      	mov	r2, r8
1000ad90:	0049      	lsls	r1, r1, #1
1000ad92:	505a      	str	r2, [r3, r1]
1000ad94:	2e02      	cmp	r6, #2
1000ad96:	d1db      	bne.n	1000ad50 <__register_exitproc+0x38>
1000ad98:	0029      	movs	r1, r5
1000ad9a:	464a      	mov	r2, r9
1000ad9c:	318d      	adds	r1, #141	@ 0x8d
1000ad9e:	31ff      	adds	r1, #255	@ 0xff
1000ada0:	680b      	ldr	r3, [r1, #0]
1000ada2:	4313      	orrs	r3, r2
1000ada4:	600b      	str	r3, [r1, #0]
1000ada6:	e7d3      	b.n	1000ad50 <__register_exitproc+0x38>
1000ada8:	001d      	movs	r5, r3
1000adaa:	354d      	adds	r5, #77	@ 0x4d
1000adac:	35ff      	adds	r5, #255	@ 0xff
1000adae:	509d      	str	r5, [r3, r2]
1000adb0:	e7c7      	b.n	1000ad42 <__register_exitproc+0x2a>
1000adb2:	f000 f815 	bl	1000ade0 <__retarget_lock_release_recursive>
1000adb6:	2001      	movs	r0, #1
1000adb8:	4240      	negs	r0, r0
1000adba:	e7d1      	b.n	1000ad60 <__register_exitproc+0x48>
1000adbc:	200014f8 	.word	0x200014f8
1000adc0:	1000b87c 	.word	0x1000b87c

1000adc4 <register_fini>:
1000adc4:	4b03      	ldr	r3, [pc, #12]	@ (1000add4 <register_fini+0x10>)
1000adc6:	b510      	push	{r4, lr}
1000adc8:	2b00      	cmp	r3, #0
1000adca:	d002      	beq.n	1000add2 <register_fini+0xe>
1000adcc:	4802      	ldr	r0, [pc, #8]	@ (1000add8 <register_fini+0x14>)
1000adce:	f7ff fedb 	bl	1000ab88 <atexit>
1000add2:	bd10      	pop	{r4, pc}
1000add4:	00000000 	.word	0x00000000
1000add8:	1000ab99 	.word	0x1000ab99

1000addc <__retarget_lock_acquire_recursive>:
1000addc:	4770      	bx	lr
1000adde:	46c0      	nop			@ (mov r8, r8)

1000ade0 <__retarget_lock_release_recursive>:
1000ade0:	4770      	bx	lr
1000ade2:	46c0      	nop			@ (mov r8, r8)

1000ade4 <_fini>:
1000ade4:	b5f8      	push	{r3, r4, r5, r6, r7, lr}
1000ade6:	46c0      	nop			@ (mov r8, r8)

1000ade8 <__flash_do_cmd_veneer>:
1000ade8:	b401      	push	{r0}
1000adea:	4802      	ldr	r0, [pc, #8]	@ (1000adf4 <__flash_do_cmd_veneer+0xc>)
1000adec:	4684      	mov	ip, r0
1000adee:	bc01      	pop	{r0}
1000adf0:	4760      	bx	ip
1000adf2:	bf00      	nop
1000adf4:	20000411 	.word	0x20000411

1000adf8 <__spi_read_blocking_veneer>:
1000adf8:	b401      	push	{r0}
1000adfa:	4802      	ldr	r0, [pc, #8]	@ (1000ae04 <__spi_read_blocking_veneer+0xc>)
1000adfc:	4684      	mov	ip, r0
1000adfe:	bc01      	pop	{r0}
1000ae00:	4760      	bx	ip
1000ae02:	bf00      	nop
1000ae04:	20000f09 	.word	0x20000f09

1000ae08 <__mutex_exit_veneer>:
1000ae08:	b401      	push	{r0}
1000ae0a:	4802      	ldr	r0, [pc, #8]	@ (1000ae14 <__mutex_exit_veneer+0xc>)
1000ae0c:	4684      	mov	ip, r0
1000ae0e:	bc01      	pop	{r0}
1000ae10:	4760      	bx	ip
1000ae12:	bf00      	nop
1000ae14:	20000275 	.word	0x20000275

1000ae18 <__reset_non_control_endpoints_veneer>:
1000ae18:	b401      	push	{r0}
1000ae1a:	4802      	ldr	r0, [pc, #8]	@ (1000ae24 <__reset_non_control_endpoints_veneer+0xc>)
1000ae1c:	4684      	mov	ip, r0
1000ae1e:	bc01      	pop	{r0}
1000ae20:	4760      	bx	ip
1000ae22:	bf00      	nop
1000ae24:	200004d1 	.word	0x200004d1

1000ae28 <____aeabi_ldiv0_veneer>:
1000ae28:	b401      	push	{r0}
1000ae2a:	4802      	ldr	r0, [pc, #8]	@ (1000ae34 <____aeabi_ldiv0_veneer+0xc>)
1000ae2c:	4684      	mov	ip, r0
1000ae2e:	bc01      	pop	{r0}
1000ae30:	4760      	bx	ip
1000ae32:	bf00      	nop
1000ae34:	20000f71 	.word	0x20000f71

1000ae38 <__e15_is_bulkin_ep_veneer>:
1000ae38:	b401      	push	{r0}
1000ae3a:	4802      	ldr	r0, [pc, #8]	@ (1000ae44 <__e15_is_bulkin_ep_veneer+0xc>)
1000ae3c:	4684      	mov	ip, r0
1000ae3e:	bc01      	pop	{r0}
1000ae40:	4760      	bx	ip
1000ae42:	bf00      	nop
1000ae44:	20000af5 	.word	0x20000af5

1000ae48 <__flash_range_program_veneer>:
1000ae48:	b401      	push	{r0}
1000ae4a:	4802      	ldr	r0, [pc, #8]	@ (1000ae54 <__flash_range_program_veneer+0xc>)
1000ae4c:	4684      	mov	ip, r0
1000ae4e:	bc01      	pop	{r0}
1000ae50:	4760      	bx	ip
1000ae52:	bf00      	nop
1000ae54:	20000391 	.word	0x20000391

1000ae58 <____aeabi_idiv0_veneer>:
1000ae58:	b401      	push	{r0}
1000ae5a:	4802      	ldr	r0, [pc, #8]	@ (1000ae64 <____aeabi_idiv0_veneer+0xc>)
1000ae5c:	4684      	mov	ip, r0
1000ae5e:	bc01      	pop	{r0}
1000ae60:	4760      	bx	ip
1000ae62:	bf00      	nop
1000ae64:	20000f71 	.word	0x20000f71

1000ae68 <__mutex_try_enter_veneer>:
1000ae68:	b401      	push	{r0}
1000ae6a:	4802      	ldr	r0, [pc, #8]	@ (1000ae74 <__mutex_try_enter_veneer+0xc>)
1000ae6c:	4684      	mov	ip, r0
1000ae6e:	bc01      	pop	{r0}
1000ae70:	4760      	bx	ip
1000ae72:	bf00      	nop
1000ae74:	20000109 	.word	0x20000109

1000ae78 <__flash_range_erase_veneer>:
1000ae78:	b401      	push	{r0}
1000ae7a:	4802      	ldr	r0, [pc, #8]	@ (1000ae84 <__flash_range_erase_veneer+0xc>)
1000ae7c:	4684      	mov	ip, r0
1000ae7e:	bc01      	pop	{r0}
1000ae80:	4760      	bx	ip
1000ae82:	bf00      	nop
1000ae84:	20000311 	.word	0x20000311

1000ae88 <__mutex_enter_timeout_ms_veneer>:
1000ae88:	b401      	push	{r0}
1000ae8a:	4802      	ldr	r0, [pc, #8]	@ (1000ae94 <__mutex_enter_timeout_ms_veneer+0xc>)
1000ae8c:	4684      	mov	ip, r0
1000ae8e:	bc01      	pop	{r0}
1000ae90:	4760      	bx	ip
1000ae92:	bf00      	nop
1000ae94:	200001e5 	.word	0x200001e5

1000ae98 <__spi_write_blocking_veneer>:
1000ae98:	b401      	push	{r0}
1000ae9a:	4802      	ldr	r0, [pc, #8]	@ (1000aea4 <__spi_write_blocking_veneer+0xc>)
1000ae9c:	4684      	mov	ip, r0
1000ae9e:	bc01      	pop	{r0}
1000aea0:	4760      	bx	ip
1000aea2:	bf00      	nop
1000aea4:	20000ebd 	.word	0x20000ebd

1000aea8 <__e15_is_critical_frame_period_veneer>:
1000aea8:	b401      	push	{r0}
1000aeaa:	4802      	ldr	r0, [pc, #8]	@ (1000aeb4 <__e15_is_critical_frame_period_veneer+0xc>)
1000aeac:	4684      	mov	ip, r0
1000aeae:	bc01      	pop	{r0}
1000aeb0:	4760      	bx	ip
1000aeb2:	bf00      	nop
1000aeb4:	20000b1d 	.word	0x20000b1d

1000aeb8 <__mutex_try_enter_block_until_veneer>:
1000aeb8:	b401      	push	{r0}
1000aeba:	4802      	ldr	r0, [pc, #8]	@ (1000aec4 <__mutex_try_enter_block_until_veneer+0xc>)
1000aebc:	4684      	mov	ip, r0
1000aebe:	bc01      	pop	{r0}
1000aec0:	4760      	bx	ip
1000aec2:	bf00      	nop
1000aec4:	20000149 	.word	0x20000149

1000aec8 <__hw_endpoint_start_next_buffer_veneer>:
1000aec8:	b401      	push	{r0}
1000aeca:	4802      	ldr	r0, [pc, #8]	@ (1000aed4 <__hw_endpoint_start_next_buffer_veneer+0xc>)
1000aecc:	4684      	mov	ip, r0
1000aece:	bc01      	pop	{r0}
1000aed0:	4760      	bx	ip
1000aed2:	bf00      	nop
1000aed4:	20000c91 	.word	0x20000c91

1000aed8 <___hw_endpoint_buffer_control_update32_veneer>:
1000aed8:	b401      	push	{r0}
1000aeda:	4802      	ldr	r0, [pc, #8]	@ (1000aee4 <___hw_endpoint_buffer_control_update32_veneer+0xc>)
1000aedc:	4684      	mov	ip, r0
1000aede:	bc01      	pop	{r0}
1000aee0:	4760      	bx	ip
1000aee2:	bf00      	nop
1000aee4:	20000c39 	.word	0x20000c39

1000aee8 <__mutex_enter_blocking_veneer>:
1000aee8:	b401      	push	{r0}
1000aeea:	4802      	ldr	r0, [pc, #8]	@ (1000aef4 <__mutex_enter_blocking_veneer+0xc>)
1000aeec:	4684      	mov	ip, r0
1000aeee:	bc01      	pop	{r0}
1000aef0:	4760      	bx	ip
1000aef2:	bf00      	nop
1000aef4:	200000c1 	.word	0x200000c1

Disassembly of section .data:

200000c0 <mutex_enter_blocking>:
200000c0:	23d0      	movs	r3, #208	@ 0xd0
200000c2:	b530      	push	{r4, r5, lr}
200000c4:	2500      	movs	r5, #0
200000c6:	061b      	lsls	r3, r3, #24
200000c8:	2400      	movs	r4, #0
200000ca:	575d      	ldrsb	r5, [r3, r5]
200000cc:	e006      	b.n	200000dc <mutex_enter_blocking+0x1c>
200000ce:	6803      	ldr	r3, [r0, #0]
200000d0:	f3bf 8f5f 	dmb	sy
200000d4:	601c      	str	r4, [r3, #0]
200000d6:	f381 8810 	msr	PRIMASK, r1
200000da:	bf20      	wfe
200000dc:	6802      	ldr	r2, [r0, #0]
200000de:	f3ef 8110 	mrs	r1, PRIMASK
200000e2:	b672      	cpsid	i
200000e4:	6813      	ldr	r3, [r2, #0]
200000e6:	2b00      	cmp	r3, #0
200000e8:	d0fc      	beq.n	200000e4 <mutex_enter_blocking+0x24>
200000ea:	f3bf 8f5f 	dmb	sy
200000ee:	7903      	ldrb	r3, [r0, #4]
200000f0:	2b7f      	cmp	r3, #127	@ 0x7f
200000f2:	d9ec      	bls.n	200000ce <mutex_enter_blocking+0xe>
200000f4:	7105      	strb	r5, [r0, #4]
200000f6:	6803      	ldr	r3, [r0, #0]
200000f8:	f3bf 8f5f 	dmb	sy
200000fc:	2200      	movs	r2, #0
200000fe:	601a      	str	r2, [r3, #0]
20000100:	f381 8810 	msr	PRIMASK, r1
20000104:	bd30      	pop	{r4, r5, pc}
20000106:	46c0      	nop			@ (mov r8, r8)

20000108 <mutex_try_enter>:
20000108:	0003      	movs	r3, r0
2000010a:	6800      	ldr	r0, [r0, #0]
2000010c:	f3ef 8c10 	mrs	ip, PRIMASK
20000110:	b672      	cpsid	i
20000112:	6802      	ldr	r2, [r0, #0]
20000114:	2a00      	cmp	r2, #0
20000116:	d0fc      	beq.n	20000112 <mutex_try_enter+0xa>
20000118:	f3bf 8f5f 	dmb	sy
2000011c:	2204      	movs	r2, #4
2000011e:	569a      	ldrsb	r2, [r3, r2]
20000120:	2a00      	cmp	r2, #0
20000122:	db04      	blt.n	2000012e <mutex_try_enter+0x26>
20000124:	2900      	cmp	r1, #0
20000126:	d000      	beq.n	2000012a <mutex_try_enter+0x22>
20000128:	600a      	str	r2, [r1, #0]
2000012a:	2000      	movs	r0, #0
2000012c:	e004      	b.n	20000138 <mutex_try_enter+0x30>
2000012e:	22d0      	movs	r2, #208	@ 0xd0
20000130:	2001      	movs	r0, #1
20000132:	0612      	lsls	r2, r2, #24
20000134:	6812      	ldr	r2, [r2, #0]
20000136:	711a      	strb	r2, [r3, #4]
20000138:	681b      	ldr	r3, [r3, #0]
2000013a:	f3bf 8f5f 	dmb	sy
2000013e:	2200      	movs	r2, #0
20000140:	601a      	str	r2, [r3, #0]
20000142:	f38c 8810 	msr	PRIMASK, ip
20000146:	4770      	bx	lr

20000148 <mutex_try_enter_block_until>:
20000148:	b5f0      	push	{r4, r5, r6, r7, lr}
2000014a:	46c6      	mov	lr, r8
2000014c:	0015      	movs	r5, r2
2000014e:	b500      	push	{lr}
20000150:	0004      	movs	r4, r0
20000152:	001e      	movs	r6, r3
20000154:	6802      	ldr	r2, [r0, #0]
20000156:	f3ef 8110 	mrs	r1, PRIMASK
2000015a:	b672      	cpsid	i
2000015c:	6813      	ldr	r3, [r2, #0]
2000015e:	2b00      	cmp	r3, #0
20000160:	d0fc      	beq.n	2000015c <mutex_try_enter_block_until+0x14>
20000162:	f3bf 8f5f 	dmb	sy
20000166:	2304      	movs	r3, #4
20000168:	56e3      	ldrsb	r3, [r4, r3]
2000016a:	2b00      	cmp	r3, #0
2000016c:	db2d      	blt.n	200001ca <mutex_try_enter_block_until+0x82>
2000016e:	6822      	ldr	r2, [r4, #0]
20000170:	f3bf 8f5f 	dmb	sy
20000174:	2000      	movs	r0, #0
20000176:	6010      	str	r0, [r2, #0]
20000178:	f381 8810 	msr	PRIMASK, r1
2000017c:	22d0      	movs	r2, #208	@ 0xd0
2000017e:	0612      	lsls	r2, r2, #24
20000180:	7812      	ldrb	r2, [r2, #0]
20000182:	b252      	sxtb	r2, r2
20000184:	4690      	mov	r8, r2
20000186:	429a      	cmp	r2, r3
20000188:	d103      	bne.n	20000192 <mutex_try_enter_block_until+0x4a>
2000018a:	2000      	movs	r0, #0
2000018c:	bc80      	pop	{r7}
2000018e:	46b8      	mov	r8, r7
20000190:	bdf0      	pop	{r4, r5, r6, r7, pc}
20000192:	2700      	movs	r7, #0
20000194:	e00b      	b.n	200001ae <mutex_try_enter_block_until+0x66>
20000196:	6823      	ldr	r3, [r4, #0]
20000198:	f3bf 8f5f 	dmb	sy
2000019c:	601f      	str	r7, [r3, #0]
2000019e:	f381 8810 	msr	PRIMASK, r1
200001a2:	0028      	movs	r0, r5
200001a4:	0031      	movs	r1, r6
200001a6:	f000 fef7 	bl	20000f98 <__best_effort_wfe_or_timeout_veneer>
200001aa:	2800      	cmp	r0, #0
200001ac:	d1ed      	bne.n	2000018a <mutex_try_enter_block_until+0x42>
200001ae:	6822      	ldr	r2, [r4, #0]
200001b0:	f3ef 8110 	mrs	r1, PRIMASK
200001b4:	b672      	cpsid	i
200001b6:	6813      	ldr	r3, [r2, #0]
200001b8:	2b00      	cmp	r3, #0
200001ba:	d0fc      	beq.n	200001b6 <mutex_try_enter_block_until+0x6e>
200001bc:	f3bf 8f5f 	dmb	sy
200001c0:	7923      	ldrb	r3, [r4, #4]
200001c2:	2b7f      	cmp	r3, #127	@ 0x7f
200001c4:	d9e7      	bls.n	20000196 <mutex_try_enter_block_until+0x4e>
200001c6:	4643      	mov	r3, r8
200001c8:	e002      	b.n	200001d0 <mutex_try_enter_block_until+0x88>
200001ca:	23d0      	movs	r3, #208	@ 0xd0
200001cc:	061b      	lsls	r3, r3, #24
200001ce:	681b      	ldr	r3, [r3, #0]
200001d0:	7123      	strb	r3, [r4, #4]
200001d2:	6823      	ldr	r3, [r4, #0]
200001d4:	f3bf 8f5f 	dmb	sy
200001d8:	2200      	movs	r2, #0
200001da:	601a      	str	r2, [r3, #0]
200001dc:	f381 8810 	msr	PRIMASK, r1
200001e0:	2001      	movs	r0, #1
200001e2:	e7d3      	b.n	2000018c <mutex_try_enter_block_until+0x44>

200001e4 <mutex_enter_timeout_ms>:
200001e4:	b5f0      	push	{r4, r5, r6, r7, lr}
200001e6:	46c6      	mov	lr, r8
200001e8:	b500      	push	{lr}
200001ea:	000d      	movs	r5, r1
200001ec:	0004      	movs	r4, r0
200001ee:	f000 fec3 	bl	20000f78 <__time_us_64_veneer>
200001f2:	22fa      	movs	r2, #250	@ 0xfa
200001f4:	0006      	movs	r6, r0
200001f6:	000f      	movs	r7, r1
200001f8:	2300      	movs	r3, #0
200001fa:	0028      	movs	r0, r5
200001fc:	2100      	movs	r1, #0
200001fe:	0092      	lsls	r2, r2, #2
20000200:	f000 fee2 	bl	20000fc8 <____wrap___aeabi_lmul_veneer>
20000204:	2380      	movs	r3, #128	@ 0x80
20000206:	1836      	adds	r6, r6, r0
20000208:	414f      	adcs	r7, r1
2000020a:	061b      	lsls	r3, r3, #24
2000020c:	429f      	cmp	r7, r3
2000020e:	d302      	bcc.n	20000216 <mutex_enter_timeout_ms+0x32>
20000210:	2601      	movs	r6, #1
20000212:	4f17      	ldr	r7, [pc, #92]	@ (20000270 <mutex_enter_timeout_ms+0x8c>)
20000214:	4276      	negs	r6, r6
20000216:	23d0      	movs	r3, #208	@ 0xd0
20000218:	061b      	lsls	r3, r3, #24
2000021a:	681b      	ldr	r3, [r3, #0]
2000021c:	2500      	movs	r5, #0
2000021e:	4698      	mov	r8, r3
20000220:	e00b      	b.n	2000023a <mutex_enter_timeout_ms+0x56>
20000222:	6823      	ldr	r3, [r4, #0]
20000224:	f3bf 8f5f 	dmb	sy
20000228:	601d      	str	r5, [r3, #0]
2000022a:	f381 8810 	msr	PRIMASK, r1
2000022e:	0030      	movs	r0, r6
20000230:	0039      	movs	r1, r7
20000232:	f000 feb1 	bl	20000f98 <__best_effort_wfe_or_timeout_veneer>
20000236:	2800      	cmp	r0, #0
20000238:	d118      	bne.n	2000026c <mutex_enter_timeout_ms+0x88>
2000023a:	6822      	ldr	r2, [r4, #0]
2000023c:	f3ef 8110 	mrs	r1, PRIMASK
20000240:	b672      	cpsid	i
20000242:	6813      	ldr	r3, [r2, #0]
20000244:	2b00      	cmp	r3, #0
20000246:	d0fc      	beq.n	20000242 <mutex_enter_timeout_ms+0x5e>
20000248:	f3bf 8f5f 	dmb	sy
2000024c:	7923      	ldrb	r3, [r4, #4]
2000024e:	2b7f      	cmp	r3, #127	@ 0x7f
20000250:	d9e7      	bls.n	20000222 <mutex_enter_timeout_ms+0x3e>
20000252:	4643      	mov	r3, r8
20000254:	7123      	strb	r3, [r4, #4]
20000256:	6823      	ldr	r3, [r4, #0]
20000258:	f3bf 8f5f 	dmb	sy
2000025c:	2200      	movs	r2, #0
2000025e:	601a      	str	r2, [r3, #0]
20000260:	f381 8810 	msr	PRIMASK, r1
20000264:	2001      	movs	r0, #1
20000266:	bc80      	pop	{r7}
20000268:	46b8      	mov	r8, r7
2000026a:	bdf0      	pop	{r4, r5, r6, r7, pc}
2000026c:	2000      	movs	r0, #0
2000026e:	e7fa      	b.n	20000266 <mutex_enter_timeout_ms+0x82>
20000270:	7fffffff 	.word	0x7fffffff

20000274 <mutex_exit>:
20000274:	6802      	ldr	r2, [r0, #0]
20000276:	f3ef 8110 	mrs	r1, PRIMASK
2000027a:	b672      	cpsid	i
2000027c:	6813      	ldr	r3, [r2, #0]
2000027e:	2b00      	cmp	r3, #0
20000280:	d0fc      	beq.n	2000027c <mutex_exit+0x8>
20000282:	f3bf 8f5f 	dmb	sy
20000286:	23ff      	movs	r3, #255	@ 0xff
20000288:	7103      	strb	r3, [r0, #4]
2000028a:	6803      	ldr	r3, [r0, #0]
2000028c:	f3bf 8f5f 	dmb	sy
20000290:	2200      	movs	r2, #0
20000292:	601a      	str	r2, [r3, #0]
20000294:	f381 8810 	msr	PRIMASK, r1
20000298:	bf40      	sev
2000029a:	4770      	bx	lr

2000029c <flash_init_boot2_copyout>:
2000029c:	b510      	push	{r4, lr}
2000029e:	4c08      	ldr	r4, [pc, #32]	@ (200002c0 <flash_init_boot2_copyout+0x24>)
200002a0:	7823      	ldrb	r3, [r4, #0]
200002a2:	2b00      	cmp	r3, #0
200002a4:	d10a      	bne.n	200002bc <flash_init_boot2_copyout+0x20>
200002a6:	2380      	movs	r3, #128	@ 0x80
200002a8:	4806      	ldr	r0, [pc, #24]	@ (200002c4 <flash_init_boot2_copyout+0x28>)
200002aa:	4907      	ldr	r1, [pc, #28]	@ (200002c8 <flash_init_boot2_copyout+0x2c>)
200002ac:	055b      	lsls	r3, r3, #21
200002ae:	681a      	ldr	r2, [r3, #0]
200002b0:	50c2      	str	r2, [r0, r3]
200002b2:	3304      	adds	r3, #4
200002b4:	428b      	cmp	r3, r1
200002b6:	d1fa      	bne.n	200002ae <flash_init_boot2_copyout+0x12>
200002b8:	2301      	movs	r3, #1
200002ba:	7023      	strb	r3, [r4, #0]
200002bc:	bd10      	pop	{r4, pc}
200002be:	46c0      	nop			@ (mov r8, r8)
200002c0:	2003f3f0 	.word	0x2003f3f0
200002c4:	10001cf0 	.word	0x10001cf0
200002c8:	10000100 	.word	0x10000100

200002cc <flash_enable_xip_via_boot2>:
200002cc:	b510      	push	{r4, lr}
200002ce:	4b01      	ldr	r3, [pc, #4]	@ (200002d4 <flash_enable_xip_via_boot2+0x8>)
200002d0:	4798      	blx	r3
200002d2:	bd10      	pop	{r4, pc}
200002d4:	20001cf1 	.word	0x20001cf1

200002d8 <flash_cs_force.constprop.0>:
200002d8:	4b03      	ldr	r3, [pc, #12]	@ (200002e8 <flash_cs_force.constprop.0+0x10>)
200002da:	681a      	ldr	r2, [r3, #0]
200002dc:	23c0      	movs	r3, #192	@ 0xc0
200002de:	009b      	lsls	r3, r3, #2
200002e0:	4393      	bics	r3, r2
200002e2:	4a02      	ldr	r2, [pc, #8]	@ (200002ec <flash_cs_force.constprop.0+0x14>)
200002e4:	6013      	str	r3, [r2, #0]
200002e6:	4770      	bx	lr
200002e8:	4001800c 	.word	0x4001800c
200002ec:	4001900c 	.word	0x4001900c

200002f0 <flash_cs_force.constprop.1>:
200002f0:	4b05      	ldr	r3, [pc, #20]	@ (20000308 <flash_cs_force.constprop.1+0x18>)
200002f2:	681a      	ldr	r2, [r3, #0]
200002f4:	2380      	movs	r3, #128	@ 0x80
200002f6:	009b      	lsls	r3, r3, #2
200002f8:	4053      	eors	r3, r2
200002fa:	22c0      	movs	r2, #192	@ 0xc0
200002fc:	0092      	lsls	r2, r2, #2
200002fe:	4013      	ands	r3, r2
20000300:	4a02      	ldr	r2, [pc, #8]	@ (2000030c <flash_cs_force.constprop.1+0x1c>)
20000302:	6013      	str	r3, [r2, #0]
20000304:	4770      	bx	lr
20000306:	46c0      	nop			@ (mov r8, r8)
20000308:	4001800c 	.word	0x4001800c
2000030c:	4001900c 	.word	0x4001900c

20000310 <flash_range_erase>:
20000310:	b5f0      	push	{r4, r5, r6, r7, lr}
20000312:	2380      	movs	r3, #128	@ 0x80
20000314:	46d6      	mov	lr, sl
20000316:	464f      	mov	r7, r9
20000318:	4646      	mov	r6, r8
2000031a:	1842      	adds	r2, r0, r1
2000031c:	0004      	movs	r4, r0
2000031e:	000d      	movs	r5, r1
20000320:	b5c0      	push	{r6, r7, lr}
20000322:	039b      	lsls	r3, r3, #14
20000324:	429a      	cmp	r2, r3
20000326:	d827      	bhi.n	20000378 <flash_range_erase+0x68>
20000328:	2714      	movs	r7, #20
2000032a:	2618      	movs	r6, #24
2000032c:	8838      	ldrh	r0, [r7, #0]
2000032e:	8833      	ldrh	r3, [r6, #0]
20000330:	4913      	ldr	r1, [pc, #76]	@ (20000380 <flash_range_erase+0x70>)
20000332:	4798      	blx	r3
20000334:	8833      	ldrh	r3, [r6, #0]
20000336:	4682      	mov	sl, r0
20000338:	4912      	ldr	r1, [pc, #72]	@ (20000384 <flash_range_erase+0x74>)
2000033a:	8838      	ldrh	r0, [r7, #0]
2000033c:	4798      	blx	r3
2000033e:	8833      	ldrh	r3, [r6, #0]
20000340:	4681      	mov	r9, r0
20000342:	4911      	ldr	r1, [pc, #68]	@ (20000388 <flash_range_erase+0x78>)
20000344:	8838      	ldrh	r0, [r7, #0]
20000346:	4798      	blx	r3
20000348:	8833      	ldrh	r3, [r6, #0]
2000034a:	4910      	ldr	r1, [pc, #64]	@ (2000038c <flash_range_erase+0x7c>)
2000034c:	4680      	mov	r8, r0
2000034e:	8838      	ldrh	r0, [r7, #0]
20000350:	4798      	blx	r3
20000352:	0006      	movs	r6, r0
20000354:	f7ff ffa2 	bl	2000029c <flash_init_boot2_copyout>
20000358:	47d0      	blx	sl
2000035a:	47c8      	blx	r9
2000035c:	2280      	movs	r2, #128	@ 0x80
2000035e:	0029      	movs	r1, r5
20000360:	23d8      	movs	r3, #216	@ 0xd8
20000362:	0020      	movs	r0, r4
20000364:	0252      	lsls	r2, r2, #9
20000366:	47c0      	blx	r8
20000368:	47b0      	blx	r6
2000036a:	f7ff ffaf 	bl	200002cc <flash_enable_xip_via_boot2>
2000036e:	bce0      	pop	{r5, r6, r7}
20000370:	46ba      	mov	sl, r7
20000372:	46b1      	mov	r9, r6
20000374:	46a8      	mov	r8, r5
20000376:	bdf0      	pop	{r4, r5, r6, r7, pc}
20000378:	f000 fe06 	bl	20000f88 <__hard_assertion_failure_veneer>
2000037c:	e7d4      	b.n	20000328 <flash_range_erase+0x18>
2000037e:	46c0      	nop			@ (mov r8, r8)
20000380:	00004649 	.word	0x00004649
20000384:	00005845 	.word	0x00005845
20000388:	00004552 	.word	0x00004552
2000038c:	00004346 	.word	0x00004346

20000390 <flash_range_program>:
20000390:	b5f8      	push	{r3, r4, r5, r6, r7, lr}
20000392:	464e      	mov	r6, r9
20000394:	4645      	mov	r5, r8
20000396:	46de      	mov	lr, fp
20000398:	4657      	mov	r7, sl
2000039a:	2380      	movs	r3, #128	@ 0x80
2000039c:	b5e0      	push	{r5, r6, r7, lr}
2000039e:	0015      	movs	r5, r2
200003a0:	1882      	adds	r2, r0, r2
200003a2:	0004      	movs	r4, r0
200003a4:	4689      	mov	r9, r1
200003a6:	039b      	lsls	r3, r3, #14
200003a8:	429a      	cmp	r2, r3
200003aa:	d826      	bhi.n	200003fa <flash_range_program+0x6a>
200003ac:	2714      	movs	r7, #20
200003ae:	2618      	movs	r6, #24
200003b0:	8838      	ldrh	r0, [r7, #0]
200003b2:	8833      	ldrh	r3, [r6, #0]
200003b4:	4912      	ldr	r1, [pc, #72]	@ (20000400 <flash_range_program+0x70>)
200003b6:	4798      	blx	r3
200003b8:	8833      	ldrh	r3, [r6, #0]
200003ba:	4683      	mov	fp, r0
200003bc:	4911      	ldr	r1, [pc, #68]	@ (20000404 <flash_range_program+0x74>)
200003be:	8838      	ldrh	r0, [r7, #0]
200003c0:	4798      	blx	r3
200003c2:	8833      	ldrh	r3, [r6, #0]
200003c4:	4682      	mov	sl, r0
200003c6:	4910      	ldr	r1, [pc, #64]	@ (20000408 <flash_range_program+0x78>)
200003c8:	8838      	ldrh	r0, [r7, #0]
200003ca:	4798      	blx	r3
200003cc:	8833      	ldrh	r3, [r6, #0]
200003ce:	490f      	ldr	r1, [pc, #60]	@ (2000040c <flash_range_program+0x7c>)
200003d0:	4680      	mov	r8, r0
200003d2:	8838      	ldrh	r0, [r7, #0]
200003d4:	4798      	blx	r3
200003d6:	0006      	movs	r6, r0
200003d8:	f7ff ff60 	bl	2000029c <flash_init_boot2_copyout>
200003dc:	47d8      	blx	fp
200003de:	47d0      	blx	sl
200003e0:	002a      	movs	r2, r5
200003e2:	4649      	mov	r1, r9
200003e4:	0020      	movs	r0, r4
200003e6:	47c0      	blx	r8
200003e8:	47b0      	blx	r6
200003ea:	f7ff ff6f 	bl	200002cc <flash_enable_xip_via_boot2>
200003ee:	bcf0      	pop	{r4, r5, r6, r7}
200003f0:	46bb      	mov	fp, r7
200003f2:	46b2      	mov	sl, r6
200003f4:	46a9      	mov	r9, r5
200003f6:	46a0      	mov	r8, r4
200003f8:	bdf8      	pop	{r3, r4, r5, r6, r7, pc}
200003fa:	f000 fdc5 	bl	20000f88 <__hard_assertion_failure_veneer>
200003fe:	e7d5      	b.n	200003ac <flash_range_program+0x1c>
20000400:	00004649 	.word	0x00004649
20000404:	00005845 	.word	0x00005845
20000408:	00005052 	.word	0x00005052
2000040c:	00004346 	.word	0x00004346

20000410 <flash_do_cmd>:
20000410:	2314      	movs	r3, #20
20000412:	b5f0      	push	{r4, r5, r6, r7, lr}
20000414:	46d6      	mov	lr, sl
20000416:	464f      	mov	r7, r9
20000418:	4646      	mov	r6, r8
2000041a:	469a      	mov	sl, r3
2000041c:	4681      	mov	r9, r0
2000041e:	8818      	ldrh	r0, [r3, #0]
20000420:	3304      	adds	r3, #4
20000422:	b5c0      	push	{r6, r7, lr}
20000424:	4698      	mov	r8, r3
20000426:	000e      	movs	r6, r1
20000428:	881b      	ldrh	r3, [r3, #0]
2000042a:	4926      	ldr	r1, [pc, #152]	@ (200004c4 <flash_do_cmd+0xb4>)
2000042c:	0014      	movs	r4, r2
2000042e:	4798      	blx	r3
20000430:	4653      	mov	r3, sl
20000432:	0007      	movs	r7, r0
20000434:	8818      	ldrh	r0, [r3, #0]
20000436:	4643      	mov	r3, r8
20000438:	4923      	ldr	r1, [pc, #140]	@ (200004c8 <flash_do_cmd+0xb8>)
2000043a:	881b      	ldrh	r3, [r3, #0]
2000043c:	4798      	blx	r3
2000043e:	4653      	mov	r3, sl
20000440:	0005      	movs	r5, r0
20000442:	8818      	ldrh	r0, [r3, #0]
20000444:	4643      	mov	r3, r8
20000446:	4921      	ldr	r1, [pc, #132]	@ (200004cc <flash_do_cmd+0xbc>)
20000448:	881b      	ldrh	r3, [r3, #0]
2000044a:	4798      	blx	r3
2000044c:	4680      	mov	r8, r0
2000044e:	f7ff ff25 	bl	2000029c <flash_init_boot2_copyout>
20000452:	47b8      	blx	r7
20000454:	47a8      	blx	r5
20000456:	f7ff ff4b 	bl	200002f0 <flash_cs_force.constprop.1>
2000045a:	1e22      	subs	r2, r4, #0
2000045c:	d020      	beq.n	200004a0 <flash_do_cmd+0x90>
2000045e:	21c0      	movs	r1, #192	@ 0xc0
20000460:	2708      	movs	r7, #8
20000462:	2002      	movs	r0, #2
20000464:	0549      	lsls	r1, r1, #21
20000466:	e011      	b.n	2000048c <flash_do_cmd+0x7c>
20000468:	2c00      	cmp	r4, #0
2000046a:	d014      	beq.n	20000496 <flash_do_cmd+0x86>
2000046c:	1b13      	subs	r3, r2, r4
2000046e:	2b0d      	cmp	r3, #13
20000470:	d920      	bls.n	200004b4 <flash_do_cmd+0xa4>
20000472:	2d00      	cmp	r5, #0
20000474:	d00a      	beq.n	2000048c <flash_do_cmd+0x7c>
20000476:	0023      	movs	r3, r4
20000478:	2a00      	cmp	r2, #0
2000047a:	d005      	beq.n	20000488 <flash_do_cmd+0x78>
2000047c:	6e0b      	ldr	r3, [r1, #96]	@ 0x60
2000047e:	3a01      	subs	r2, #1
20000480:	7033      	strb	r3, [r6, #0]
20000482:	0013      	movs	r3, r2
20000484:	3601      	adds	r6, #1
20000486:	4323      	orrs	r3, r4
20000488:	2b00      	cmp	r3, #0
2000048a:	d009      	beq.n	200004a0 <flash_do_cmd+0x90>
2000048c:	003d      	movs	r5, r7
2000048e:	6a8b      	ldr	r3, [r1, #40]	@ 0x28
20000490:	401d      	ands	r5, r3
20000492:	4218      	tst	r0, r3
20000494:	d1e8      	bne.n	20000468 <flash_do_cmd+0x58>
20000496:	2d00      	cmp	r5, #0
20000498:	d1ed      	bne.n	20000476 <flash_do_cmd+0x66>
2000049a:	0023      	movs	r3, r4
2000049c:	4313      	orrs	r3, r2
2000049e:	d1f5      	bne.n	2000048c <flash_do_cmd+0x7c>
200004a0:	f7ff ff1a 	bl	200002d8 <flash_cs_force.constprop.0>
200004a4:	47c0      	blx	r8
200004a6:	f7ff ff11 	bl	200002cc <flash_enable_xip_via_boot2>
200004aa:	bce0      	pop	{r5, r6, r7}
200004ac:	46ba      	mov	sl, r7
200004ae:	46b1      	mov	r9, r6
200004b0:	46a8      	mov	r8, r5
200004b2:	bdf0      	pop	{r4, r5, r6, r7, pc}
200004b4:	464b      	mov	r3, r9
200004b6:	781b      	ldrb	r3, [r3, #0]
200004b8:	3c01      	subs	r4, #1
200004ba:	660b      	str	r3, [r1, #96]	@ 0x60
200004bc:	2301      	movs	r3, #1
200004be:	469c      	mov	ip, r3
200004c0:	44e1      	add	r9, ip
200004c2:	e7e8      	b.n	20000496 <flash_do_cmd+0x86>
200004c4:	00004649 	.word	0x00004649
200004c8:	00005845 	.word	0x00005845
200004cc:	00004346 	.word	0x00004346

200004d0 <reset_non_control_endpoints>:
200004d0:	2200      	movs	r2, #0
200004d2:	4b15      	ldr	r3, [pc, #84]	@ (20000528 <reset_non_control_endpoints+0x58>)
200004d4:	b510      	push	{r4, lr}
200004d6:	609a      	str	r2, [r3, #8]
200004d8:	60da      	str	r2, [r3, #12]
200004da:	611a      	str	r2, [r3, #16]
200004dc:	615a      	str	r2, [r3, #20]
200004de:	619a      	str	r2, [r3, #24]
200004e0:	61da      	str	r2, [r3, #28]
200004e2:	621a      	str	r2, [r3, #32]
200004e4:	625a      	str	r2, [r3, #36]	@ 0x24
200004e6:	629a      	str	r2, [r3, #40]	@ 0x28
200004e8:	62da      	str	r2, [r3, #44]	@ 0x2c
200004ea:	631a      	str	r2, [r3, #48]	@ 0x30
200004ec:	635a      	str	r2, [r3, #52]	@ 0x34
200004ee:	639a      	str	r2, [r3, #56]	@ 0x38
200004f0:	63da      	str	r2, [r3, #60]	@ 0x3c
200004f2:	641a      	str	r2, [r3, #64]	@ 0x40
200004f4:	645a      	str	r2, [r3, #68]	@ 0x44
200004f6:	649a      	str	r2, [r3, #72]	@ 0x48
200004f8:	64da      	str	r2, [r3, #76]	@ 0x4c
200004fa:	651a      	str	r2, [r3, #80]	@ 0x50
200004fc:	655a      	str	r2, [r3, #84]	@ 0x54
200004fe:	659a      	str	r2, [r3, #88]	@ 0x58
20000500:	65da      	str	r2, [r3, #92]	@ 0x5c
20000502:	661a      	str	r2, [r3, #96]	@ 0x60
20000504:	665a      	str	r2, [r3, #100]	@ 0x64
20000506:	669a      	str	r2, [r3, #104]	@ 0x68
20000508:	66da      	str	r2, [r3, #108]	@ 0x6c
2000050a:	671a      	str	r2, [r3, #112]	@ 0x70
2000050c:	675a      	str	r2, [r3, #116]	@ 0x74
2000050e:	679a      	str	r2, [r3, #120]	@ 0x78
20000510:	67da      	str	r2, [r3, #124]	@ 0x7c
20000512:	32f0      	adds	r2, #240	@ 0xf0
20000514:	0092      	lsls	r2, r2, #2
20000516:	2100      	movs	r1, #0
20000518:	4804      	ldr	r0, [pc, #16]	@ (2000052c <reset_non_control_endpoints+0x5c>)
2000051a:	f000 fd5d 	bl	20000fd8 <____wrap_memset_veneer>
2000051e:	4b04      	ldr	r3, [pc, #16]	@ (20000530 <reset_non_control_endpoints+0x60>)
20000520:	4a04      	ldr	r2, [pc, #16]	@ (20000534 <reset_non_control_endpoints+0x64>)
20000522:	601a      	str	r2, [r3, #0]
20000524:	bd10      	pop	{r4, pc}
20000526:	46c0      	nop			@ (mov r8, r8)
20000528:	50100000 	.word	0x50100000
2000052c:	20001eb0 	.word	0x20001eb0
20000530:	2003f278 	.word	0x2003f278
20000534:	50100180 	.word	0x50100180

20000538 <hw_handle_buff_status>:
20000538:	b5f0      	push	{r4, r5, r6, r7, lr}
2000053a:	4657      	mov	r7, sl
2000053c:	46de      	mov	lr, fp
2000053e:	464e      	mov	r6, r9
20000540:	4645      	mov	r5, r8
20000542:	b5e0      	push	{r5, r6, r7, lr}
20000544:	4b24      	ldr	r3, [pc, #144]	@ (200005d8 <hw_handle_buff_status+0xa0>)
20000546:	b087      	sub	sp, #28
20000548:	6d9f      	ldr	r7, [r3, #88]	@ 0x58
2000054a:	2f00      	cmp	r7, #0
2000054c:	d023      	beq.n	20000596 <hw_handle_buff_status+0x5e>
2000054e:	4b23      	ldr	r3, [pc, #140]	@ (200005dc <hw_handle_buff_status+0xa4>)
20000550:	2400      	movs	r4, #0
20000552:	4699      	mov	r9, r3
20000554:	2301      	movs	r3, #1
20000556:	4698      	mov	r8, r3
20000558:	4b21      	ldr	r3, [pc, #132]	@ (200005e0 <hw_handle_buff_status+0xa8>)
2000055a:	2601      	movs	r6, #1
2000055c:	469a      	mov	sl, r3
2000055e:	e004      	b.n	2000056a <hw_handle_buff_status+0x32>
20000560:	3401      	adds	r4, #1
20000562:	0076      	lsls	r6, r6, #1
20000564:	b2e4      	uxtb	r4, r4
20000566:	2c20      	cmp	r4, #32
20000568:	d015      	beq.n	20000596 <hw_handle_buff_status+0x5e>
2000056a:	423e      	tst	r6, r7
2000056c:	d0f8      	beq.n	20000560 <hw_handle_buff_status+0x28>
2000056e:	464b      	mov	r3, r9
20000570:	659e      	str	r6, [r3, #88]	@ 0x58
20000572:	4643      	mov	r3, r8
20000574:	0865      	lsrs	r5, r4, #1
20000576:	006d      	lsls	r5, r5, #1
20000578:	43a3      	bics	r3, r4
2000057a:	18ed      	adds	r5, r5, r3
2000057c:	016d      	lsls	r5, r5, #5
2000057e:	4455      	add	r5, sl
20000580:	0028      	movs	r0, r5
20000582:	f000 fbbb 	bl	20000cfc <hw_endpoint_xfer_continue>
20000586:	2800      	cmp	r0, #0
20000588:	d10c      	bne.n	200005a4 <hw_handle_buff_status+0x6c>
2000058a:	3401      	adds	r4, #1
2000058c:	43b7      	bics	r7, r6
2000058e:	b2e4      	uxtb	r4, r4
20000590:	0076      	lsls	r6, r6, #1
20000592:	2f00      	cmp	r7, #0
20000594:	d1e7      	bne.n	20000566 <hw_handle_buff_status+0x2e>
20000596:	b007      	add	sp, #28
20000598:	bcf0      	pop	{r4, r5, r6, r7}
2000059a:	46bb      	mov	fp, r7
2000059c:	46b2      	mov	sl, r6
2000059e:	46a9      	mov	r9, r5
200005a0:	46a0      	mov	r8, r4
200005a2:	bdf0      	pop	{r4, r5, r6, r7, pc}
200005a4:	78ab      	ldrb	r3, [r5, #2]
200005a6:	a802      	add	r0, sp, #8
200005a8:	469b      	mov	fp, r3
200005aa:	8aeb      	ldrh	r3, [r5, #22]
200005ac:	2206      	movs	r2, #6
200005ae:	2100      	movs	r1, #0
200005b0:	3006      	adds	r0, #6
200005b2:	9301      	str	r3, [sp, #4]
200005b4:	f000 fd10 	bl	20000fd8 <____wrap_memset_veneer>
200005b8:	23e0      	movs	r3, #224	@ 0xe0
200005ba:	4659      	mov	r1, fp
200005bc:	aa02      	add	r2, sp, #8
200005be:	00db      	lsls	r3, r3, #3
200005c0:	8093      	strh	r3, [r2, #4]
200005c2:	9b01      	ldr	r3, [sp, #4]
200005c4:	7211      	strb	r1, [r2, #8]
200005c6:	a803      	add	r0, sp, #12
200005c8:	2101      	movs	r1, #1
200005ca:	9305      	str	r3, [sp, #20]
200005cc:	f000 fbbe 	bl	20000d4c <dcd_event_handler>
200005d0:	0028      	movs	r0, r5
200005d2:	f000 fb2b 	bl	20000c2c <hw_endpoint_reset_transfer>
200005d6:	e7d8      	b.n	2000058a <hw_handle_buff_status+0x52>
200005d8:	50110000 	.word	0x50110000
200005dc:	50113000 	.word	0x50113000
200005e0:	20001e70 	.word	0x20001e70

200005e4 <dcd_rp2040_irq>:
200005e4:	2398      	movs	r3, #152	@ 0x98
200005e6:	4ac8      	ldr	r2, [pc, #800]	@ (20000908 <dcd_rp2040_irq+0x324>)
200005e8:	b5f0      	push	{r4, r5, r6, r7, lr}
200005ea:	58d5      	ldr	r5, [r2, r3]
200005ec:	2380      	movs	r3, #128	@ 0x80
200005ee:	002c      	movs	r4, r5
200005f0:	029b      	lsls	r3, r3, #10
200005f2:	2610      	movs	r6, #16
200005f4:	b085      	sub	sp, #20
200005f6:	401c      	ands	r4, r3
200005f8:	421d      	tst	r5, r3
200005fa:	d07a      	beq.n	200006f2 <dcd_rp2040_irq+0x10e>
200005fc:	4bc3      	ldr	r3, [pc, #780]	@ (2000090c <dcd_rp2040_irq+0x328>)
200005fe:	4cc4      	ldr	r4, [pc, #784]	@ (20000910 <dcd_rp2040_irq+0x32c>)
20000600:	6a9a      	ldr	r2, [r3, #40]	@ 0x28
20000602:	4bc4      	ldr	r3, [pc, #784]	@ (20000914 <dcd_rp2040_irq+0x330>)
20000604:	2600      	movs	r6, #0
20000606:	601a      	str	r2, [r3, #0]
20000608:	233b      	movs	r3, #59	@ 0x3b
2000060a:	5ce3      	ldrb	r3, [r4, r3]
2000060c:	2b02      	cmp	r3, #2
2000060e:	d100      	bne.n	20000612 <dcd_rp2040_irq+0x2e>
20000610:	e0df      	b.n	200007d2 <dcd_rp2040_irq+0x1ee>
20000612:	237b      	movs	r3, #123	@ 0x7b
20000614:	5ce3      	ldrb	r3, [r4, r3]
20000616:	2b02      	cmp	r3, #2
20000618:	d100      	bne.n	2000061c <dcd_rp2040_irq+0x38>
2000061a:	e1b9      	b.n	20000990 <dcd_rp2040_irq+0x3ac>
2000061c:	23bb      	movs	r3, #187	@ 0xbb
2000061e:	5ce3      	ldrb	r3, [r4, r3]
20000620:	2b02      	cmp	r3, #2
20000622:	d100      	bne.n	20000626 <dcd_rp2040_irq+0x42>
20000624:	e1a9      	b.n	2000097a <dcd_rp2040_irq+0x396>
20000626:	23fb      	movs	r3, #251	@ 0xfb
20000628:	5ce3      	ldrb	r3, [r4, r3]
2000062a:	2b02      	cmp	r3, #2
2000062c:	d100      	bne.n	20000630 <dcd_rp2040_irq+0x4c>
2000062e:	e199      	b.n	20000964 <dcd_rp2040_irq+0x380>
20000630:	233c      	movs	r3, #60	@ 0x3c
20000632:	33ff      	adds	r3, #255	@ 0xff
20000634:	5ce3      	ldrb	r3, [r4, r3]
20000636:	2b02      	cmp	r3, #2
20000638:	d100      	bne.n	2000063c <dcd_rp2040_irq+0x58>
2000063a:	e158      	b.n	200008ee <dcd_rp2040_irq+0x30a>
2000063c:	237c      	movs	r3, #124	@ 0x7c
2000063e:	33ff      	adds	r3, #255	@ 0xff
20000640:	5ce3      	ldrb	r3, [r4, r3]
20000642:	2b02      	cmp	r3, #2
20000644:	d100      	bne.n	20000648 <dcd_rp2040_irq+0x64>
20000646:	e145      	b.n	200008d4 <dcd_rp2040_irq+0x2f0>
20000648:	23bc      	movs	r3, #188	@ 0xbc
2000064a:	33ff      	adds	r3, #255	@ 0xff
2000064c:	5ce3      	ldrb	r3, [r4, r3]
2000064e:	2b02      	cmp	r3, #2
20000650:	d100      	bne.n	20000654 <dcd_rp2040_irq+0x70>
20000652:	e132      	b.n	200008ba <dcd_rp2040_irq+0x2d6>
20000654:	23fc      	movs	r3, #252	@ 0xfc
20000656:	33ff      	adds	r3, #255	@ 0xff
20000658:	5ce3      	ldrb	r3, [r4, r3]
2000065a:	2b02      	cmp	r3, #2
2000065c:	d100      	bne.n	20000660 <dcd_rp2040_irq+0x7c>
2000065e:	e11f      	b.n	200008a0 <dcd_rp2040_irq+0x2bc>
20000660:	4bad      	ldr	r3, [pc, #692]	@ (20000918 <dcd_rp2040_irq+0x334>)
20000662:	5ce3      	ldrb	r3, [r4, r3]
20000664:	2b02      	cmp	r3, #2
20000666:	d100      	bne.n	2000066a <dcd_rp2040_irq+0x86>
20000668:	e10e      	b.n	20000888 <dcd_rp2040_irq+0x2a4>
2000066a:	4bac      	ldr	r3, [pc, #688]	@ (2000091c <dcd_rp2040_irq+0x338>)
2000066c:	5ce3      	ldrb	r3, [r4, r3]
2000066e:	2b02      	cmp	r3, #2
20000670:	d100      	bne.n	20000674 <dcd_rp2040_irq+0x90>
20000672:	e0fd      	b.n	20000870 <dcd_rp2040_irq+0x28c>
20000674:	4baa      	ldr	r3, [pc, #680]	@ (20000920 <dcd_rp2040_irq+0x33c>)
20000676:	5ce3      	ldrb	r3, [r4, r3]
20000678:	2b02      	cmp	r3, #2
2000067a:	d100      	bne.n	2000067e <dcd_rp2040_irq+0x9a>
2000067c:	e0ec      	b.n	20000858 <dcd_rp2040_irq+0x274>
2000067e:	4ba9      	ldr	r3, [pc, #676]	@ (20000924 <dcd_rp2040_irq+0x340>)
20000680:	5ce3      	ldrb	r3, [r4, r3]
20000682:	2b02      	cmp	r3, #2
20000684:	d100      	bne.n	20000688 <dcd_rp2040_irq+0xa4>
20000686:	e0db      	b.n	20000840 <dcd_rp2040_irq+0x25c>
20000688:	4ba7      	ldr	r3, [pc, #668]	@ (20000928 <dcd_rp2040_irq+0x344>)
2000068a:	5ce3      	ldrb	r3, [r4, r3]
2000068c:	2b02      	cmp	r3, #2
2000068e:	d100      	bne.n	20000692 <dcd_rp2040_irq+0xae>
20000690:	e0ca      	b.n	20000828 <dcd_rp2040_irq+0x244>
20000692:	4ba6      	ldr	r3, [pc, #664]	@ (2000092c <dcd_rp2040_irq+0x348>)
20000694:	5ce3      	ldrb	r3, [r4, r3]
20000696:	2b02      	cmp	r3, #2
20000698:	d100      	bne.n	2000069c <dcd_rp2040_irq+0xb8>
2000069a:	e0ab      	b.n	200007f4 <dcd_rp2040_irq+0x210>
2000069c:	4ba4      	ldr	r3, [pc, #656]	@ (20000930 <dcd_rp2040_irq+0x34c>)
2000069e:	5ce3      	ldrb	r3, [r4, r3]
200006a0:	2b02      	cmp	r3, #2
200006a2:	d100      	bne.n	200006a6 <dcd_rp2040_irq+0xc2>
200006a4:	e17f      	b.n	200009a6 <dcd_rp2040_irq+0x3c2>
200006a6:	4ba3      	ldr	r3, [pc, #652]	@ (20000934 <dcd_rp2040_irq+0x350>)
200006a8:	5ce3      	ldrb	r3, [r4, r3]
200006aa:	2b02      	cmp	r3, #2
200006ac:	d100      	bne.n	200006b0 <dcd_rp2040_irq+0xcc>
200006ae:	e196      	b.n	200009de <dcd_rp2040_irq+0x3fa>
200006b0:	2e00      	cmp	r6, #0
200006b2:	d108      	bne.n	200006c6 <dcd_rp2040_irq+0xe2>
200006b4:	4ba0      	ldr	r3, [pc, #640]	@ (20000938 <dcd_rp2040_irq+0x354>)
200006b6:	781b      	ldrb	r3, [r3, #0]
200006b8:	2b00      	cmp	r3, #0
200006ba:	d104      	bne.n	200006c6 <dcd_rp2040_irq+0xe2>
200006bc:	2180      	movs	r1, #128	@ 0x80
200006be:	4a9f      	ldr	r2, [pc, #636]	@ (2000093c <dcd_rp2040_irq+0x358>)
200006c0:	3390      	adds	r3, #144	@ 0x90
200006c2:	0289      	lsls	r1, r1, #10
200006c4:	50d1      	str	r1, [r2, r3]
200006c6:	4b90      	ldr	r3, [pc, #576]	@ (20000908 <dcd_rp2040_irq+0x324>)
200006c8:	220a      	movs	r2, #10
200006ca:	6c9c      	ldr	r4, [r3, #72]	@ 0x48
200006cc:	466b      	mov	r3, sp
200006ce:	2100      	movs	r1, #0
200006d0:	1d98      	adds	r0, r3, #6
200006d2:	f000 fc81 	bl	20000fd8 <____wrap_memset_veneer>
200006d6:	23c0      	movs	r3, #192	@ 0xc0
200006d8:	0564      	lsls	r4, r4, #21
200006da:	ae01      	add	r6, sp, #4
200006dc:	009b      	lsls	r3, r3, #2
200006de:	0d64      	lsrs	r4, r4, #21
200006e0:	8033      	strh	r3, [r6, #0]
200006e2:	0030      	movs	r0, r6
200006e4:	9402      	str	r4, [sp, #8]
200006e6:	2101      	movs	r1, #1
200006e8:	2480      	movs	r4, #128	@ 0x80
200006ea:	f000 fb2f 	bl	20000d4c <dcd_event_handler>
200006ee:	4e94      	ldr	r6, [pc, #592]	@ (20000940 <dcd_rp2040_irq+0x35c>)
200006f0:	02a4      	lsls	r4, r4, #10
200006f2:	06eb      	lsls	r3, r5, #27
200006f4:	d469      	bmi.n	200007ca <dcd_rp2040_irq+0x1e6>
200006f6:	2380      	movs	r3, #128	@ 0x80
200006f8:	025b      	lsls	r3, r3, #9
200006fa:	421d      	tst	r5, r3
200006fc:	d014      	beq.n	20000728 <dcd_rp2040_irq+0x144>
200006fe:	2201      	movs	r2, #1
20000700:	2123      	movs	r1, #35	@ 0x23
20000702:	431c      	orrs	r4, r3
20000704:	4b82      	ldr	r3, [pc, #520]	@ (20000910 <dcd_rp2040_irq+0x32c>)
20000706:	545a      	strb	r2, [r3, r1]
20000708:	70da      	strb	r2, [r3, #3]
2000070a:	23c0      	movs	r3, #192	@ 0xc0
2000070c:	4a8d      	ldr	r2, [pc, #564]	@ (20000944 <dcd_rp2040_irq+0x360>)
2000070e:	00db      	lsls	r3, r3, #3
20000710:	9301      	str	r3, [sp, #4]
20000712:	ab02      	add	r3, sp, #8
20000714:	ca03      	ldmia	r2!, {r0, r1}
20000716:	c303      	stmia	r3!, {r0, r1}
20000718:	2101      	movs	r1, #1
2000071a:	a801      	add	r0, sp, #4
2000071c:	f000 fb16 	bl	20000d4c <dcd_event_handler>
20000720:	2280      	movs	r2, #128	@ 0x80
20000722:	4b86      	ldr	r3, [pc, #536]	@ (2000093c <dcd_rp2040_irq+0x358>)
20000724:	0292      	lsls	r2, r2, #10
20000726:	651a      	str	r2, [r3, #80]	@ 0x50
20000728:	2380      	movs	r3, #128	@ 0x80
2000072a:	015b      	lsls	r3, r3, #5
2000072c:	421d      	tst	r5, r3
2000072e:	d133      	bne.n	20000798 <dcd_rp2040_irq+0x1b4>
20000730:	2380      	movs	r3, #128	@ 0x80
20000732:	01db      	lsls	r3, r3, #7
20000734:	421d      	tst	r5, r3
20000736:	d11c      	bne.n	20000772 <dcd_rp2040_irq+0x18e>
20000738:	2380      	movs	r3, #128	@ 0x80
2000073a:	021b      	lsls	r3, r3, #8
2000073c:	421d      	tst	r5, r3
2000073e:	d104      	bne.n	2000074a <dcd_rp2040_irq+0x166>
20000740:	42ac      	cmp	r4, r5
20000742:	d000      	beq.n	20000746 <dcd_rp2040_irq+0x162>
20000744:	e1c8      	b.n	20000ad8 <dcd_rp2040_irq+0x4f4>
20000746:	b005      	add	sp, #20
20000748:	bdf0      	pop	{r4, r5, r6, r7, pc}
2000074a:	431c      	orrs	r4, r3
2000074c:	466b      	mov	r3, sp
2000074e:	220a      	movs	r2, #10
20000750:	2100      	movs	r1, #0
20000752:	1d98      	adds	r0, r3, #6
20000754:	f000 fc40 	bl	20000fd8 <____wrap_memset_veneer>
20000758:	23a0      	movs	r3, #160	@ 0xa0
2000075a:	ae01      	add	r6, sp, #4
2000075c:	00db      	lsls	r3, r3, #3
2000075e:	8033      	strh	r3, [r6, #0]
20000760:	2101      	movs	r1, #1
20000762:	0030      	movs	r0, r6
20000764:	f000 faf2 	bl	20000d4c <dcd_event_handler>
20000768:	2280      	movs	r2, #128	@ 0x80
2000076a:	4b74      	ldr	r3, [pc, #464]	@ (2000093c <dcd_rp2040_irq+0x358>)
2000076c:	0112      	lsls	r2, r2, #4
2000076e:	651a      	str	r2, [r3, #80]	@ 0x50
20000770:	e7e6      	b.n	20000740 <dcd_rp2040_irq+0x15c>
20000772:	431c      	orrs	r4, r3
20000774:	466b      	mov	r3, sp
20000776:	220a      	movs	r2, #10
20000778:	2100      	movs	r1, #0
2000077a:	1d98      	adds	r0, r3, #6
2000077c:	f000 fc2c 	bl	20000fd8 <____wrap_memset_veneer>
20000780:	2380      	movs	r3, #128	@ 0x80
20000782:	ae01      	add	r6, sp, #4
20000784:	00db      	lsls	r3, r3, #3
20000786:	8033      	strh	r3, [r6, #0]
20000788:	2101      	movs	r1, #1
2000078a:	0030      	movs	r0, r6
2000078c:	f000 fade 	bl	20000d4c <dcd_event_handler>
20000790:	2210      	movs	r2, #16
20000792:	4b6a      	ldr	r3, [pc, #424]	@ (2000093c <dcd_rp2040_irq+0x358>)
20000794:	651a      	str	r2, [r3, #80]	@ 0x50
20000796:	e7cf      	b.n	20000738 <dcd_rp2040_irq+0x154>
20000798:	2200      	movs	r2, #0
2000079a:	431c      	orrs	r4, r3
2000079c:	4b5a      	ldr	r3, [pc, #360]	@ (20000908 <dcd_rp2040_irq+0x324>)
2000079e:	ae01      	add	r6, sp, #4
200007a0:	601a      	str	r2, [r3, #0]
200007a2:	f7ff fe95 	bl	200004d0 <reset_non_control_endpoints>
200007a6:	466b      	mov	r3, sp
200007a8:	220a      	movs	r2, #10
200007aa:	2100      	movs	r1, #0
200007ac:	1d98      	adds	r0, r3, #6
200007ae:	f000 fc13 	bl	20000fd8 <____wrap_memset_veneer>
200007b2:	2380      	movs	r3, #128	@ 0x80
200007b4:	005b      	lsls	r3, r3, #1
200007b6:	8033      	strh	r3, [r6, #0]
200007b8:	2101      	movs	r1, #1
200007ba:	0030      	movs	r0, r6
200007bc:	f000 fac6 	bl	20000d4c <dcd_event_handler>
200007c0:	2280      	movs	r2, #128	@ 0x80
200007c2:	4b5e      	ldr	r3, [pc, #376]	@ (2000093c <dcd_rp2040_irq+0x358>)
200007c4:	0312      	lsls	r2, r2, #12
200007c6:	651a      	str	r2, [r3, #80]	@ 0x50
200007c8:	e7b2      	b.n	20000730 <dcd_rp2040_irq+0x14c>
200007ca:	f7ff feb5 	bl	20000538 <hw_handle_buff_status>
200007ce:	0034      	movs	r4, r6
200007d0:	e791      	b.n	200006f6 <dcd_rp2040_irq+0x112>
200007d2:	3338      	adds	r3, #56	@ 0x38
200007d4:	5ce6      	ldrb	r6, [r4, r3]
200007d6:	2e00      	cmp	r6, #0
200007d8:	d100      	bne.n	200007dc <dcd_rp2040_irq+0x1f8>
200007da:	e71a      	b.n	20000612 <dcd_rp2040_irq+0x2e>
200007dc:	3302      	adds	r3, #2
200007de:	5ce2      	ldrb	r2, [r4, r3]
200007e0:	2a00      	cmp	r2, #0
200007e2:	d100      	bne.n	200007e6 <dcd_rp2040_irq+0x202>
200007e4:	e715      	b.n	20000612 <dcd_rp2040_irq+0x2e>
200007e6:	0020      	movs	r0, r4
200007e8:	2200      	movs	r2, #0
200007ea:	3020      	adds	r0, #32
200007ec:	54e2      	strb	r2, [r4, r3]
200007ee:	f000 fa4f 	bl	20000c90 <hw_endpoint_start_next_buffer>
200007f2:	e70e      	b.n	20000612 <dcd_rp2040_irq+0x2e>
200007f4:	4b54      	ldr	r3, [pc, #336]	@ (20000948 <dcd_rp2040_irq+0x364>)
200007f6:	5ce7      	ldrb	r7, [r4, r3]
200007f8:	2f00      	cmp	r7, #0
200007fa:	d100      	bne.n	200007fe <dcd_rp2040_irq+0x21a>
200007fc:	e74e      	b.n	2000069c <dcd_rp2040_irq+0xb8>
200007fe:	3302      	adds	r3, #2
20000800:	5ce2      	ldrb	r2, [r4, r3]
20000802:	2a00      	cmp	r2, #0
20000804:	d000      	beq.n	20000808 <dcd_rp2040_irq+0x224>
20000806:	e160      	b.n	20000aca <dcd_rp2040_irq+0x4e6>
20000808:	4b49      	ldr	r3, [pc, #292]	@ (20000930 <dcd_rp2040_irq+0x34c>)
2000080a:	5ce3      	ldrb	r3, [r4, r3]
2000080c:	2b02      	cmp	r3, #2
2000080e:	d100      	bne.n	20000812 <dcd_rp2040_irq+0x22e>
20000810:	e0db      	b.n	200009ca <dcd_rp2040_irq+0x3e6>
20000812:	4b48      	ldr	r3, [pc, #288]	@ (20000934 <dcd_rp2040_irq+0x350>)
20000814:	5ce3      	ldrb	r3, [r4, r3]
20000816:	2b02      	cmp	r3, #2
20000818:	d000      	beq.n	2000081c <dcd_rp2040_irq+0x238>
2000081a:	e754      	b.n	200006c6 <dcd_rp2040_irq+0xe2>
2000081c:	4b4b      	ldr	r3, [pc, #300]	@ (2000094c <dcd_rp2040_irq+0x368>)
2000081e:	5ce3      	ldrb	r3, [r4, r3]
20000820:	2b00      	cmp	r3, #0
20000822:	d000      	beq.n	20000826 <dcd_rp2040_irq+0x242>
20000824:	e0e0      	b.n	200009e8 <dcd_rp2040_irq+0x404>
20000826:	e74e      	b.n	200006c6 <dcd_rp2040_irq+0xe2>
20000828:	4b49      	ldr	r3, [pc, #292]	@ (20000950 <dcd_rp2040_irq+0x36c>)
2000082a:	5ce7      	ldrb	r7, [r4, r3]
2000082c:	2f00      	cmp	r7, #0
2000082e:	d100      	bne.n	20000832 <dcd_rp2040_irq+0x24e>
20000830:	e72f      	b.n	20000692 <dcd_rp2040_irq+0xae>
20000832:	3302      	adds	r3, #2
20000834:	5ce2      	ldrb	r2, [r4, r3]
20000836:	2a00      	cmp	r2, #0
20000838:	d000      	beq.n	2000083c <dcd_rp2040_irq+0x258>
2000083a:	e13e      	b.n	20000aba <dcd_rp2040_irq+0x4d6>
2000083c:	003e      	movs	r6, r7
2000083e:	e728      	b.n	20000692 <dcd_rp2040_irq+0xae>
20000840:	4b44      	ldr	r3, [pc, #272]	@ (20000954 <dcd_rp2040_irq+0x370>)
20000842:	5ce7      	ldrb	r7, [r4, r3]
20000844:	2f00      	cmp	r7, #0
20000846:	d100      	bne.n	2000084a <dcd_rp2040_irq+0x266>
20000848:	e71e      	b.n	20000688 <dcd_rp2040_irq+0xa4>
2000084a:	3302      	adds	r3, #2
2000084c:	5ce2      	ldrb	r2, [r4, r3]
2000084e:	2a00      	cmp	r2, #0
20000850:	d000      	beq.n	20000854 <dcd_rp2040_irq+0x270>
20000852:	e12a      	b.n	20000aaa <dcd_rp2040_irq+0x4c6>
20000854:	003e      	movs	r6, r7
20000856:	e717      	b.n	20000688 <dcd_rp2040_irq+0xa4>
20000858:	4b3f      	ldr	r3, [pc, #252]	@ (20000958 <dcd_rp2040_irq+0x374>)
2000085a:	5ce7      	ldrb	r7, [r4, r3]
2000085c:	2f00      	cmp	r7, #0
2000085e:	d100      	bne.n	20000862 <dcd_rp2040_irq+0x27e>
20000860:	e70d      	b.n	2000067e <dcd_rp2040_irq+0x9a>
20000862:	3302      	adds	r3, #2
20000864:	5ce2      	ldrb	r2, [r4, r3]
20000866:	2a00      	cmp	r2, #0
20000868:	d000      	beq.n	2000086c <dcd_rp2040_irq+0x288>
2000086a:	e116      	b.n	20000a9a <dcd_rp2040_irq+0x4b6>
2000086c:	003e      	movs	r6, r7
2000086e:	e706      	b.n	2000067e <dcd_rp2040_irq+0x9a>
20000870:	4b3a      	ldr	r3, [pc, #232]	@ (2000095c <dcd_rp2040_irq+0x378>)
20000872:	5ce7      	ldrb	r7, [r4, r3]
20000874:	2f00      	cmp	r7, #0
20000876:	d100      	bne.n	2000087a <dcd_rp2040_irq+0x296>
20000878:	e6fc      	b.n	20000674 <dcd_rp2040_irq+0x90>
2000087a:	3302      	adds	r3, #2
2000087c:	5ce2      	ldrb	r2, [r4, r3]
2000087e:	2a00      	cmp	r2, #0
20000880:	d000      	beq.n	20000884 <dcd_rp2040_irq+0x2a0>
20000882:	e102      	b.n	20000a8a <dcd_rp2040_irq+0x4a6>
20000884:	003e      	movs	r6, r7
20000886:	e6f5      	b.n	20000674 <dcd_rp2040_irq+0x90>
20000888:	4b35      	ldr	r3, [pc, #212]	@ (20000960 <dcd_rp2040_irq+0x37c>)
2000088a:	5ce7      	ldrb	r7, [r4, r3]
2000088c:	2f00      	cmp	r7, #0
2000088e:	d100      	bne.n	20000892 <dcd_rp2040_irq+0x2ae>
20000890:	e6eb      	b.n	2000066a <dcd_rp2040_irq+0x86>
20000892:	3302      	adds	r3, #2
20000894:	5ce2      	ldrb	r2, [r4, r3]
20000896:	2a00      	cmp	r2, #0
20000898:	d000      	beq.n	2000089c <dcd_rp2040_irq+0x2b8>
2000089a:	e0ee      	b.n	20000a7a <dcd_rp2040_irq+0x496>
2000089c:	003e      	movs	r6, r7
2000089e:	e6e4      	b.n	2000066a <dcd_rp2040_irq+0x86>
200008a0:	33f9      	adds	r3, #249	@ 0xf9
200008a2:	33ff      	adds	r3, #255	@ 0xff
200008a4:	5ce7      	ldrb	r7, [r4, r3]
200008a6:	2f00      	cmp	r7, #0
200008a8:	d100      	bne.n	200008ac <dcd_rp2040_irq+0x2c8>
200008aa:	e6d9      	b.n	20000660 <dcd_rp2040_irq+0x7c>
200008ac:	3302      	adds	r3, #2
200008ae:	5ce2      	ldrb	r2, [r4, r3]
200008b0:	2a00      	cmp	r2, #0
200008b2:	d000      	beq.n	200008b6 <dcd_rp2040_irq+0x2d2>
200008b4:	e0d8      	b.n	20000a68 <dcd_rp2040_irq+0x484>
200008b6:	003e      	movs	r6, r7
200008b8:	e6d2      	b.n	20000660 <dcd_rp2040_irq+0x7c>
200008ba:	33b9      	adds	r3, #185	@ 0xb9
200008bc:	33ff      	adds	r3, #255	@ 0xff
200008be:	5ce7      	ldrb	r7, [r4, r3]
200008c0:	2f00      	cmp	r7, #0
200008c2:	d100      	bne.n	200008c6 <dcd_rp2040_irq+0x2e2>
200008c4:	e6c6      	b.n	20000654 <dcd_rp2040_irq+0x70>
200008c6:	3302      	adds	r3, #2
200008c8:	5ce2      	ldrb	r2, [r4, r3]
200008ca:	2a00      	cmp	r2, #0
200008cc:	d000      	beq.n	200008d0 <dcd_rp2040_irq+0x2ec>
200008ce:	e0c2      	b.n	20000a56 <dcd_rp2040_irq+0x472>
200008d0:	003e      	movs	r6, r7
200008d2:	e6bf      	b.n	20000654 <dcd_rp2040_irq+0x70>
200008d4:	3379      	adds	r3, #121	@ 0x79
200008d6:	33ff      	adds	r3, #255	@ 0xff
200008d8:	5ce7      	ldrb	r7, [r4, r3]
200008da:	2f00      	cmp	r7, #0
200008dc:	d100      	bne.n	200008e0 <dcd_rp2040_irq+0x2fc>
200008de:	e6b3      	b.n	20000648 <dcd_rp2040_irq+0x64>
200008e0:	3302      	adds	r3, #2
200008e2:	5ce2      	ldrb	r2, [r4, r3]
200008e4:	2a00      	cmp	r2, #0
200008e6:	d000      	beq.n	200008ea <dcd_rp2040_irq+0x306>
200008e8:	e0ac      	b.n	20000a44 <dcd_rp2040_irq+0x460>
200008ea:	003e      	movs	r6, r7
200008ec:	e6ac      	b.n	20000648 <dcd_rp2040_irq+0x64>
200008ee:	3339      	adds	r3, #57	@ 0x39
200008f0:	33ff      	adds	r3, #255	@ 0xff
200008f2:	5ce7      	ldrb	r7, [r4, r3]
200008f4:	2f00      	cmp	r7, #0
200008f6:	d100      	bne.n	200008fa <dcd_rp2040_irq+0x316>
200008f8:	e6a0      	b.n	2000063c <dcd_rp2040_irq+0x58>
200008fa:	3302      	adds	r3, #2
200008fc:	5ce2      	ldrb	r2, [r4, r3]
200008fe:	2a00      	cmp	r2, #0
20000900:	d000      	beq.n	20000904 <dcd_rp2040_irq+0x320>
20000902:	e096      	b.n	20000a32 <dcd_rp2040_irq+0x44e>
20000904:	003e      	movs	r6, r7
20000906:	e699      	b.n	2000063c <dcd_rp2040_irq+0x58>
20000908:	50110000 	.word	0x50110000
2000090c:	40054000 	.word	0x40054000
20000910:	20001e70 	.word	0x20001e70
20000914:	20001e68 	.word	0x20001e68
20000918:	0000023b 	.word	0x0000023b
2000091c:	0000027b 	.word	0x0000027b
20000920:	000002bb 	.word	0x000002bb
20000924:	000002fb 	.word	0x000002fb
20000928:	0000033b 	.word	0x0000033b
2000092c:	0000037b 	.word	0x0000037b
20000930:	000003bb 	.word	0x000003bb
20000934:	000003fb 	.word	0x000003fb
20000938:	2003f3ef 	.word	0x2003f3ef
2000093c:	50113000 	.word	0x50113000
20000940:	00020010 	.word	0x00020010
20000944:	50100000 	.word	0x50100000
20000948:	0000037a 	.word	0x0000037a
2000094c:	000003fa 	.word	0x000003fa
20000950:	0000033a 	.word	0x0000033a
20000954:	000002fa 	.word	0x000002fa
20000958:	000002ba 	.word	0x000002ba
2000095c:	0000027a 	.word	0x0000027a
20000960:	0000023a 	.word	0x0000023a
20000964:	33f8      	adds	r3, #248	@ 0xf8
20000966:	5ce7      	ldrb	r7, [r4, r3]
20000968:	2f00      	cmp	r7, #0
2000096a:	d100      	bne.n	2000096e <dcd_rp2040_irq+0x38a>
2000096c:	e660      	b.n	20000630 <dcd_rp2040_irq+0x4c>
2000096e:	3302      	adds	r3, #2
20000970:	5ce2      	ldrb	r2, [r4, r3]
20000972:	2a00      	cmp	r2, #0
20000974:	d155      	bne.n	20000a22 <dcd_rp2040_irq+0x43e>
20000976:	003e      	movs	r6, r7
20000978:	e65a      	b.n	20000630 <dcd_rp2040_irq+0x4c>
2000097a:	33b8      	adds	r3, #184	@ 0xb8
2000097c:	5ce7      	ldrb	r7, [r4, r3]
2000097e:	2f00      	cmp	r7, #0
20000980:	d100      	bne.n	20000984 <dcd_rp2040_irq+0x3a0>
20000982:	e650      	b.n	20000626 <dcd_rp2040_irq+0x42>
20000984:	3302      	adds	r3, #2
20000986:	5ce2      	ldrb	r2, [r4, r3]
20000988:	2a00      	cmp	r2, #0
2000098a:	d142      	bne.n	20000a12 <dcd_rp2040_irq+0x42e>
2000098c:	003e      	movs	r6, r7
2000098e:	e64a      	b.n	20000626 <dcd_rp2040_irq+0x42>
20000990:	3378      	adds	r3, #120	@ 0x78
20000992:	5ce7      	ldrb	r7, [r4, r3]
20000994:	2f00      	cmp	r7, #0
20000996:	d100      	bne.n	2000099a <dcd_rp2040_irq+0x3b6>
20000998:	e640      	b.n	2000061c <dcd_rp2040_irq+0x38>
2000099a:	3302      	adds	r3, #2
2000099c:	5ce2      	ldrb	r2, [r4, r3]
2000099e:	2a00      	cmp	r2, #0
200009a0:	d12f      	bne.n	20000a02 <dcd_rp2040_irq+0x41e>
200009a2:	003e      	movs	r6, r7
200009a4:	e63a      	b.n	2000061c <dcd_rp2040_irq+0x38>
200009a6:	4b4f      	ldr	r3, [pc, #316]	@ (20000ae4 <dcd_rp2040_irq+0x500>)
200009a8:	5ce3      	ldrb	r3, [r4, r3]
200009aa:	2b00      	cmp	r3, #0
200009ac:	d100      	bne.n	200009b0 <dcd_rp2040_irq+0x3cc>
200009ae:	e67a      	b.n	200006a6 <dcd_rp2040_irq+0xc2>
200009b0:	23ef      	movs	r3, #239	@ 0xef
200009b2:	009b      	lsls	r3, r3, #2
200009b4:	5ce2      	ldrb	r2, [r4, r3]
200009b6:	2a00      	cmp	r2, #0
200009b8:	d100      	bne.n	200009bc <dcd_rp2040_irq+0x3d8>
200009ba:	e72a      	b.n	20000812 <dcd_rp2040_irq+0x22e>
200009bc:	2200      	movs	r2, #0
200009be:	54e2      	strb	r2, [r4, r3]
200009c0:	3b1c      	subs	r3, #28
200009c2:	18e0      	adds	r0, r4, r3
200009c4:	f000 f964 	bl	20000c90 <hw_endpoint_start_next_buffer>
200009c8:	e723      	b.n	20000812 <dcd_rp2040_irq+0x22e>
200009ca:	4b46      	ldr	r3, [pc, #280]	@ (20000ae4 <dcd_rp2040_irq+0x500>)
200009cc:	5ce3      	ldrb	r3, [r4, r3]
200009ce:	2b00      	cmp	r3, #0
200009d0:	d1ee      	bne.n	200009b0 <dcd_rp2040_irq+0x3cc>
200009d2:	4b45      	ldr	r3, [pc, #276]	@ (20000ae8 <dcd_rp2040_irq+0x504>)
200009d4:	5ce3      	ldrb	r3, [r4, r3]
200009d6:	2b02      	cmp	r3, #2
200009d8:	d000      	beq.n	200009dc <dcd_rp2040_irq+0x3f8>
200009da:	e674      	b.n	200006c6 <dcd_rp2040_irq+0xe2>
200009dc:	003e      	movs	r6, r7
200009de:	4b43      	ldr	r3, [pc, #268]	@ (20000aec <dcd_rp2040_irq+0x508>)
200009e0:	5ce3      	ldrb	r3, [r4, r3]
200009e2:	2b00      	cmp	r3, #0
200009e4:	d100      	bne.n	200009e8 <dcd_rp2040_irq+0x404>
200009e6:	e663      	b.n	200006b0 <dcd_rp2040_irq+0xcc>
200009e8:	23ff      	movs	r3, #255	@ 0xff
200009ea:	009b      	lsls	r3, r3, #2
200009ec:	5ce2      	ldrb	r2, [r4, r3]
200009ee:	2a00      	cmp	r2, #0
200009f0:	d100      	bne.n	200009f4 <dcd_rp2040_irq+0x410>
200009f2:	e668      	b.n	200006c6 <dcd_rp2040_irq+0xe2>
200009f4:	2200      	movs	r2, #0
200009f6:	54e2      	strb	r2, [r4, r3]
200009f8:	3b1c      	subs	r3, #28
200009fa:	18e0      	adds	r0, r4, r3
200009fc:	f000 f948 	bl	20000c90 <hw_endpoint_start_next_buffer>
20000a00:	e661      	b.n	200006c6 <dcd_rp2040_irq+0xe2>
20000a02:	0020      	movs	r0, r4
20000a04:	2200      	movs	r2, #0
20000a06:	3060      	adds	r0, #96	@ 0x60
20000a08:	54e2      	strb	r2, [r4, r3]
20000a0a:	003e      	movs	r6, r7
20000a0c:	f000 f940 	bl	20000c90 <hw_endpoint_start_next_buffer>
20000a10:	e604      	b.n	2000061c <dcd_rp2040_irq+0x38>
20000a12:	0020      	movs	r0, r4
20000a14:	2200      	movs	r2, #0
20000a16:	30a0      	adds	r0, #160	@ 0xa0
20000a18:	54e2      	strb	r2, [r4, r3]
20000a1a:	003e      	movs	r6, r7
20000a1c:	f000 f938 	bl	20000c90 <hw_endpoint_start_next_buffer>
20000a20:	e601      	b.n	20000626 <dcd_rp2040_irq+0x42>
20000a22:	0020      	movs	r0, r4
20000a24:	2200      	movs	r2, #0
20000a26:	30e0      	adds	r0, #224	@ 0xe0
20000a28:	54e2      	strb	r2, [r4, r3]
20000a2a:	003e      	movs	r6, r7
20000a2c:	f000 f930 	bl	20000c90 <hw_endpoint_start_next_buffer>
20000a30:	e5fe      	b.n	20000630 <dcd_rp2040_irq+0x4c>
20000a32:	0020      	movs	r0, r4
20000a34:	2200      	movs	r2, #0
20000a36:	3021      	adds	r0, #33	@ 0x21
20000a38:	30ff      	adds	r0, #255	@ 0xff
20000a3a:	54e2      	strb	r2, [r4, r3]
20000a3c:	003e      	movs	r6, r7
20000a3e:	f000 f927 	bl	20000c90 <hw_endpoint_start_next_buffer>
20000a42:	e5fb      	b.n	2000063c <dcd_rp2040_irq+0x58>
20000a44:	0020      	movs	r0, r4
20000a46:	2200      	movs	r2, #0
20000a48:	3061      	adds	r0, #97	@ 0x61
20000a4a:	30ff      	adds	r0, #255	@ 0xff
20000a4c:	54e2      	strb	r2, [r4, r3]
20000a4e:	003e      	movs	r6, r7
20000a50:	f000 f91e 	bl	20000c90 <hw_endpoint_start_next_buffer>
20000a54:	e5f8      	b.n	20000648 <dcd_rp2040_irq+0x64>
20000a56:	0020      	movs	r0, r4
20000a58:	2200      	movs	r2, #0
20000a5a:	30a1      	adds	r0, #161	@ 0xa1
20000a5c:	30ff      	adds	r0, #255	@ 0xff
20000a5e:	54e2      	strb	r2, [r4, r3]
20000a60:	003e      	movs	r6, r7
20000a62:	f000 f915 	bl	20000c90 <hw_endpoint_start_next_buffer>
20000a66:	e5f5      	b.n	20000654 <dcd_rp2040_irq+0x70>
20000a68:	0020      	movs	r0, r4
20000a6a:	2200      	movs	r2, #0
20000a6c:	30e1      	adds	r0, #225	@ 0xe1
20000a6e:	30ff      	adds	r0, #255	@ 0xff
20000a70:	54e2      	strb	r2, [r4, r3]
20000a72:	003e      	movs	r6, r7
20000a74:	f000 f90c 	bl	20000c90 <hw_endpoint_start_next_buffer>
20000a78:	e5f2      	b.n	20000660 <dcd_rp2040_irq+0x7c>
20000a7a:	2200      	movs	r2, #0
20000a7c:	54e2      	strb	r2, [r4, r3]
20000a7e:	3b1c      	subs	r3, #28
20000a80:	18e0      	adds	r0, r4, r3
20000a82:	f000 f905 	bl	20000c90 <hw_endpoint_start_next_buffer>
20000a86:	003e      	movs	r6, r7
20000a88:	e5ef      	b.n	2000066a <dcd_rp2040_irq+0x86>
20000a8a:	2200      	movs	r2, #0
20000a8c:	54e2      	strb	r2, [r4, r3]
20000a8e:	3b1c      	subs	r3, #28
20000a90:	18e0      	adds	r0, r4, r3
20000a92:	f000 f8fd 	bl	20000c90 <hw_endpoint_start_next_buffer>
20000a96:	003e      	movs	r6, r7
20000a98:	e5ec      	b.n	20000674 <dcd_rp2040_irq+0x90>
20000a9a:	2200      	movs	r2, #0
20000a9c:	54e2      	strb	r2, [r4, r3]
20000a9e:	3b1c      	subs	r3, #28
20000aa0:	18e0      	adds	r0, r4, r3
20000aa2:	f000 f8f5 	bl	20000c90 <hw_endpoint_start_next_buffer>
20000aa6:	003e      	movs	r6, r7
20000aa8:	e5e9      	b.n	2000067e <dcd_rp2040_irq+0x9a>
20000aaa:	2200      	movs	r2, #0
20000aac:	54e2      	strb	r2, [r4, r3]
20000aae:	3b1c      	subs	r3, #28
20000ab0:	18e0      	adds	r0, r4, r3
20000ab2:	f000 f8ed 	bl	20000c90 <hw_endpoint_start_next_buffer>
20000ab6:	003e      	movs	r6, r7
20000ab8:	e5e6      	b.n	20000688 <dcd_rp2040_irq+0xa4>
20000aba:	2200      	movs	r2, #0
20000abc:	54e2      	strb	r2, [r4, r3]
20000abe:	3b1c      	subs	r3, #28
20000ac0:	18e0      	adds	r0, r4, r3
20000ac2:	f000 f8e5 	bl	20000c90 <hw_endpoint_start_next_buffer>
20000ac6:	003e      	movs	r6, r7
20000ac8:	e5e3      	b.n	20000692 <dcd_rp2040_irq+0xae>
20000aca:	2200      	movs	r2, #0
20000acc:	54e2      	strb	r2, [r4, r3]
20000ace:	3b1c      	subs	r3, #28
20000ad0:	18e0      	adds	r0, r4, r3
20000ad2:	f000 f8dd 	bl	20000c90 <hw_endpoint_start_next_buffer>
20000ad6:	e697      	b.n	20000808 <dcd_rp2040_irq+0x224>
20000ad8:	0021      	movs	r1, r4
20000ada:	4805      	ldr	r0, [pc, #20]	@ (20000af0 <dcd_rp2040_irq+0x50c>)
20000adc:	4069      	eors	r1, r5
20000ade:	f000 fa6b 	bl	20000fb8 <__panic_veneer>
20000ae2:	46c0      	nop			@ (mov r8, r8)
20000ae4:	000003ba 	.word	0x000003ba
20000ae8:	000003fb 	.word	0x000003fb
20000aec:	000003fa 	.word	0x000003fa
20000af0:	1000b73c 	.word	0x1000b73c

20000af4 <e15_is_bulkin_ep>:
20000af4:	4a08      	ldr	r2, [pc, #32]	@ (20000b18 <e15_is_bulkin_ep+0x24>)
20000af6:	0003      	movs	r3, r0
20000af8:	6c12      	ldr	r2, [r2, #64]	@ 0x40
20000afa:	2000      	movs	r0, #0
20000afc:	0792      	lsls	r2, r2, #30
20000afe:	d403      	bmi.n	20000b08 <e15_is_bulkin_ep+0x14>
20000b00:	789a      	ldrb	r2, [r3, #2]
20000b02:	09d2      	lsrs	r2, r2, #7
20000b04:	2a01      	cmp	r2, #1
20000b06:	d000      	beq.n	20000b0a <e15_is_bulkin_ep+0x16>
20000b08:	4770      	bx	lr
20000b0a:	7ed8      	ldrb	r0, [r3, #27]
20000b0c:	3802      	subs	r0, #2
20000b0e:	4243      	negs	r3, r0
20000b10:	4158      	adcs	r0, r3
20000b12:	b2c0      	uxtb	r0, r0
20000b14:	e7f8      	b.n	20000b08 <e15_is_bulkin_ep+0x14>
20000b16:	46c0      	nop			@ (mov r8, r8)
20000b18:	50110000 	.word	0x50110000

20000b1c <e15_is_critical_frame_period>:
20000b1c:	b510      	push	{r4, lr}
20000b1e:	f7ff ffe9 	bl	20000af4 <e15_is_bulkin_ep>
20000b22:	2800      	cmp	r0, #0
20000b24:	d00c      	beq.n	20000b40 <e15_is_critical_frame_period+0x24>
20000b26:	4907      	ldr	r1, [pc, #28]	@ (20000b44 <e15_is_critical_frame_period+0x28>)
20000b28:	4b07      	ldr	r3, [pc, #28]	@ (20000b48 <e15_is_critical_frame_period+0x2c>)
20000b2a:	468c      	mov	ip, r1
20000b2c:	4a07      	ldr	r2, [pc, #28]	@ (20000b4c <e15_is_critical_frame_period+0x30>)
20000b2e:	6a9b      	ldr	r3, [r3, #40]	@ 0x28
20000b30:	6812      	ldr	r2, [r2, #0]
20000b32:	4463      	add	r3, ip
20000b34:	1a9b      	subs	r3, r3, r2
20000b36:	2000      	movs	r0, #0
20000b38:	22c6      	movs	r2, #198	@ 0xc6
20000b3a:	429a      	cmp	r2, r3
20000b3c:	4140      	adcs	r0, r0
20000b3e:	b2c0      	uxtb	r0, r0
20000b40:	bd10      	pop	{r4, pc}
20000b42:	46c0      	nop			@ (mov r8, r8)
20000b44:	fffffce0 	.word	0xfffffce0
20000b48:	40054000 	.word	0x40054000
20000b4c:	20001e68 	.word	0x20001e68

20000b50 <prepare_ep_buffer>:
20000b50:	b5f8      	push	{r3, r4, r5, r6, r7, lr}
20000b52:	8b02      	ldrh	r2, [r0, #24]
20000b54:	8a83      	ldrh	r3, [r0, #20]
20000b56:	0004      	movs	r4, r0
20000b58:	000f      	movs	r7, r1
20000b5a:	1c16      	adds	r6, r2, #0
20000b5c:	429a      	cmp	r2, r3
20000b5e:	d900      	bls.n	20000b62 <prepare_ep_buffer+0x12>
20000b60:	1c1e      	adds	r6, r3, #0
20000b62:	78e2      	ldrb	r2, [r4, #3]
20000b64:	2180      	movs	r1, #128	@ 0x80
20000b66:	0015      	movs	r5, r2
20000b68:	1e68      	subs	r0, r5, #1
20000b6a:	4185      	sbcs	r5, r0
20000b6c:	b2b6      	uxth	r6, r6
20000b6e:	00c9      	lsls	r1, r1, #3
20000b70:	4331      	orrs	r1, r6
20000b72:	036d      	lsls	r5, r5, #13
20000b74:	430d      	orrs	r5, r1
20000b76:	2101      	movs	r1, #1
20000b78:	404a      	eors	r2, r1
20000b7a:	1b9b      	subs	r3, r3, r6
20000b7c:	70e2      	strb	r2, [r4, #3]
20000b7e:	7862      	ldrb	r2, [r4, #1]
20000b80:	b29b      	uxth	r3, r3
20000b82:	82a3      	strh	r3, [r4, #20]
20000b84:	2a00      	cmp	r2, #0
20000b86:	d009      	beq.n	20000b9c <prepare_ep_buffer+0x4c>
20000b88:	2b00      	cmp	r3, #0
20000b8a:	d102      	bne.n	20000b92 <prepare_ep_buffer+0x42>
20000b8c:	2380      	movs	r3, #128	@ 0x80
20000b8e:	01db      	lsls	r3, r3, #7
20000b90:	431d      	orrs	r5, r3
20000b92:	2f00      	cmp	r7, #0
20000b94:	d000      	beq.n	20000b98 <prepare_ep_buffer+0x48>
20000b96:	042d      	lsls	r5, r5, #16
20000b98:	0028      	movs	r0, r5
20000b9a:	bdf8      	pop	{r3, r4, r5, r6, r7, pc}
20000b9c:	68e0      	ldr	r0, [r4, #12]
20000b9e:	01bb      	lsls	r3, r7, #6
20000ba0:	18c0      	adds	r0, r0, r3
20000ba2:	0032      	movs	r2, r6
20000ba4:	6921      	ldr	r1, [r4, #16]
20000ba6:	f000 f9ff 	bl	20000fa8 <____wrap_memcpy_veneer>
20000baa:	6923      	ldr	r3, [r4, #16]
20000bac:	199b      	adds	r3, r3, r6
20000bae:	6123      	str	r3, [r4, #16]
20000bb0:	2380      	movs	r3, #128	@ 0x80
20000bb2:	021b      	lsls	r3, r3, #8
20000bb4:	431d      	orrs	r5, r3
20000bb6:	8aa3      	ldrh	r3, [r4, #20]
20000bb8:	e7e6      	b.n	20000b88 <prepare_ep_buffer+0x38>
20000bba:	46c0      	nop			@ (mov r8, r8)

20000bbc <sync_ep_buffer>:
20000bbc:	6883      	ldr	r3, [r0, #8]
20000bbe:	b570      	push	{r4, r5, r6, lr}
20000bc0:	0004      	movs	r4, r0
20000bc2:	681d      	ldr	r5, [r3, #0]
20000bc4:	2900      	cmp	r1, #0
20000bc6:	d000      	beq.n	20000bca <sync_ep_buffer+0xe>
20000bc8:	0c2d      	lsrs	r5, r5, #16
20000bca:	7863      	ldrb	r3, [r4, #1]
20000bcc:	05ad      	lsls	r5, r5, #22
20000bce:	0dad      	lsrs	r5, r5, #22
20000bd0:	2b00      	cmp	r3, #0
20000bd2:	d109      	bne.n	20000be8 <sync_ep_buffer+0x2c>
20000bd4:	8ae3      	ldrh	r3, [r4, #22]
20000bd6:	18eb      	adds	r3, r5, r3
20000bd8:	82e3      	strh	r3, [r4, #22]
20000bda:	8b23      	ldrh	r3, [r4, #24]
20000bdc:	42ab      	cmp	r3, r5
20000bde:	d901      	bls.n	20000be4 <sync_ep_buffer+0x28>
20000be0:	2300      	movs	r3, #0
20000be2:	82a3      	strh	r3, [r4, #20]
20000be4:	0028      	movs	r0, r5
20000be6:	bd70      	pop	{r4, r5, r6, pc}
20000be8:	68e3      	ldr	r3, [r4, #12]
20000bea:	0189      	lsls	r1, r1, #6
20000bec:	1859      	adds	r1, r3, r1
20000bee:	002a      	movs	r2, r5
20000bf0:	6920      	ldr	r0, [r4, #16]
20000bf2:	f000 f9d9 	bl	20000fa8 <____wrap_memcpy_veneer>
20000bf6:	8ae3      	ldrh	r3, [r4, #22]
20000bf8:	18eb      	adds	r3, r5, r3
20000bfa:	82e3      	strh	r3, [r4, #22]
20000bfc:	6923      	ldr	r3, [r4, #16]
20000bfe:	195b      	adds	r3, r3, r5
20000c00:	6123      	str	r3, [r4, #16]
20000c02:	e7ea      	b.n	20000bda <sync_ep_buffer+0x1e>

20000c04 <_hw_endpoint_xfer_sync>:
20000c04:	b510      	push	{r4, lr}
20000c06:	0004      	movs	r4, r0
20000c08:	6883      	ldr	r3, [r0, #8]
20000c0a:	2100      	movs	r1, #0
20000c0c:	681b      	ldr	r3, [r3, #0]
20000c0e:	f7ff ffd5 	bl	20000bbc <sync_ep_buffer>
20000c12:	6863      	ldr	r3, [r4, #4]
20000c14:	681b      	ldr	r3, [r3, #0]
20000c16:	005b      	lsls	r3, r3, #1
20000c18:	d502      	bpl.n	20000c20 <_hw_endpoint_xfer_sync+0x1c>
20000c1a:	8b23      	ldrh	r3, [r4, #24]
20000c1c:	4283      	cmp	r3, r0
20000c1e:	d000      	beq.n	20000c22 <_hw_endpoint_xfer_sync+0x1e>
20000c20:	bd10      	pop	{r4, pc}
20000c22:	2101      	movs	r1, #1
20000c24:	0020      	movs	r0, r4
20000c26:	f7ff ffc9 	bl	20000bbc <sync_ep_buffer>
20000c2a:	e7f9      	b.n	20000c20 <_hw_endpoint_xfer_sync+0x1c>

20000c2c <hw_endpoint_reset_transfer>:
20000c2c:	2300      	movs	r3, #0
20000c2e:	7683      	strb	r3, [r0, #26]
20000c30:	6143      	str	r3, [r0, #20]
20000c32:	6103      	str	r3, [r0, #16]
20000c34:	4770      	bx	lr
20000c36:	46c0      	nop			@ (mov r8, r8)

20000c38 <_hw_endpoint_buffer_control_update32>:
20000c38:	b510      	push	{r4, lr}
20000c3a:	6883      	ldr	r3, [r0, #8]
20000c3c:	2900      	cmp	r1, #0
20000c3e:	d001      	beq.n	20000c44 <_hw_endpoint_buffer_control_update32+0xc>
20000c40:	681c      	ldr	r4, [r3, #0]
20000c42:	4021      	ands	r1, r4
20000c44:	2a00      	cmp	r2, #0
20000c46:	d011      	beq.n	20000c6c <_hw_endpoint_buffer_control_update32+0x34>
20000c48:	2480      	movs	r4, #128	@ 0x80
20000c4a:	00e4      	lsls	r4, r4, #3
20000c4c:	4311      	orrs	r1, r2
20000c4e:	4222      	tst	r2, r4
20000c50:	d00c      	beq.n	20000c6c <_hw_endpoint_buffer_control_update32+0x34>
20000c52:	681a      	ldr	r2, [r3, #0]
20000c54:	4222      	tst	r2, r4
20000c56:	d10b      	bne.n	20000c70 <_hw_endpoint_buffer_control_update32+0x38>
20000c58:	4a0a      	ldr	r2, [pc, #40]	@ (20000c84 <_hw_endpoint_buffer_control_update32+0x4c>)
20000c5a:	400a      	ands	r2, r1
20000c5c:	601a      	str	r2, [r3, #0]
20000c5e:	e7ff      	b.n	20000c60 <_hw_endpoint_buffer_control_update32+0x28>
20000c60:	e7ff      	b.n	20000c62 <_hw_endpoint_buffer_control_update32+0x2a>
20000c62:	e7ff      	b.n	20000c64 <_hw_endpoint_buffer_control_update32+0x2c>
20000c64:	e7ff      	b.n	20000c66 <_hw_endpoint_buffer_control_update32+0x2e>
20000c66:	e7ff      	b.n	20000c68 <_hw_endpoint_buffer_control_update32+0x30>
20000c68:	e7ff      	b.n	20000c6a <_hw_endpoint_buffer_control_update32+0x32>
20000c6a:	6883      	ldr	r3, [r0, #8]
20000c6c:	6019      	str	r1, [r3, #0]
20000c6e:	bd10      	pop	{r4, pc}
20000c70:	7881      	ldrb	r1, [r0, #2]
20000c72:	207f      	movs	r0, #127	@ 0x7f
20000c74:	09ca      	lsrs	r2, r1, #7
20000c76:	4b04      	ldr	r3, [pc, #16]	@ (20000c88 <_hw_endpoint_buffer_control_update32+0x50>)
20000c78:	0092      	lsls	r2, r2, #2
20000c7a:	4001      	ands	r1, r0
20000c7c:	58d2      	ldr	r2, [r2, r3]
20000c7e:	4803      	ldr	r0, [pc, #12]	@ (20000c8c <_hw_endpoint_buffer_control_update32+0x54>)
20000c80:	f000 f99a 	bl	20000fb8 <__panic_veneer>
20000c84:	fffffbff 	.word	0xfffffbff
20000c88:	200010a8 	.word	0x200010a8
20000c8c:	1000b750 	.word	0x1000b750

20000c90 <hw_endpoint_start_next_buffer>:
20000c90:	6843      	ldr	r3, [r0, #4]
20000c92:	b570      	push	{r4, r5, r6, lr}
20000c94:	2100      	movs	r1, #0
20000c96:	2580      	movs	r5, #128	@ 0x80
20000c98:	681e      	ldr	r6, [r3, #0]
20000c9a:	0004      	movs	r4, r0
20000c9c:	f7ff ff58 	bl	20000b50 <prepare_ep_buffer>
20000ca0:	4b13      	ldr	r3, [pc, #76]	@ (20000cf0 <hw_endpoint_start_next_buffer+0x60>)
20000ca2:	016d      	lsls	r5, r5, #5
20000ca4:	6c1b      	ldr	r3, [r3, #64]	@ 0x40
20000ca6:	4305      	orrs	r5, r0
20000ca8:	079b      	lsls	r3, r3, #30
20000caa:	d50f      	bpl.n	20000ccc <hw_endpoint_start_next_buffer+0x3c>
20000cac:	78a3      	ldrb	r3, [r4, #2]
20000cae:	065b      	lsls	r3, r3, #25
20000cb0:	d00f      	beq.n	20000cd2 <hw_endpoint_start_next_buffer+0x42>
20000cb2:	4b10      	ldr	r3, [pc, #64]	@ (20000cf4 <hw_endpoint_start_next_buffer+0x64>)
20000cb4:	401e      	ands	r6, r3
20000cb6:	2380      	movs	r3, #128	@ 0x80
20000cb8:	059b      	lsls	r3, r3, #22
20000cba:	4333      	orrs	r3, r6
20000cbc:	6862      	ldr	r2, [r4, #4]
20000cbe:	2100      	movs	r1, #0
20000cc0:	6013      	str	r3, [r2, #0]
20000cc2:	0020      	movs	r0, r4
20000cc4:	002a      	movs	r2, r5
20000cc6:	f7ff ffb7 	bl	20000c38 <_hw_endpoint_buffer_control_update32>
20000cca:	bd70      	pop	{r4, r5, r6, pc}
20000ccc:	78a3      	ldrb	r3, [r4, #2]
20000cce:	09db      	lsrs	r3, r3, #7
20000cd0:	d0ef      	beq.n	20000cb2 <hw_endpoint_start_next_buffer+0x22>
20000cd2:	8aa3      	ldrh	r3, [r4, #20]
20000cd4:	2b00      	cmp	r3, #0
20000cd6:	d0ec      	beq.n	20000cb2 <hw_endpoint_start_next_buffer+0x22>
20000cd8:	2101      	movs	r1, #1
20000cda:	0020      	movs	r0, r4
20000cdc:	f7ff ff38 	bl	20000b50 <prepare_ep_buffer>
20000ce0:	23a0      	movs	r3, #160	@ 0xa0
20000ce2:	4a05      	ldr	r2, [pc, #20]	@ (20000cf8 <hw_endpoint_start_next_buffer+0x68>)
20000ce4:	05db      	lsls	r3, r3, #23
20000ce6:	4032      	ands	r2, r6
20000ce8:	4305      	orrs	r5, r0
20000cea:	4313      	orrs	r3, r2
20000cec:	e7e6      	b.n	20000cbc <hw_endpoint_start_next_buffer+0x2c>
20000cee:	46c0      	nop			@ (mov r8, r8)
20000cf0:	50110000 	.word	0x50110000
20000cf4:	afffffff 	.word	0xafffffff
20000cf8:	dfffffff 	.word	0xdfffffff

20000cfc <hw_endpoint_xfer_continue>:
20000cfc:	b570      	push	{r4, r5, r6, lr}
20000cfe:	7e85      	ldrb	r5, [r0, #26]
20000d00:	0004      	movs	r4, r0
20000d02:	2d00      	cmp	r5, #0
20000d04:	d014      	beq.n	20000d30 <hw_endpoint_xfer_continue+0x34>
20000d06:	f7ff ff7d 	bl	20000c04 <_hw_endpoint_xfer_sync>
20000d0a:	8aa3      	ldrh	r3, [r4, #20]
20000d0c:	2b00      	cmp	r3, #0
20000d0e:	d101      	bne.n	20000d14 <hw_endpoint_xfer_continue+0x18>
20000d10:	0028      	movs	r0, r5
20000d12:	bd70      	pop	{r4, r5, r6, pc}
20000d14:	0020      	movs	r0, r4
20000d16:	f7ff ff01 	bl	20000b1c <e15_is_critical_frame_period>
20000d1a:	2800      	cmp	r0, #0
20000d1c:	d003      	beq.n	20000d26 <hw_endpoint_xfer_continue+0x2a>
20000d1e:	2301      	movs	r3, #1
20000d20:	2500      	movs	r5, #0
20000d22:	7723      	strb	r3, [r4, #28]
20000d24:	e7f4      	b.n	20000d10 <hw_endpoint_xfer_continue+0x14>
20000d26:	0020      	movs	r0, r4
20000d28:	f7ff ffb2 	bl	20000c90 <hw_endpoint_start_next_buffer>
20000d2c:	2500      	movs	r5, #0
20000d2e:	e7ef      	b.n	20000d10 <hw_endpoint_xfer_continue+0x14>
20000d30:	7881      	ldrb	r1, [r0, #2]
20000d32:	207f      	movs	r0, #127	@ 0x7f
20000d34:	09ca      	lsrs	r2, r1, #7
20000d36:	4b03      	ldr	r3, [pc, #12]	@ (20000d44 <hw_endpoint_xfer_continue+0x48>)
20000d38:	0092      	lsls	r2, r2, #2
20000d3a:	4001      	ands	r1, r0
20000d3c:	58d2      	ldr	r2, [r2, r3]
20000d3e:	4802      	ldr	r0, [pc, #8]	@ (20000d48 <hw_endpoint_xfer_continue+0x4c>)
20000d40:	f000 f93a 	bl	20000fb8 <__panic_veneer>
20000d44:	200010a8 	.word	0x200010a8
20000d48:	1000b770 	.word	0x1000b770

20000d4c <dcd_event_handler>:
20000d4c:	b5f0      	push	{r4, r5, r6, r7, lr}
20000d4e:	7843      	ldrb	r3, [r0, #1]
20000d50:	0005      	movs	r5, r0
20000d52:	b085      	sub	sp, #20
20000d54:	2b04      	cmp	r3, #4
20000d56:	d100      	bne.n	20000d5a <dcd_event_handler+0xe>
20000d58:	e075      	b.n	20000e46 <dcd_event_handler+0xfa>
20000d5a:	d846      	bhi.n	20000dea <dcd_event_handler+0x9e>
20000d5c:	2b02      	cmp	r3, #2
20000d5e:	d100      	bne.n	20000d62 <dcd_event_handler+0x16>
20000d60:	e083      	b.n	20000e6a <dcd_event_handler+0x11e>
20000d62:	2b03      	cmp	r3, #3
20000d64:	d155      	bne.n	20000e12 <dcd_event_handler+0xc6>
20000d66:	4e50      	ldr	r6, [pc, #320]	@ (20000ea8 <dcd_event_handler+0x15c>)
20000d68:	4a50      	ldr	r2, [pc, #320]	@ (20000eac <dcd_event_handler+0x160>)
20000d6a:	2400      	movs	r4, #0
20000d6c:	7833      	ldrb	r3, [r6, #0]
20000d6e:	2a00      	cmp	r2, #0
20000d70:	d100      	bne.n	20000d74 <dcd_event_handler+0x28>
20000d72:	e092      	b.n	20000e9a <dcd_event_handler+0x14e>
20000d74:	4f4e      	ldr	r7, [pc, #312]	@ (20000eb0 <dcd_event_handler+0x164>)
20000d76:	e003      	b.n	20000d80 <dcd_event_handler+0x34>
20000d78:	3401      	adds	r4, #1
20000d7a:	b2e4      	uxtb	r4, r4
20000d7c:	429c      	cmp	r4, r3
20000d7e:	d813      	bhi.n	20000da8 <dcd_event_handler+0x5c>
20000d80:	42a3      	cmp	r3, r4
20000d82:	d9f9      	bls.n	20000d78 <dcd_event_handler+0x2c>
20000d84:	0062      	lsls	r2, r4, #1
20000d86:	6839      	ldr	r1, [r7, #0]
20000d88:	1912      	adds	r2, r2, r4
20000d8a:	00d2      	lsls	r2, r2, #3
20000d8c:	188a      	adds	r2, r1, r2
20000d8e:	2a00      	cmp	r2, #0
20000d90:	d0f2      	beq.n	20000d78 <dcd_event_handler+0x2c>
20000d92:	6952      	ldr	r2, [r2, #20]
20000d94:	2a00      	cmp	r2, #0
20000d96:	d0ef      	beq.n	20000d78 <dcd_event_handler+0x2c>
20000d98:	6869      	ldr	r1, [r5, #4]
20000d9a:	7828      	ldrb	r0, [r5, #0]
20000d9c:	4790      	blx	r2
20000d9e:	3401      	adds	r4, #1
20000da0:	7833      	ldrb	r3, [r6, #0]
20000da2:	b2e4      	uxtb	r4, r4
20000da4:	429c      	cmp	r4, r3
20000da6:	d9eb      	bls.n	20000d80 <dcd_event_handler+0x34>
20000da8:	4b42      	ldr	r3, [pc, #264]	@ (20000eb4 <dcd_event_handler+0x168>)
20000daa:	781a      	ldrb	r2, [r3, #0]
20000dac:	0752      	lsls	r2, r2, #29
20000dae:	d548      	bpl.n	20000e42 <dcd_event_handler+0xf6>
20000db0:	2104      	movs	r1, #4
20000db2:	781a      	ldrb	r2, [r3, #0]
20000db4:	438a      	bics	r2, r1
20000db6:	701a      	strb	r2, [r3, #0]
20000db8:	466b      	mov	r3, sp
20000dba:	220a      	movs	r2, #10
20000dbc:	2100      	movs	r1, #0
20000dbe:	1d98      	adds	r0, r3, #6
20000dc0:	f000 f90a 	bl	20000fd8 <____wrap_memset_veneer>
20000dc4:	466a      	mov	r2, sp
20000dc6:	782b      	ldrb	r3, [r5, #0]
20000dc8:	7113      	strb	r3, [r2, #4]
20000dca:	2305      	movs	r3, #5
20000dcc:	7153      	strb	r3, [r2, #5]
20000dce:	4b3a      	ldr	r3, [pc, #232]	@ (20000eb8 <dcd_event_handler+0x16c>)
20000dd0:	681c      	ldr	r4, [r3, #0]
20000dd2:	6962      	ldr	r2, [r4, #20]
20000dd4:	f3ef 8110 	mrs	r1, PRIMASK
20000dd8:	b672      	cpsid	i
20000dda:	6813      	ldr	r3, [r2, #0]
20000ddc:	2b00      	cmp	r3, #0
20000dde:	d0fc      	beq.n	20000dda <dcd_event_handler+0x8e>
20000de0:	f3bf 8f5f 	dmb	sy
20000de4:	61a1      	str	r1, [r4, #24]
20000de6:	a901      	add	r1, sp, #4
20000de8:	e020      	b.n	20000e2c <dcd_event_handler+0xe0>
20000dea:	2b05      	cmp	r3, #5
20000dec:	d111      	bne.n	20000e12 <dcd_event_handler+0xc6>
20000dee:	4b31      	ldr	r3, [pc, #196]	@ (20000eb4 <dcd_event_handler+0x168>)
20000df0:	781a      	ldrb	r2, [r3, #0]
20000df2:	07d2      	lsls	r2, r2, #31
20000df4:	d525      	bpl.n	20000e42 <dcd_event_handler+0xf6>
20000df6:	2104      	movs	r1, #4
20000df8:	781a      	ldrb	r2, [r3, #0]
20000dfa:	438a      	bics	r2, r1
20000dfc:	701a      	strb	r2, [r3, #0]
20000dfe:	4b2e      	ldr	r3, [pc, #184]	@ (20000eb8 <dcd_event_handler+0x16c>)
20000e00:	681c      	ldr	r4, [r3, #0]
20000e02:	6962      	ldr	r2, [r4, #20]
20000e04:	f3ef 8110 	mrs	r1, PRIMASK
20000e08:	b672      	cpsid	i
20000e0a:	6813      	ldr	r3, [r2, #0]
20000e0c:	2b00      	cmp	r3, #0
20000e0e:	d109      	bne.n	20000e24 <dcd_event_handler+0xd8>
20000e10:	e7fb      	b.n	20000e0a <dcd_event_handler+0xbe>
20000e12:	4b29      	ldr	r3, [pc, #164]	@ (20000eb8 <dcd_event_handler+0x16c>)
20000e14:	681c      	ldr	r4, [r3, #0]
20000e16:	6962      	ldr	r2, [r4, #20]
20000e18:	f3ef 8110 	mrs	r1, PRIMASK
20000e1c:	b672      	cpsid	i
20000e1e:	6813      	ldr	r3, [r2, #0]
20000e20:	2b00      	cmp	r3, #0
20000e22:	d0fc      	beq.n	20000e1e <dcd_event_handler+0xd2>
20000e24:	f3bf 8f5f 	dmb	sy
20000e28:	61a1      	str	r1, [r4, #24]
20000e2a:	0029      	movs	r1, r5
20000e2c:	0020      	movs	r0, r4
20000e2e:	f000 f8db 	bl	20000fe8 <__tu_fifo_write_veneer>
20000e32:	6962      	ldr	r2, [r4, #20]
20000e34:	69a3      	ldr	r3, [r4, #24]
20000e36:	f3bf 8f5f 	dmb	sy
20000e3a:	2100      	movs	r1, #0
20000e3c:	6011      	str	r1, [r2, #0]
20000e3e:	f383 8810 	msr	PRIMASK, r3
20000e42:	b005      	add	sp, #20
20000e44:	bdf0      	pop	{r4, r5, r6, r7, pc}
20000e46:	4b1b      	ldr	r3, [pc, #108]	@ (20000eb4 <dcd_event_handler+0x168>)
20000e48:	781a      	ldrb	r2, [r3, #0]
20000e4a:	07d2      	lsls	r2, r2, #31
20000e4c:	d5f9      	bpl.n	20000e42 <dcd_event_handler+0xf6>
20000e4e:	2104      	movs	r1, #4
20000e50:	781a      	ldrb	r2, [r3, #0]
20000e52:	430a      	orrs	r2, r1
20000e54:	701a      	strb	r2, [r3, #0]
20000e56:	4b18      	ldr	r3, [pc, #96]	@ (20000eb8 <dcd_event_handler+0x16c>)
20000e58:	681c      	ldr	r4, [r3, #0]
20000e5a:	6962      	ldr	r2, [r4, #20]
20000e5c:	f3ef 8110 	mrs	r1, PRIMASK
20000e60:	b672      	cpsid	i
20000e62:	6813      	ldr	r3, [r2, #0]
20000e64:	2b00      	cmp	r3, #0
20000e66:	d1dd      	bne.n	20000e24 <dcd_event_handler+0xd8>
20000e68:	e7fb      	b.n	20000e62 <dcd_event_handler+0x116>
20000e6a:	2001      	movs	r0, #1
20000e6c:	4a11      	ldr	r2, [pc, #68]	@ (20000eb4 <dcd_event_handler+0x168>)
20000e6e:	7811      	ldrb	r1, [r2, #0]
20000e70:	4381      	bics	r1, r0
20000e72:	7011      	strb	r1, [r2, #0]
20000e74:	7811      	ldrb	r1, [r2, #0]
20000e76:	4399      	bics	r1, r3
20000e78:	2300      	movs	r3, #0
20000e7a:	7011      	strb	r1, [r2, #0]
20000e7c:	2104      	movs	r1, #4
20000e7e:	7053      	strb	r3, [r2, #1]
20000e80:	7813      	ldrb	r3, [r2, #0]
20000e82:	438b      	bics	r3, r1
20000e84:	7013      	strb	r3, [r2, #0]
20000e86:	4b0c      	ldr	r3, [pc, #48]	@ (20000eb8 <dcd_event_handler+0x16c>)
20000e88:	681c      	ldr	r4, [r3, #0]
20000e8a:	6962      	ldr	r2, [r4, #20]
20000e8c:	f3ef 8110 	mrs	r1, PRIMASK
20000e90:	b672      	cpsid	i
20000e92:	6813      	ldr	r3, [r2, #0]
20000e94:	2b00      	cmp	r3, #0
20000e96:	d1c5      	bne.n	20000e24 <dcd_event_handler+0xd8>
20000e98:	e7fb      	b.n	20000e92 <dcd_event_handler+0x146>
20000e9a:	2200      	movs	r2, #0
20000e9c:	3201      	adds	r2, #1
20000e9e:	b2d2      	uxtb	r2, r2
20000ea0:	429a      	cmp	r2, r3
20000ea2:	d9fb      	bls.n	20000e9c <dcd_event_handler+0x150>
20000ea4:	e780      	b.n	20000da8 <dcd_event_handler+0x5c>
20000ea6:	46c0      	nop			@ (mov r8, r8)
20000ea8:	2003f3ee 	.word	0x2003f3ee
20000eac:	100083c1 	.word	0x100083c1
20000eb0:	20001894 	.word	0x20001894
20000eb4:	20001bbc 	.word	0x20001bbc
20000eb8:	20001c14 	.word	0x20001c14

20000ebc <spi_write_blocking>:
20000ebc:	b530      	push	{r4, r5, lr}
20000ebe:	0004      	movs	r4, r0
20000ec0:	1e10      	subs	r0, r2, #0
20000ec2:	d00a      	beq.n	20000eda <spi_write_blocking+0x1e>
20000ec4:	000a      	movs	r2, r1
20000ec6:	180d      	adds	r5, r1, r0
20000ec8:	2102      	movs	r1, #2
20000eca:	68e3      	ldr	r3, [r4, #12]
20000ecc:	4219      	tst	r1, r3
20000ece:	d0fc      	beq.n	20000eca <spi_write_blocking+0xe>
20000ed0:	7813      	ldrb	r3, [r2, #0]
20000ed2:	3201      	adds	r2, #1
20000ed4:	60a3      	str	r3, [r4, #8]
20000ed6:	4295      	cmp	r5, r2
20000ed8:	d1f7      	bne.n	20000eca <spi_write_blocking+0xe>
20000eda:	68e3      	ldr	r3, [r4, #12]
20000edc:	075b      	lsls	r3, r3, #29
20000ede:	d504      	bpl.n	20000eea <spi_write_blocking+0x2e>
20000ee0:	2104      	movs	r1, #4
20000ee2:	68a3      	ldr	r3, [r4, #8]
20000ee4:	68e3      	ldr	r3, [r4, #12]
20000ee6:	4219      	tst	r1, r3
20000ee8:	d1fb      	bne.n	20000ee2 <spi_write_blocking+0x26>
20000eea:	2110      	movs	r1, #16
20000eec:	68e3      	ldr	r3, [r4, #12]
20000eee:	4219      	tst	r1, r3
20000ef0:	d1fc      	bne.n	20000eec <spi_write_blocking+0x30>
20000ef2:	68e3      	ldr	r3, [r4, #12]
20000ef4:	075b      	lsls	r3, r3, #29
20000ef6:	d504      	bpl.n	20000f02 <spi_write_blocking+0x46>
20000ef8:	2104      	movs	r1, #4
20000efa:	68a3      	ldr	r3, [r4, #8]
20000efc:	68e3      	ldr	r3, [r4, #12]
20000efe:	4219      	tst	r1, r3
20000f00:	d1fb      	bne.n	20000efa <spi_write_blocking+0x3e>
20000f02:	2301      	movs	r3, #1
20000f04:	6223      	str	r3, [r4, #32]
20000f06:	bd30      	pop	{r4, r5, pc}

20000f08 <spi_read_blocking>:
20000f08:	b5f0      	push	{r4, r5, r6, r7, lr}
20000f0a:	468c      	mov	ip, r1
20000f0c:	0006      	movs	r6, r0
20000f0e:	001d      	movs	r5, r3
20000f10:	0018      	movs	r0, r3
20000f12:	001c      	movs	r4, r3
20000f14:	2102      	movs	r1, #2
20000f16:	2304      	movs	r3, #4
20000f18:	2800      	cmp	r0, #0
20000f1a:	d00a      	beq.n	20000f32 <spi_read_blocking+0x2a>
20000f1c:	2d00      	cmp	r5, #0
20000f1e:	d10d      	bne.n	20000f3c <spi_read_blocking+0x34>
20000f20:	2c00      	cmp	r4, #0
20000f22:	d006      	beq.n	20000f32 <spi_read_blocking+0x2a>
20000f24:	68f7      	ldr	r7, [r6, #12]
20000f26:	423b      	tst	r3, r7
20000f28:	d114      	bne.n	20000f54 <spi_read_blocking+0x4c>
20000f2a:	002f      	movs	r7, r5
20000f2c:	4327      	orrs	r7, r4
20000f2e:	2f00      	cmp	r7, #0
20000f30:	d1f4      	bne.n	20000f1c <spi_read_blocking+0x14>
20000f32:	bdf0      	pop	{r4, r5, r6, r7, pc}
20000f34:	2c00      	cmp	r4, #0
20000f36:	d1f5      	bne.n	20000f24 <spi_read_blocking+0x1c>
20000f38:	2d00      	cmp	r5, #0
20000f3a:	d0fa      	beq.n	20000f32 <spi_read_blocking+0x2a>
20000f3c:	68f7      	ldr	r7, [r6, #12]
20000f3e:	4239      	tst	r1, r7
20000f40:	d0f8      	beq.n	20000f34 <spi_read_blocking+0x2c>
20000f42:	002f      	movs	r7, r5
20000f44:	3708      	adds	r7, #8
20000f46:	42a7      	cmp	r7, r4
20000f48:	d80b      	bhi.n	20000f62 <spi_read_blocking+0x5a>
20000f4a:	2c00      	cmp	r4, #0
20000f4c:	d0f6      	beq.n	20000f3c <spi_read_blocking+0x34>
20000f4e:	68f7      	ldr	r7, [r6, #12]
20000f50:	423b      	tst	r3, r7
20000f52:	d0ea      	beq.n	20000f2a <spi_read_blocking+0x22>
20000f54:	68b7      	ldr	r7, [r6, #8]
20000f56:	3c01      	subs	r4, #1
20000f58:	7017      	strb	r7, [r2, #0]
20000f5a:	0027      	movs	r7, r4
20000f5c:	3201      	adds	r2, #1
20000f5e:	432f      	orrs	r7, r5
20000f60:	e7e5      	b.n	20000f2e <spi_read_blocking+0x26>
20000f62:	4667      	mov	r7, ip
20000f64:	3d01      	subs	r5, #1
20000f66:	60b7      	str	r7, [r6, #8]
20000f68:	002f      	movs	r7, r5
20000f6a:	2c00      	cmp	r4, #0
20000f6c:	d0df      	beq.n	20000f2e <spi_read_blocking+0x26>
20000f6e:	e7d9      	b.n	20000f24 <spi_read_blocking+0x1c>

20000f70 <__aeabi_idiv0>:
20000f70:	4770      	bx	lr
20000f72:	46c0      	nop			@ (mov r8, r8)
20000f74:	0000      	movs	r0, r0
	...

20000f78 <__time_us_64_veneer>:
20000f78:	b401      	push	{r0}
20000f7a:	4802      	ldr	r0, [pc, #8]	@ (20000f84 <__time_us_64_veneer+0xc>)
20000f7c:	4684      	mov	ip, r0
20000f7e:	bc01      	pop	{r0}
20000f80:	4760      	bx	ip
20000f82:	bf00      	nop
20000f84:	10004a21 	.word	0x10004a21

20000f88 <__hard_assertion_failure_veneer>:
20000f88:	b401      	push	{r0}
20000f8a:	4802      	ldr	r0, [pc, #8]	@ (20000f94 <__hard_assertion_failure_veneer+0xc>)
20000f8c:	4684      	mov	ip, r0
20000f8e:	bc01      	pop	{r0}
20000f90:	4760      	bx	ip
20000f92:	bf00      	nop
20000f94:	1000570d 	.word	0x1000570d

20000f98 <__best_effort_wfe_or_timeout_veneer>:
20000f98:	b401      	push	{r0}
20000f9a:	4802      	ldr	r0, [pc, #8]	@ (20000fa4 <__best_effort_wfe_or_timeout_veneer+0xc>)
20000f9c:	4684      	mov	ip, r0
20000f9e:	bc01      	pop	{r0}
20000fa0:	4760      	bx	ip
20000fa2:	bf00      	nop
20000fa4:	10004881 	.word	0x10004881

20000fa8 <____wrap_memcpy_veneer>:
20000fa8:	b401      	push	{r0}
20000faa:	4802      	ldr	r0, [pc, #8]	@ (20000fb4 <____wrap_memcpy_veneer+0xc>)
20000fac:	4684      	mov	ip, r0
20000fae:	bc01      	pop	{r0}
20000fb0:	4760      	bx	ip
20000fb2:	bf00      	nop
20000fb4:	10007f09 	.word	0x10007f09

20000fb8 <__panic_veneer>:
20000fb8:	b401      	push	{r0}
20000fba:	4802      	ldr	r0, [pc, #8]	@ (20000fc4 <__panic_veneer+0xc>)
20000fbc:	4684      	mov	ip, r0
20000fbe:	bc01      	pop	{r0}
20000fc0:	4760      	bx	ip
20000fc2:	bf00      	nop
20000fc4:	100056dd 	.word	0x100056dd

20000fc8 <____wrap___aeabi_lmul_veneer>:
20000fc8:	b401      	push	{r0}
20000fca:	4802      	ldr	r0, [pc, #8]	@ (20000fd4 <____wrap___aeabi_lmul_veneer+0xc>)
20000fcc:	4684      	mov	ip, r0
20000fce:	bc01      	pop	{r0}
20000fd0:	4760      	bx	ip
20000fd2:	bf00      	nop
20000fd4:	10007d1d 	.word	0x10007d1d

20000fd8 <____wrap_memset_veneer>:
20000fd8:	b401      	push	{r0}
20000fda:	4802      	ldr	r0, [pc, #8]	@ (20000fe4 <____wrap_memset_veneer+0xc>)
20000fdc:	4684      	mov	ip, r0
20000fde:	bc01      	pop	{r0}
20000fe0:	4760      	bx	ip
20000fe2:	bf00      	nop
20000fe4:	10007efd 	.word	0x10007efd

20000fe8 <__tu_fifo_write_veneer>:
20000fe8:	b401      	push	{r0}
20000fea:	4802      	ldr	r0, [pc, #8]	@ (20000ff4 <__tu_fifo_write_veneer+0xc>)
20000fec:	4684      	mov	ip, r0
20000fee:	bc01      	pop	{r0}
20000ff0:	4760      	bx	ip
20000ff2:	bf00      	nop
20000ff4:	1000a375 	.word	0x1000a375

20000ff8 <DEBUG>:
20000ff8:	                                         .

20000ff9 <striped_spin_lock_num>:
20000ff9:	                                         ...

20000ffc <irq_handler_chain_slots>:
20000ffc:	00000000 	.word	0x00000000
20001000:	00010000 	.word	0x00010000
	...
2000100c:	00020000 	.word	0x00020000
	...
20001018:	00030000 	.word	0x00030000
	...
20001024:	00ff0000 	.word	0x00ff0000
20001028:	00000000 	.word	0x00000000

2000102c <irq_handler_chain_first_slot>:
2000102c:	b501      	push	{r0, lr}
2000102e:	6848      	ldr	r0, [r1, #4]
20001030:	3101      	adds	r1, #1
20001032:	468e      	mov	lr, r1
20001034:	4700      	bx	r0

20001036 <irq_handler_chain_remove_tail>:
20001036:	4670      	mov	r0, lr
20001038:	3809      	subs	r0, #9
2000103a:	4901      	ldr	r1, [pc, #4]	@ (20001040 <irq_handler_chain_remove_tail+0xa>)
2000103c:	4788      	blx	r1
2000103e:	bd01      	pop	{r0, pc}
20001040:	100040f9 	.word	0x100040f9

20001044 <default_alarm_pool>:
20001044:	2000105c 00000000 20001568 20001dfc     \.. ....h.. ... 
	...

2000105c <default_alarm_pool_heap>:
2000105c:	20001e0c 00000000 00000000 00000010     ... ............
2000106c:	00000000                                ....

20001070 <aeabi_bits_funcs>:
20001070:	00003350 	.word	0x00003350
20001074:	0000334c 	.word	0x0000334c
20001078:	00003354 	.word	0x00003354
2000107c:	00003352 	.word	0x00003352

20001080 <aeabi_bits_funcs_end>:
20001080:	0000534d 	.word	0x0000534d
20001084:	0000434d 	.word	0x0000434d
20001088:	00003453 	.word	0x00003453
2000108c:	00003443 	.word	0x00003443

20001090 <stdio_usb>:
20001090:	10008509 00000000 10008479 10008401     ........y.......
200010a0:	00000000 00000100                       ........

200010a8 <ep_dir_string>:
200010a8:	1000b79c 1000b7a0                       ........

200010b0 <_usbd_qdef>:
200010b0:	20001c18 000c0010 00000000 00000000     ... ............
	...

200010cc <_usbd_rhport>:
200010cc:	000000ff                                ....

200010d0 <impure_data>:
200010d0:	00000000 200013bc 20001424 2000148c     ....... $.. ... 
	...
20001178:	00000001 00000000 abcd330e e66d1234     .........3..4.m.
20001188:	0005deec 0000000b 00000000 00000000     ................
	...

200014f8 <__atexit_recursive_mutex>:
200014f8:	20001890                                ... 

200014fc <malloc_mutex>:
	...

20001504 <print_mutex>:
	...

2000150c <__mutex_array_end>:
2000150c:	10007eed 	.word	0x10007eed
20001510:	10006e65 	.word	0x10006e65
20001514:	1000759d 	.word	0x1000759d
20001518:	10007e2d 	.word	0x10007e2d

2000151c <__init_array_start>:
2000151c:	1000adc5 	.word	0x1000adc5

20001520 <__frame_dummy_init_array_entry>:
20001520:	10000331 1000883d                       1...=...
